
C:/Users/png_b/Downloads/Github folder 2/ICT2104/build/2104_Project/2104_Project.elf:     file format elf32-littlearm

Sections:
Idx Name          Size      VMA       LMA       File off  Algn
  0 .boot2        00000100  10000000  10000000  00001000  2**0
                  CONTENTS, ALLOC, LOAD, READONLY, CODE
  1 .text         0000a910  10000100  10000100  00001100  2**3
                  CONTENTS, ALLOC, LOAD, READONLY, CODE
  2 .rodata       00001de0  1000aa10  1000aa10  0000ba10  2**3
                  CONTENTS, ALLOC, LOAD, READONLY, DATA
  3 .binary_info  00000034  1000c7f0  1000c7f0  0000d7f0  2**2
                  CONTENTS, ALLOC, LOAD, DATA
  4 .ram_vector_table 000000c0  20000000  20000000  0000e554  2**2
                  CONTENTS
  5 .data         00000494  200000c0  1000c824  0000e0c0  2**4
                  CONTENTS, ALLOC, LOAD, READONLY, CODE
  6 .uninitialized_data 00000000  20000554  20000554  0000e614  2**0
                  CONTENTS
  7 .scratch_x    00000000  20040000  20040000  0000e614  2**0
                  CONTENTS
  8 .scratch_y    00000000  20041000  20041000  0000e614  2**0
                  CONTENTS
  9 .bss          00001bfc  20000558  20000558  0000e558  2**3
                  ALLOC
 10 .heap         00000800  20002154  20002154  0000e614  2**2
                  CONTENTS, READONLY
 11 .stack_dummy  00000800  20041000  20041000  0000ee20  2**5
                  CONTENTS, READONLY
 12 .ARM.attributes 00000028  00000000  00000000  0000f620  2**0
                  CONTENTS, READONLY
 13 .comment      00000049  00000000  00000000  0000f648  2**0
                  CONTENTS, READONLY
 14 .debug_info   000332c3  00000000  00000000  0000f691  2**0
                  CONTENTS, READONLY, DEBUGGING, OCTETS
 15 .debug_abbrev 00008931  00000000  00000000  00042954  2**0
                  CONTENTS, READONLY, DEBUGGING, OCTETS
 16 .debug_loc    000243dd  00000000  00000000  0004b285  2**0
                  CONTENTS, READONLY, DEBUGGING, OCTETS
 17 .debug_aranges 00001968  00000000  00000000  0006f668  2**3
                  CONTENTS, READONLY, DEBUGGING, OCTETS
 18 .debug_ranges 00005038  00000000  00000000  00070fd0  2**3
                  CONTENTS, READONLY, DEBUGGING, OCTETS
 19 .debug_line   0001e4df  00000000  00000000  00076008  2**0
                  CONTENTS, READONLY, DEBUGGING, OCTETS
 20 .debug_str    0000848b  00000000  00000000  000944e7  2**0
                  CONTENTS, READONLY, DEBUGGING, OCTETS
 21 .debug_frame  00003838  00000000  00000000  0009c974  2**2
                  CONTENTS, READONLY, DEBUGGING, OCTETS

C:/Users/png_b/Downloads/Github folder 2/ICT2104/build/2104_Project/2104_Project.elf:     file format elf32-littlearm


Disassembly of section .boot2:

10000000 <__boot2_start__>:
10000000:	4b32b500 	.word	0x4b32b500
10000004:	60582021 	.word	0x60582021
10000008:	21026898 	.word	0x21026898
1000000c:	60984388 	.word	0x60984388
10000010:	611860d8 	.word	0x611860d8
10000014:	4b2e6158 	.word	0x4b2e6158
10000018:	60992100 	.word	0x60992100
1000001c:	61592102 	.word	0x61592102
10000020:	22f02101 	.word	0x22f02101
10000024:	492b5099 	.word	0x492b5099
10000028:	21016019 	.word	0x21016019
1000002c:	20356099 	.word	0x20356099
10000030:	f844f000 	.word	0xf844f000
10000034:	42902202 	.word	0x42902202
10000038:	2106d014 	.word	0x2106d014
1000003c:	f0006619 	.word	0xf0006619
10000040:	6e19f834 	.word	0x6e19f834
10000044:	66192101 	.word	0x66192101
10000048:	66182000 	.word	0x66182000
1000004c:	f000661a 	.word	0xf000661a
10000050:	6e19f82c 	.word	0x6e19f82c
10000054:	6e196e19 	.word	0x6e196e19
10000058:	f0002005 	.word	0xf0002005
1000005c:	2101f82f 	.word	0x2101f82f
10000060:	d1f94208 	.word	0xd1f94208
10000064:	60992100 	.word	0x60992100
10000068:	6019491b 	.word	0x6019491b
1000006c:	60592100 	.word	0x60592100
10000070:	481b491a 	.word	0x481b491a
10000074:	21016001 	.word	0x21016001
10000078:	21eb6099 	.word	0x21eb6099
1000007c:	21a06619 	.word	0x21a06619
10000080:	f0006619 	.word	0xf0006619
10000084:	2100f812 	.word	0x2100f812
10000088:	49166099 	.word	0x49166099
1000008c:	60014814 	.word	0x60014814
10000090:	60992101 	.word	0x60992101
10000094:	2800bc01 	.word	0x2800bc01
10000098:	4700d000 	.word	0x4700d000
1000009c:	49134812 	.word	0x49134812
100000a0:	c8036008 	.word	0xc8036008
100000a4:	8808f380 	.word	0x8808f380
100000a8:	b5034708 	.word	0xb5034708
100000ac:	20046a99 	.word	0x20046a99
100000b0:	d0fb4201 	.word	0xd0fb4201
100000b4:	42012001 	.word	0x42012001
100000b8:	bd03d1f8 	.word	0xbd03d1f8
100000bc:	6618b502 	.word	0x6618b502
100000c0:	f7ff6618 	.word	0xf7ff6618
100000c4:	6e18fff2 	.word	0x6e18fff2
100000c8:	bd026e18 	.word	0xbd026e18
100000cc:	40020000 	.word	0x40020000
100000d0:	18000000 	.word	0x18000000
100000d4:	00070000 	.word	0x00070000
100000d8:	005f0300 	.word	0x005f0300
100000dc:	00002221 	.word	0x00002221
100000e0:	180000f4 	.word	0x180000f4
100000e4:	a0002022 	.word	0xa0002022
100000e8:	10000100 	.word	0x10000100
100000ec:	e000ed08 	.word	0xe000ed08
	...
100000fc:	7a4eb274 	.word	0x7a4eb274

Disassembly of section .text:

10000100 <__VECTOR_TABLE>:
10000100:	20042000 	.word	0x20042000
10000104:	100001f7 	.word	0x100001f7
10000108:	100001c3 	.word	0x100001c3
1000010c:	100001c5 	.word	0x100001c5
10000110:	100001c1 	.word	0x100001c1
10000114:	100001c1 	.word	0x100001c1
10000118:	100001c1 	.word	0x100001c1
1000011c:	100001c1 	.word	0x100001c1
10000120:	100001c1 	.word	0x100001c1
10000124:	100001c1 	.word	0x100001c1
10000128:	100001c1 	.word	0x100001c1
1000012c:	100001c7 	.word	0x100001c7
10000130:	100001c1 	.word	0x100001c1
10000134:	100001c1 	.word	0x100001c1
10000138:	100001c9 	.word	0x100001c9
1000013c:	100001cb 	.word	0x100001cb
10000140:	100001cd 	.word	0x100001cd
10000144:	100001cd 	.word	0x100001cd
10000148:	100001cd 	.word	0x100001cd
1000014c:	100001cd 	.word	0x100001cd
10000150:	100001cd 	.word	0x100001cd
10000154:	100001cd 	.word	0x100001cd
10000158:	100001cd 	.word	0x100001cd
1000015c:	100001cd 	.word	0x100001cd
10000160:	100001cd 	.word	0x100001cd
10000164:	100001cd 	.word	0x100001cd
10000168:	100001cd 	.word	0x100001cd
1000016c:	100001cd 	.word	0x100001cd
10000170:	100001cd 	.word	0x100001cd
10000174:	100001cd 	.word	0x100001cd
10000178:	100001cd 	.word	0x100001cd
1000017c:	100001cd 	.word	0x100001cd
10000180:	100001cd 	.word	0x100001cd
10000184:	100001cd 	.word	0x100001cd
10000188:	100001cd 	.word	0x100001cd
1000018c:	100001cd 	.word	0x100001cd
10000190:	100001cd 	.word	0x100001cd
10000194:	100001cd 	.word	0x100001cd
10000198:	100001cd 	.word	0x100001cd
1000019c:	100001cd 	.word	0x100001cd
100001a0:	100001cd 	.word	0x100001cd
100001a4:	100001cd 	.word	0x100001cd
100001a8:	100001cd 	.word	0x100001cd
100001ac:	100001cd 	.word	0x100001cd
100001b0:	100001cd 	.word	0x100001cd
100001b4:	100001cd 	.word	0x100001cd
100001b8:	100001cd 	.word	0x100001cd
100001bc:	100001cd 	.word	0x100001cd

100001c0 <isr_invalid>:
100001c0:	be00      	bkpt	0x0000

100001c2 <isr_nmi>:
100001c2:	be00      	bkpt	0x0000

100001c4 <isr_hardfault>:
100001c4:	be00      	bkpt	0x0000

100001c6 <isr_svcall>:
100001c6:	be00      	bkpt	0x0000

100001c8 <isr_pendsv>:
100001c8:	be00      	bkpt	0x0000

100001ca <isr_systick>:
100001ca:	be00      	bkpt	0x0000

100001cc <__unhandled_user_irq>:
100001cc:	f000 f84b 	bl	10000266 <__get_current_exception>
100001d0:	3810      	subs	r0, #16

100001d2 <unhandled_user_irq_num_in_r0>:
100001d2:	be00      	bkpt	0x0000

100001d4 <binary_info_header>:
100001d4:	7188ebf2 	.word	0x7188ebf2
100001d8:	1000c7f0 	.word	0x1000c7f0
100001dc:	1000c824 	.word	0x1000c824
100001e0:	10000234 	.word	0x10000234
100001e4:	e71aa390 	.word	0xe71aa390

100001e8 <_entry_point>:
100001e8:	2000      	movs	r0, #0
100001ea:	4921      	ldr	r1, [pc, #132]	; (10000270 <__get_current_exception+0xa>)
100001ec:	6008      	str	r0, [r1, #0]
100001ee:	c806      	ldmia	r0!, {r1, r2}
100001f0:	f381 8808 	msr	MSP, r1
100001f4:	4710      	bx	r2

100001f6 <_reset_handler>:
100001f6:	481f      	ldr	r0, [pc, #124]	; (10000274 <__get_current_exception+0xe>)
100001f8:	6800      	ldr	r0, [r0, #0]
100001fa:	2800      	cmp	r0, #0
100001fc:	d12f      	bne.n	1000025e <hold_non_core0_in_bootrom>
100001fe:	a40d      	add	r4, pc, #52	; (adr r4, 10000234 <data_cpy_table>)
10000200:	cc0e      	ldmia	r4!, {r1, r2, r3}
10000202:	2900      	cmp	r1, #0
10000204:	d002      	beq.n	1000020c <_reset_handler+0x16>
10000206:	f000 f812 	bl	1000022e <data_cpy>
1000020a:	e7f9      	b.n	10000200 <_reset_handler+0xa>
1000020c:	491a      	ldr	r1, [pc, #104]	; (10000278 <__get_current_exception+0x12>)
1000020e:	4a1b      	ldr	r2, [pc, #108]	; (1000027c <__get_current_exception+0x16>)
10000210:	2000      	movs	r0, #0
10000212:	e000      	b.n	10000216 <bss_fill_test>

10000214 <bss_fill_loop>:
10000214:	c101      	stmia	r1!, {r0}

10000216 <bss_fill_test>:
10000216:	4291      	cmp	r1, r2
10000218:	d1fc      	bne.n	10000214 <bss_fill_loop>

1000021a <platform_entry>:
1000021a:	4919      	ldr	r1, [pc, #100]	; (10000280 <__get_current_exception+0x1a>)
1000021c:	4788      	blx	r1
1000021e:	4919      	ldr	r1, [pc, #100]	; (10000284 <__get_current_exception+0x1e>)
10000220:	4788      	blx	r1
10000222:	4919      	ldr	r1, [pc, #100]	; (10000288 <__get_current_exception+0x22>)
10000224:	4788      	blx	r1
10000226:	be00      	bkpt	0x0000
10000228:	e7fd      	b.n	10000226 <platform_entry+0xc>

1000022a <data_cpy_loop>:
1000022a:	c901      	ldmia	r1!, {r0}
1000022c:	c201      	stmia	r2!, {r0}

1000022e <data_cpy>:
1000022e:	429a      	cmp	r2, r3
10000230:	d3fb      	bcc.n	1000022a <data_cpy_loop>
10000232:	4770      	bx	lr

10000234 <data_cpy_table>:
10000234:	1000c824 	.word	0x1000c824
10000238:	200000c0 	.word	0x200000c0
1000023c:	20000554 	.word	0x20000554
10000240:	1000ccb8 	.word	0x1000ccb8
10000244:	20040000 	.word	0x20040000
10000248:	20040000 	.word	0x20040000
1000024c:	1000ccb8 	.word	0x1000ccb8
10000250:	20041000 	.word	0x20041000
10000254:	20041000 	.word	0x20041000
10000258:	00000000 	.word	0x00000000
1000025c:	4770      	bx	lr

1000025e <hold_non_core0_in_bootrom>:
1000025e:	480b      	ldr	r0, [pc, #44]	; (1000028c <__get_current_exception+0x26>)
10000260:	f005 fcd6 	bl	10005c10 <rom_func_lookup>
10000264:	4700      	bx	r0

10000266 <__get_current_exception>:
10000266:	f3ef 8005 	mrs	r0, IPSR
1000026a:	b2c0      	uxtb	r0, r0
1000026c:	4770      	bx	lr
1000026e:	0000      	.short	0x0000
10000270:	e000ed08 	.word	0xe000ed08
10000274:	d0000000 	.word	0xd0000000
10000278:	20000558 	.word	0x20000558
1000027c:	20002154 	.word	0x20002154
10000280:	1000453d 	.word	0x1000453d
10000284:	10000349 	.word	0x10000349
10000288:	100044f9 	.word	0x100044f9
1000028c:	00005657 	.word	0x00005657

10000290 <__bi_50>:
10000290:	50520006 5360b3ab 1000bf58              ..RP..`SX...

1000029c <__bi_38>:
1000029c:	50520006 02031c86 1000bf68              ..RP....h...

100002a8 <__bi_30>:
100002a8:	50520006 9da22254 1000bf78              ..RPT"..x...

100002b4 <__bi_22>:
100002b4:	50520005 68f465de 1000ccb8              ..RP.e.h....

100002c0 <_init>:
100002c0:	b5f8      	push	{r3, r4, r5, r6, r7, lr}
100002c2:	46c0      	nop			; (mov r8, r8)

100002c4 <__do_global_dtors_aux>:
100002c4:	b510      	push	{r4, lr}
100002c6:	4c06      	ldr	r4, [pc, #24]	; (100002e0 <__do_global_dtors_aux+0x1c>)
100002c8:	7823      	ldrb	r3, [r4, #0]
100002ca:	2b00      	cmp	r3, #0
100002cc:	d107      	bne.n	100002de <__do_global_dtors_aux+0x1a>
100002ce:	4b05      	ldr	r3, [pc, #20]	; (100002e4 <__do_global_dtors_aux+0x20>)
100002d0:	2b00      	cmp	r3, #0
100002d2:	d002      	beq.n	100002da <__do_global_dtors_aux+0x16>
100002d4:	4804      	ldr	r0, [pc, #16]	; (100002e8 <__do_global_dtors_aux+0x24>)
100002d6:	e000      	b.n	100002da <__do_global_dtors_aux+0x16>
100002d8:	bf00      	nop
100002da:	2301      	movs	r3, #1
100002dc:	7023      	strb	r3, [r4, #0]
100002de:	bd10      	pop	{r4, pc}
100002e0:	20000660 	.word	0x20000660
100002e4:	00000000 	.word	0x00000000
100002e8:	1000aa10 	.word	0x1000aa10

100002ec <frame_dummy>:
100002ec:	4b04      	ldr	r3, [pc, #16]	; (10000300 <frame_dummy+0x14>)
100002ee:	b510      	push	{r4, lr}
100002f0:	2b00      	cmp	r3, #0
100002f2:	d003      	beq.n	100002fc <frame_dummy+0x10>
100002f4:	4903      	ldr	r1, [pc, #12]	; (10000304 <frame_dummy+0x18>)
100002f6:	4804      	ldr	r0, [pc, #16]	; (10000308 <frame_dummy+0x1c>)
100002f8:	e000      	b.n	100002fc <frame_dummy+0x10>
100002fa:	bf00      	nop
100002fc:	bd10      	pop	{r4, pc}
100002fe:	46c0      	nop			; (mov r8, r8)
10000300:	00000000 	.word	0x00000000
10000304:	20000664 	.word	0x20000664
10000308:	1000aa10 	.word	0x1000aa10

1000030c <add_repeating_timer_ms>:
1000030c:	b5f0      	push	{r4, r5, r6, r7, lr}
1000030e:	46c6      	mov	lr, r8
10000310:	b500      	push	{lr}
10000312:	b084      	sub	sp, #16
10000314:	0004      	movs	r4, r0
10000316:	000e      	movs	r6, r1
10000318:	0017      	movs	r7, r2
1000031a:	001d      	movs	r5, r3
1000031c:	f003 fa52 	bl	100037c4 <alarm_pool_get_default>
10000320:	4680      	mov	r8, r0
10000322:	17e1      	asrs	r1, r4, #31
10000324:	22fa      	movs	r2, #250	; 0xfa
10000326:	0092      	lsls	r2, r2, #2
10000328:	2300      	movs	r3, #0
1000032a:	0020      	movs	r0, r4
1000032c:	f006 ff3c 	bl	100071a8 <__wrap___aeabi_lmul>
10000330:	0002      	movs	r2, r0
10000332:	000b      	movs	r3, r1
10000334:	9502      	str	r5, [sp, #8]
10000336:	9701      	str	r7, [sp, #4]
10000338:	9600      	str	r6, [sp, #0]
1000033a:	4640      	mov	r0, r8
1000033c:	f003 fb88 	bl	10003a50 <alarm_pool_add_repeating_timer_us>
10000340:	b004      	add	sp, #16
10000342:	bc80      	pop	{r7}
10000344:	46b8      	mov	r8, r7
10000346:	bdf0      	pop	{r4, r5, r6, r7, pc}

10000348 <main>:
10000348:	b510      	push	{r4, lr}
1000034a:	b08c      	sub	sp, #48	; 0x30
1000034c:	20fa      	movs	r0, #250	; 0xfa
1000034e:	0040      	lsls	r0, r0, #1
10000350:	f003 fc76 	bl	10003c40 <sleep_ms>
10000354:	f007 fa58 	bl	10007808 <stdio_init_all>
10000358:	f001 f812 	bl	10001380 <uart_start>
1000035c:	f001 f94a 	bl	100015f4 <init_motor>
10000360:	f001 f926 	bl	100015b0 <init_pins>
10000364:	f001 fbdc 	bl	10001b20 <init_ultrasonic>
10000368:	f001 fd54 	bl	10001e14 <init_accel>
1000036c:	f001 fdb6 	bl	10001edc <init_barcode>
10000370:	ab06      	add	r3, sp, #24
10000372:	2200      	movs	r2, #0
10000374:	490d      	ldr	r1, [pc, #52]	; (100003ac <main+0x64>)
10000376:	2096      	movs	r0, #150	; 0x96
10000378:	f7ff ffc8 	bl	1000030c <add_repeating_timer_ms>
1000037c:	466b      	mov	r3, sp
1000037e:	2200      	movs	r2, #0
10000380:	490b      	ldr	r1, [pc, #44]	; (100003b0 <main+0x68>)
10000382:	2064      	movs	r0, #100	; 0x64
10000384:	f7ff ffc2 	bl	1000030c <add_repeating_timer_ms>
10000388:	4c0a      	ldr	r4, [pc, #40]	; (100003b4 <main+0x6c>)
1000038a:	0023      	movs	r3, r4
1000038c:	2201      	movs	r2, #1
1000038e:	2108      	movs	r1, #8
10000390:	200e      	movs	r0, #14
10000392:	f002 fa3b 	bl	1000280c <gpio_set_irq_enabled_with_callback>
10000396:	0023      	movs	r3, r4
10000398:	2201      	movs	r2, #1
1000039a:	2108      	movs	r1, #8
1000039c:	200f      	movs	r0, #15
1000039e:	f002 fa35 	bl	1000280c <gpio_set_irq_enabled_with_callback>
100003a2:	f000 ffa9 	bl	100012f8 <MappingMain>
100003a6:	f002 f9a1 	bl	100026ec <barcode_IRQ>
100003aa:	e7fc      	b.n	100003a6 <main+0x5e>
100003ac:	10001e59 	.word	0x10001e59
100003b0:	10001761 	.word	0x10001761
100003b4:	10001599 	.word	0x10001599

100003b8 <SavePrevXYToCurrentNode>:
100003b8:	b5f0      	push	{r4, r5, r6, r7, lr}
100003ba:	4b17      	ldr	r3, [pc, #92]	; (10000418 <SavePrevXYToCurrentNode+0x60>)
100003bc:	6819      	ldr	r1, [r3, #0]
100003be:	6858      	ldr	r0, [r3, #4]
100003c0:	00c2      	lsls	r2, r0, #3
100003c2:	1a12      	subs	r2, r2, r0
100003c4:	0093      	lsls	r3, r2, #2
100003c6:	018a      	lsls	r2, r1, #6
100003c8:	1a52      	subs	r2, r2, r1
100003ca:	0094      	lsls	r4, r2, #2
100003cc:	191b      	adds	r3, r3, r4
100003ce:	4a13      	ldr	r2, [pc, #76]	; (1000041c <SavePrevXYToCurrentNode+0x64>)
100003d0:	18d3      	adds	r3, r2, r3
100003d2:	695b      	ldr	r3, [r3, #20]
100003d4:	2b64      	cmp	r3, #100	; 0x64
100003d6:	d000      	beq.n	100003da <SavePrevXYToCurrentNode+0x22>
100003d8:	bdf0      	pop	{r4, r5, r6, r7, pc}
100003da:	00c2      	lsls	r2, r0, #3
100003dc:	1a12      	subs	r2, r2, r0
100003de:	0093      	lsls	r3, r2, #2
100003e0:	191b      	adds	r3, r3, r4
100003e2:	4a0e      	ldr	r2, [pc, #56]	; (1000041c <SavePrevXYToCurrentNode+0x64>)
100003e4:	18d3      	adds	r3, r2, r3
100003e6:	699b      	ldr	r3, [r3, #24]
100003e8:	2b64      	cmp	r3, #100	; 0x64
100003ea:	d1f5      	bne.n	100003d8 <SavePrevXYToCurrentNode+0x20>
100003ec:	0015      	movs	r5, r2
100003ee:	00c4      	lsls	r4, r0, #3
100003f0:	1a22      	subs	r2, r4, r0
100003f2:	0093      	lsls	r3, r2, #2
100003f4:	018a      	lsls	r2, r1, #6
100003f6:	1a57      	subs	r7, r2, r1
100003f8:	00be      	lsls	r6, r7, #2
100003fa:	199b      	adds	r3, r3, r6
100003fc:	18eb      	adds	r3, r5, r3
100003fe:	4e08      	ldr	r6, [pc, #32]	; (10000420 <SavePrevXYToCurrentNode+0x68>)
10000400:	6836      	ldr	r6, [r6, #0]
10000402:	615e      	str	r6, [r3, #20]
10000404:	1a20      	subs	r0, r4, r0
10000406:	0083      	lsls	r3, r0, #2
10000408:	00ba      	lsls	r2, r7, #2
1000040a:	189b      	adds	r3, r3, r2
1000040c:	18ed      	adds	r5, r5, r3
1000040e:	4b05      	ldr	r3, [pc, #20]	; (10000424 <SavePrevXYToCurrentNode+0x6c>)
10000410:	681b      	ldr	r3, [r3, #0]
10000412:	61ab      	str	r3, [r5, #24]
10000414:	e7e0      	b.n	100003d8 <SavePrevXYToCurrentNode+0x20>
10000416:	46c0      	nop			; (mov r8, r8)
10000418:	20000c2c 	.word	0x20000c2c
1000041c:	20001000 	.word	0x20001000
10000420:	20000420 	.word	0x20000420
10000424:	20000424 	.word	0x20000424

10000428 <Push>:
10000428:	b510      	push	{r4, lr}
1000042a:	4b08      	ldr	r3, [pc, #32]	; (1000044c <Push+0x24>)
1000042c:	681b      	ldr	r3, [r3, #0]
1000042e:	2b13      	cmp	r3, #19
10000430:	d008      	beq.n	10000444 <Push+0x1c>
10000432:	3301      	adds	r3, #1
10000434:	4a05      	ldr	r2, [pc, #20]	; (1000044c <Push+0x24>)
10000436:	6013      	str	r3, [r2, #0]
10000438:	4a05      	ldr	r2, [pc, #20]	; (10000450 <Push+0x28>)
1000043a:	00db      	lsls	r3, r3, #3
1000043c:	5098      	str	r0, [r3, r2]
1000043e:	18d3      	adds	r3, r2, r3
10000440:	6059      	str	r1, [r3, #4]
10000442:	bd10      	pop	{r4, pc}
10000444:	4803      	ldr	r0, [pc, #12]	; (10000454 <Push+0x2c>)
10000446:	f007 f9a1 	bl	1000778c <__wrap_puts>
1000044a:	e7fa      	b.n	10000442 <Push+0x1a>
1000044c:	20000428 	.word	0x20000428
10000450:	20000d1c 	.word	0x20000d1c
10000454:	1000aa10 	.word	0x1000aa10

10000458 <Pop>:
10000458:	b510      	push	{r4, lr}
1000045a:	0004      	movs	r4, r0
1000045c:	4b09      	ldr	r3, [pc, #36]	; (10000484 <Pop+0x2c>)
1000045e:	681b      	ldr	r3, [r3, #0]
10000460:	1c5a      	adds	r2, r3, #1
10000462:	d00b      	beq.n	1000047c <Pop+0x24>
10000464:	1e59      	subs	r1, r3, #1
10000466:	4a07      	ldr	r2, [pc, #28]	; (10000484 <Pop+0x2c>)
10000468:	6011      	str	r1, [r2, #0]
1000046a:	3b02      	subs	r3, #2
1000046c:	00db      	lsls	r3, r3, #3
1000046e:	4a06      	ldr	r2, [pc, #24]	; (10000488 <Pop+0x30>)
10000470:	18d3      	adds	r3, r2, r3
10000472:	0002      	movs	r2, r0
10000474:	cb03      	ldmia	r3!, {r0, r1}
10000476:	c203      	stmia	r2!, {r0, r1}
10000478:	0020      	movs	r0, r4
1000047a:	bd10      	pop	{r4, pc}
1000047c:	4803      	ldr	r0, [pc, #12]	; (1000048c <Pop+0x34>)
1000047e:	f007 f985 	bl	1000778c <__wrap_puts>
10000482:	e7f9      	b.n	10000478 <Pop+0x20>
10000484:	20000428 	.word	0x20000428
10000488:	20000d1c 	.word	0x20000d1c
1000048c:	1000aa20 	.word	0x1000aa20

10000490 <Peek>:
10000490:	b510      	push	{r4, lr}
10000492:	0004      	movs	r4, r0
10000494:	4b07      	ldr	r3, [pc, #28]	; (100004b4 <Peek+0x24>)
10000496:	681a      	ldr	r2, [r3, #0]
10000498:	1c53      	adds	r3, r2, #1
1000049a:	d007      	beq.n	100004ac <Peek+0x1c>
1000049c:	00d2      	lsls	r2, r2, #3
1000049e:	4b06      	ldr	r3, [pc, #24]	; (100004b8 <Peek+0x28>)
100004a0:	189b      	adds	r3, r3, r2
100004a2:	0002      	movs	r2, r0
100004a4:	cb03      	ldmia	r3!, {r0, r1}
100004a6:	c203      	stmia	r2!, {r0, r1}
100004a8:	0020      	movs	r0, r4
100004aa:	bd10      	pop	{r4, pc}
100004ac:	4803      	ldr	r0, [pc, #12]	; (100004bc <Peek+0x2c>)
100004ae:	f007 f99f 	bl	100077f0 <__wrap_printf>
100004b2:	e7f9      	b.n	100004a8 <Peek+0x18>
100004b4:	20000428 	.word	0x20000428
100004b8:	20000d1c 	.word	0x20000d1c
100004bc:	1000aa20 	.word	0x1000aa20

100004c0 <AddStackIfNotExist>:
100004c0:	b510      	push	{r4, lr}
100004c2:	4b0d      	ldr	r3, [pc, #52]	; (100004f8 <AddStackIfNotExist+0x38>)
100004c4:	681b      	ldr	r3, [r3, #0]
100004c6:	e000      	b.n	100004ca <AddStackIfNotExist+0xa>
100004c8:	3b01      	subs	r3, #1
100004ca:	2b00      	cmp	r3, #0
100004cc:	db0c      	blt.n	100004e8 <AddStackIfNotExist+0x28>
100004ce:	00da      	lsls	r2, r3, #3
100004d0:	4c0a      	ldr	r4, [pc, #40]	; (100004fc <AddStackIfNotExist+0x3c>)
100004d2:	5912      	ldr	r2, [r2, r4]
100004d4:	4282      	cmp	r2, r0
100004d6:	d1f7      	bne.n	100004c8 <AddStackIfNotExist+0x8>
100004d8:	00dc      	lsls	r4, r3, #3
100004da:	4a08      	ldr	r2, [pc, #32]	; (100004fc <AddStackIfNotExist+0x3c>)
100004dc:	1912      	adds	r2, r2, r4
100004de:	6852      	ldr	r2, [r2, #4]
100004e0:	428a      	cmp	r2, r1
100004e2:	d1f1      	bne.n	100004c8 <AddStackIfNotExist+0x8>
100004e4:	2301      	movs	r3, #1
100004e6:	e000      	b.n	100004ea <AddStackIfNotExist+0x2a>
100004e8:	2300      	movs	r3, #0
100004ea:	2b00      	cmp	r3, #0
100004ec:	d000      	beq.n	100004f0 <AddStackIfNotExist+0x30>
100004ee:	bd10      	pop	{r4, pc}
100004f0:	f7ff ff9a 	bl	10000428 <Push>
100004f4:	e7fb      	b.n	100004ee <AddStackIfNotExist+0x2e>
100004f6:	46c0      	nop			; (mov r8, r8)
100004f8:	20000428 	.word	0x20000428
100004fc:	20000d1c 	.word	0x20000d1c

10000500 <MarkWall>:
10000500:	b510      	push	{r4, lr}
10000502:	000c      	movs	r4, r1
10000504:	4947      	ldr	r1, [pc, #284]	; (10000624 <MarkWall+0x124>)
10000506:	f006 fec3 	bl	10007290 <__wrap___aeabi_fcmpgt>
1000050a:	2800      	cmp	r0, #0
1000050c:	d044      	beq.n	10000598 <MarkWall+0x98>
1000050e:	2c02      	cmp	r4, #2
10000510:	d033      	beq.n	1000057a <MarkWall+0x7a>
10000512:	d812      	bhi.n	1000053a <MarkWall+0x3a>
10000514:	2c00      	cmp	r4, #0
10000516:	d021      	beq.n	1000055c <MarkWall+0x5c>
10000518:	2c01      	cmp	r4, #1
1000051a:	d12d      	bne.n	10000578 <MarkWall+0x78>
1000051c:	4b42      	ldr	r3, [pc, #264]	; (10000628 <MarkWall+0x128>)
1000051e:	6819      	ldr	r1, [r3, #0]
10000520:	685a      	ldr	r2, [r3, #4]
10000522:	00d3      	lsls	r3, r2, #3
10000524:	1a9b      	subs	r3, r3, r2
10000526:	009b      	lsls	r3, r3, #2
10000528:	018a      	lsls	r2, r1, #6
1000052a:	1a52      	subs	r2, r2, r1
1000052c:	0092      	lsls	r2, r2, #2
1000052e:	189b      	adds	r3, r3, r2
10000530:	4a3e      	ldr	r2, [pc, #248]	; (1000062c <MarkWall+0x12c>)
10000532:	18d3      	adds	r3, r2, r3
10000534:	2201      	movs	r2, #1
10000536:	60da      	str	r2, [r3, #12]
10000538:	e01e      	b.n	10000578 <MarkWall+0x78>
1000053a:	2c03      	cmp	r4, #3
1000053c:	d11c      	bne.n	10000578 <MarkWall+0x78>
1000053e:	4b3a      	ldr	r3, [pc, #232]	; (10000628 <MarkWall+0x128>)
10000540:	6819      	ldr	r1, [r3, #0]
10000542:	685a      	ldr	r2, [r3, #4]
10000544:	00d3      	lsls	r3, r2, #3
10000546:	1a9b      	subs	r3, r3, r2
10000548:	009b      	lsls	r3, r3, #2
1000054a:	018a      	lsls	r2, r1, #6
1000054c:	1a52      	subs	r2, r2, r1
1000054e:	0092      	lsls	r2, r2, #2
10000550:	189b      	adds	r3, r3, r2
10000552:	4a36      	ldr	r2, [pc, #216]	; (1000062c <MarkWall+0x12c>)
10000554:	18d3      	adds	r3, r2, r3
10000556:	2201      	movs	r2, #1
10000558:	611a      	str	r2, [r3, #16]
1000055a:	e00d      	b.n	10000578 <MarkWall+0x78>
1000055c:	4b32      	ldr	r3, [pc, #200]	; (10000628 <MarkWall+0x128>)
1000055e:	6819      	ldr	r1, [r3, #0]
10000560:	685a      	ldr	r2, [r3, #4]
10000562:	00d3      	lsls	r3, r2, #3
10000564:	1a9b      	subs	r3, r3, r2
10000566:	009b      	lsls	r3, r3, #2
10000568:	018a      	lsls	r2, r1, #6
1000056a:	1a52      	subs	r2, r2, r1
1000056c:	0092      	lsls	r2, r2, #2
1000056e:	189b      	adds	r3, r3, r2
10000570:	4a2e      	ldr	r2, [pc, #184]	; (1000062c <MarkWall+0x12c>)
10000572:	18d3      	adds	r3, r2, r3
10000574:	2201      	movs	r2, #1
10000576:	605a      	str	r2, [r3, #4]
10000578:	bd10      	pop	{r4, pc}
1000057a:	4b2b      	ldr	r3, [pc, #172]	; (10000628 <MarkWall+0x128>)
1000057c:	6819      	ldr	r1, [r3, #0]
1000057e:	685a      	ldr	r2, [r3, #4]
10000580:	00d3      	lsls	r3, r2, #3
10000582:	1a9b      	subs	r3, r3, r2
10000584:	009b      	lsls	r3, r3, #2
10000586:	018a      	lsls	r2, r1, #6
10000588:	1a52      	subs	r2, r2, r1
1000058a:	0092      	lsls	r2, r2, #2
1000058c:	189b      	adds	r3, r3, r2
1000058e:	4a27      	ldr	r2, [pc, #156]	; (1000062c <MarkWall+0x12c>)
10000590:	18d3      	adds	r3, r2, r3
10000592:	2201      	movs	r2, #1
10000594:	609a      	str	r2, [r3, #8]
10000596:	e7ef      	b.n	10000578 <MarkWall+0x78>
10000598:	2c02      	cmp	r4, #2
1000059a:	d033      	beq.n	10000604 <MarkWall+0x104>
1000059c:	d812      	bhi.n	100005c4 <MarkWall+0xc4>
1000059e:	2c00      	cmp	r4, #0
100005a0:	d021      	beq.n	100005e6 <MarkWall+0xe6>
100005a2:	2c01      	cmp	r4, #1
100005a4:	d1e8      	bne.n	10000578 <MarkWall+0x78>
100005a6:	4b20      	ldr	r3, [pc, #128]	; (10000628 <MarkWall+0x128>)
100005a8:	6819      	ldr	r1, [r3, #0]
100005aa:	685a      	ldr	r2, [r3, #4]
100005ac:	00d3      	lsls	r3, r2, #3
100005ae:	1a9b      	subs	r3, r3, r2
100005b0:	009b      	lsls	r3, r3, #2
100005b2:	018a      	lsls	r2, r1, #6
100005b4:	1a52      	subs	r2, r2, r1
100005b6:	0092      	lsls	r2, r2, #2
100005b8:	189b      	adds	r3, r3, r2
100005ba:	4a1c      	ldr	r2, [pc, #112]	; (1000062c <MarkWall+0x12c>)
100005bc:	18d3      	adds	r3, r2, r3
100005be:	2200      	movs	r2, #0
100005c0:	60da      	str	r2, [r3, #12]
100005c2:	e7d9      	b.n	10000578 <MarkWall+0x78>
100005c4:	2c03      	cmp	r4, #3
100005c6:	d1d7      	bne.n	10000578 <MarkWall+0x78>
100005c8:	4b17      	ldr	r3, [pc, #92]	; (10000628 <MarkWall+0x128>)
100005ca:	6819      	ldr	r1, [r3, #0]
100005cc:	685a      	ldr	r2, [r3, #4]
100005ce:	00d3      	lsls	r3, r2, #3
100005d0:	1a9b      	subs	r3, r3, r2
100005d2:	009b      	lsls	r3, r3, #2
100005d4:	018a      	lsls	r2, r1, #6
100005d6:	1a52      	subs	r2, r2, r1
100005d8:	0092      	lsls	r2, r2, #2
100005da:	189b      	adds	r3, r3, r2
100005dc:	4a13      	ldr	r2, [pc, #76]	; (1000062c <MarkWall+0x12c>)
100005de:	18d3      	adds	r3, r2, r3
100005e0:	2200      	movs	r2, #0
100005e2:	611a      	str	r2, [r3, #16]
100005e4:	e7c8      	b.n	10000578 <MarkWall+0x78>
100005e6:	4b10      	ldr	r3, [pc, #64]	; (10000628 <MarkWall+0x128>)
100005e8:	6819      	ldr	r1, [r3, #0]
100005ea:	685a      	ldr	r2, [r3, #4]
100005ec:	00d3      	lsls	r3, r2, #3
100005ee:	1a9b      	subs	r3, r3, r2
100005f0:	009b      	lsls	r3, r3, #2
100005f2:	018a      	lsls	r2, r1, #6
100005f4:	1a52      	subs	r2, r2, r1
100005f6:	0092      	lsls	r2, r2, #2
100005f8:	189b      	adds	r3, r3, r2
100005fa:	4a0c      	ldr	r2, [pc, #48]	; (1000062c <MarkWall+0x12c>)
100005fc:	18d3      	adds	r3, r2, r3
100005fe:	2200      	movs	r2, #0
10000600:	605a      	str	r2, [r3, #4]
10000602:	e7b9      	b.n	10000578 <MarkWall+0x78>
10000604:	4b08      	ldr	r3, [pc, #32]	; (10000628 <MarkWall+0x128>)
10000606:	6819      	ldr	r1, [r3, #0]
10000608:	685a      	ldr	r2, [r3, #4]
1000060a:	00d3      	lsls	r3, r2, #3
1000060c:	1a9b      	subs	r3, r3, r2
1000060e:	009b      	lsls	r3, r3, #2
10000610:	018a      	lsls	r2, r1, #6
10000612:	1a52      	subs	r2, r2, r1
10000614:	0092      	lsls	r2, r2, #2
10000616:	189b      	adds	r3, r3, r2
10000618:	4a04      	ldr	r2, [pc, #16]	; (1000062c <MarkWall+0x12c>)
1000061a:	18d3      	adds	r3, r2, r3
1000061c:	2200      	movs	r2, #0
1000061e:	609a      	str	r2, [r3, #8]
10000620:	e7aa      	b.n	10000578 <MarkWall+0x78>
10000622:	46c0      	nop			; (mov r8, r8)
10000624:	41580000 	.word	0x41580000
10000628:	20000c2c 	.word	0x20000c2c
1000062c:	20001000 	.word	0x20001000

10000630 <SetCar>:
10000630:	b510      	push	{r4, lr}
10000632:	6001      	str	r1, [r0, #0]
10000634:	6042      	str	r2, [r0, #4]
10000636:	7603      	strb	r3, [r0, #24]
10000638:	4801      	ldr	r0, [pc, #4]	; (10000640 <SetCar+0x10>)
1000063a:	f007 f8d9 	bl	100077f0 <__wrap_printf>
1000063e:	bd10      	pop	{r4, pc}
10000640:	1000aa30 	.word	0x1000aa30

10000644 <SetCarWallPointers>:
10000644:	b5f0      	push	{r4, r5, r6, r7, lr}
10000646:	46c6      	mov	lr, r8
10000648:	b500      	push	{lr}
1000064a:	4b4b      	ldr	r3, [pc, #300]	; (10000778 <SetCarWallPointers+0x134>)
1000064c:	7e1b      	ldrb	r3, [r3, #24]
1000064e:	2b02      	cmp	r3, #2
10000650:	d100      	bne.n	10000654 <SetCarWallPointers+0x10>
10000652:	e06d      	b.n	10000730 <SetCarWallPointers+0xec>
10000654:	d824      	bhi.n	100006a0 <SetCarWallPointers+0x5c>
10000656:	2b00      	cmp	r3, #0
10000658:	d043      	beq.n	100006e2 <SetCarWallPointers+0x9e>
1000065a:	2b01      	cmp	r3, #1
1000065c:	d165      	bne.n	1000072a <SetCarWallPointers+0xe6>
1000065e:	4b46      	ldr	r3, [pc, #280]	; (10000778 <SetCarWallPointers+0x134>)
10000660:	6818      	ldr	r0, [r3, #0]
10000662:	685d      	ldr	r5, [r3, #4]
10000664:	00ec      	lsls	r4, r5, #3
10000666:	1b61      	subs	r1, r4, r5
10000668:	008a      	lsls	r2, r1, #2
1000066a:	0181      	lsls	r1, r0, #6
1000066c:	1a0f      	subs	r7, r1, r0
1000066e:	00be      	lsls	r6, r7, #2
10000670:	4690      	mov	r8, r2
10000672:	44b0      	add	r8, r6
10000674:	4647      	mov	r7, r8
10000676:	3708      	adds	r7, #8
10000678:	4e40      	ldr	r6, [pc, #256]	; (1000077c <SetCarWallPointers+0x138>)
1000067a:	19bf      	adds	r7, r7, r6
1000067c:	1d3a      	adds	r2, r7, #4
1000067e:	609a      	str	r2, [r3, #8]
10000680:	60df      	str	r7, [r3, #12]
10000682:	4642      	mov	r2, r8
10000684:	1992      	adds	r2, r2, r6
10000686:	3204      	adds	r2, #4
10000688:	611a      	str	r2, [r3, #16]
1000068a:	4642      	mov	r2, r8
1000068c:	3210      	adds	r2, #16
1000068e:	1992      	adds	r2, r2, r6
10000690:	615a      	str	r2, [r3, #20]
10000692:	2202      	movs	r2, #2
10000694:	769a      	strb	r2, [r3, #26]
10000696:	2200      	movs	r2, #0
10000698:	765a      	strb	r2, [r3, #25]
1000069a:	3203      	adds	r2, #3
1000069c:	76da      	strb	r2, [r3, #27]
1000069e:	e044      	b.n	1000072a <SetCarWallPointers+0xe6>
100006a0:	2b03      	cmp	r3, #3
100006a2:	d142      	bne.n	1000072a <SetCarWallPointers+0xe6>
100006a4:	4934      	ldr	r1, [pc, #208]	; (10000778 <SetCarWallPointers+0x134>)
100006a6:	680c      	ldr	r4, [r1, #0]
100006a8:	684d      	ldr	r5, [r1, #4]
100006aa:	00eb      	lsls	r3, r5, #3
100006ac:	1b58      	subs	r0, r3, r5
100006ae:	0082      	lsls	r2, r0, #2
100006b0:	01a0      	lsls	r0, r4, #6
100006b2:	1b07      	subs	r7, r0, r4
100006b4:	00be      	lsls	r6, r7, #2
100006b6:	1992      	adds	r2, r2, r6
100006b8:	0017      	movs	r7, r2
100006ba:	3710      	adds	r7, #16
100006bc:	4e2f      	ldr	r6, [pc, #188]	; (1000077c <SetCarWallPointers+0x138>)
100006be:	19bf      	adds	r7, r7, r6
100006c0:	608f      	str	r7, [r1, #8]
100006c2:	1997      	adds	r7, r2, r6
100006c4:	3704      	adds	r7, #4
100006c6:	60cf      	str	r7, [r1, #12]
100006c8:	3208      	adds	r2, #8
100006ca:	1992      	adds	r2, r2, r6
100006cc:	610a      	str	r2, [r1, #16]
100006ce:	0013      	movs	r3, r2
100006d0:	3304      	adds	r3, #4
100006d2:	614b      	str	r3, [r1, #20]
100006d4:	2300      	movs	r3, #0
100006d6:	768b      	strb	r3, [r1, #26]
100006d8:	3302      	adds	r3, #2
100006da:	764b      	strb	r3, [r1, #25]
100006dc:	3b01      	subs	r3, #1
100006de:	76cb      	strb	r3, [r1, #27]
100006e0:	e023      	b.n	1000072a <SetCarWallPointers+0xe6>
100006e2:	4a25      	ldr	r2, [pc, #148]	; (10000778 <SetCarWallPointers+0x134>)
100006e4:	6810      	ldr	r0, [r2, #0]
100006e6:	6855      	ldr	r5, [r2, #4]
100006e8:	00ec      	lsls	r4, r5, #3
100006ea:	1b61      	subs	r1, r4, r5
100006ec:	008b      	lsls	r3, r1, #2
100006ee:	0181      	lsls	r1, r0, #6
100006f0:	1a0f      	subs	r7, r1, r0
100006f2:	00be      	lsls	r6, r7, #2
100006f4:	199b      	adds	r3, r3, r6
100006f6:	4e21      	ldr	r6, [pc, #132]	; (1000077c <SetCarWallPointers+0x138>)
100006f8:	199f      	adds	r7, r3, r6
100006fa:	3704      	adds	r7, #4
100006fc:	6097      	str	r7, [r2, #8]
100006fe:	001f      	movs	r7, r3
10000700:	3708      	adds	r7, #8
10000702:	19bf      	adds	r7, r7, r6
10000704:	3704      	adds	r7, #4
10000706:	60d7      	str	r7, [r2, #12]
10000708:	3310      	adds	r3, #16
1000070a:	199b      	adds	r3, r3, r6
1000070c:	6113      	str	r3, [r2, #16]
1000070e:	1b64      	subs	r4, r4, r5
10000710:	00a3      	lsls	r3, r4, #2
10000712:	1a09      	subs	r1, r1, r0
10000714:	0088      	lsls	r0, r1, #2
10000716:	181b      	adds	r3, r3, r0
10000718:	3308      	adds	r3, #8
1000071a:	199b      	adds	r3, r3, r6
1000071c:	6153      	str	r3, [r2, #20]
1000071e:	2301      	movs	r3, #1
10000720:	7693      	strb	r3, [r2, #26]
10000722:	3302      	adds	r3, #2
10000724:	7653      	strb	r3, [r2, #25]
10000726:	3b01      	subs	r3, #1
10000728:	76d3      	strb	r3, [r2, #27]
1000072a:	bc80      	pop	{r7}
1000072c:	46b8      	mov	r8, r7
1000072e:	bdf0      	pop	{r4, r5, r6, r7, pc}
10000730:	4b11      	ldr	r3, [pc, #68]	; (10000778 <SetCarWallPointers+0x134>)
10000732:	6818      	ldr	r0, [r3, #0]
10000734:	685c      	ldr	r4, [r3, #4]
10000736:	00e7      	lsls	r7, r4, #3
10000738:	1b39      	subs	r1, r7, r4
1000073a:	008a      	lsls	r2, r1, #2
1000073c:	0186      	lsls	r6, r0, #6
1000073e:	1a35      	subs	r5, r6, r0
10000740:	00a9      	lsls	r1, r5, #2
10000742:	1852      	adds	r2, r2, r1
10000744:	0011      	movs	r1, r2
10000746:	3108      	adds	r1, #8
10000748:	4d0c      	ldr	r5, [pc, #48]	; (1000077c <SetCarWallPointers+0x138>)
1000074a:	1949      	adds	r1, r1, r5
1000074c:	6099      	str	r1, [r3, #8]
1000074e:	3210      	adds	r2, #16
10000750:	1952      	adds	r2, r2, r5
10000752:	60da      	str	r2, [r3, #12]
10000754:	3104      	adds	r1, #4
10000756:	6119      	str	r1, [r3, #16]
10000758:	1b3c      	subs	r4, r7, r4
1000075a:	00a2      	lsls	r2, r4, #2
1000075c:	1a30      	subs	r0, r6, r0
1000075e:	0081      	lsls	r1, r0, #2
10000760:	1852      	adds	r2, r2, r1
10000762:	1952      	adds	r2, r2, r5
10000764:	3204      	adds	r2, #4
10000766:	615a      	str	r2, [r3, #20]
10000768:	2203      	movs	r2, #3
1000076a:	769a      	strb	r2, [r3, #26]
1000076c:	3a02      	subs	r2, #2
1000076e:	765a      	strb	r2, [r3, #25]
10000770:	2200      	movs	r2, #0
10000772:	76da      	strb	r2, [r3, #27]
10000774:	e7d9      	b.n	1000072a <SetCarWallPointers+0xe6>
10000776:	46c0      	nop			; (mov r8, r8)
10000778:	20000c2c 	.word	0x20000c2c
1000077c:	20001000 	.word	0x20001000

10000780 <AddDirectionToStack>:
10000780:	b570      	push	{r4, r5, r6, lr}
10000782:	b088      	sub	sp, #32
10000784:	2802      	cmp	r0, #2
10000786:	d053      	beq.n	10000830 <AddDirectionToStack+0xb0>
10000788:	d81c      	bhi.n	100007c4 <AddDirectionToStack+0x44>
1000078a:	2800      	cmp	r0, #0
1000078c:	d03a      	beq.n	10000804 <AddDirectionToStack+0x84>
1000078e:	2801      	cmp	r0, #1
10000790:	d115      	bne.n	100007be <AddDirectionToStack+0x3e>
10000792:	4b34      	ldr	r3, [pc, #208]	; (10000864 <AddDirectionToStack+0xe4>)
10000794:	6818      	ldr	r0, [r3, #0]
10000796:	6859      	ldr	r1, [r3, #4]
10000798:	3101      	adds	r1, #1
1000079a:	ac01      	add	r4, sp, #4
1000079c:	00cb      	lsls	r3, r1, #3
1000079e:	1a5b      	subs	r3, r3, r1
100007a0:	009b      	lsls	r3, r3, #2
100007a2:	0182      	lsls	r2, r0, #6
100007a4:	1a12      	subs	r2, r2, r0
100007a6:	0092      	lsls	r2, r2, #2
100007a8:	189a      	adds	r2, r3, r2
100007aa:	4b2f      	ldr	r3, [pc, #188]	; (10000868 <AddDirectionToStack+0xe8>)
100007ac:	189b      	adds	r3, r3, r2
100007ae:	0022      	movs	r2, r4
100007b0:	cb70      	ldmia	r3!, {r4, r5, r6}
100007b2:	c270      	stmia	r2!, {r4, r5, r6}
100007b4:	cb70      	ldmia	r3!, {r4, r5, r6}
100007b6:	c270      	stmia	r2!, {r4, r5, r6}
100007b8:	681b      	ldr	r3, [r3, #0]
100007ba:	6013      	str	r3, [r2, #0]
100007bc:	e01c      	b.n	100007f8 <AddDirectionToStack+0x78>
100007be:	2100      	movs	r1, #0
100007c0:	0008      	movs	r0, r1
100007c2:	e019      	b.n	100007f8 <AddDirectionToStack+0x78>
100007c4:	2803      	cmp	r0, #3
100007c6:	d115      	bne.n	100007f4 <AddDirectionToStack+0x74>
100007c8:	4b26      	ldr	r3, [pc, #152]	; (10000864 <AddDirectionToStack+0xe4>)
100007ca:	6818      	ldr	r0, [r3, #0]
100007cc:	6859      	ldr	r1, [r3, #4]
100007ce:	3901      	subs	r1, #1
100007d0:	ac01      	add	r4, sp, #4
100007d2:	00cb      	lsls	r3, r1, #3
100007d4:	1a5b      	subs	r3, r3, r1
100007d6:	009b      	lsls	r3, r3, #2
100007d8:	0182      	lsls	r2, r0, #6
100007da:	1a12      	subs	r2, r2, r0
100007dc:	0092      	lsls	r2, r2, #2
100007de:	189a      	adds	r2, r3, r2
100007e0:	4b21      	ldr	r3, [pc, #132]	; (10000868 <AddDirectionToStack+0xe8>)
100007e2:	189b      	adds	r3, r3, r2
100007e4:	0022      	movs	r2, r4
100007e6:	cb70      	ldmia	r3!, {r4, r5, r6}
100007e8:	c270      	stmia	r2!, {r4, r5, r6}
100007ea:	cb70      	ldmia	r3!, {r4, r5, r6}
100007ec:	c270      	stmia	r2!, {r4, r5, r6}
100007ee:	681b      	ldr	r3, [r3, #0]
100007f0:	6013      	str	r3, [r2, #0]
100007f2:	e001      	b.n	100007f8 <AddDirectionToStack+0x78>
100007f4:	2100      	movs	r1, #0
100007f6:	2000      	movs	r0, #0
100007f8:	ab01      	add	r3, sp, #4
100007fa:	781b      	ldrb	r3, [r3, #0]
100007fc:	07db      	lsls	r3, r3, #31
100007fe:	d52d      	bpl.n	1000085c <AddDirectionToStack+0xdc>
10000800:	b008      	add	sp, #32
10000802:	bd70      	pop	{r4, r5, r6, pc}
10000804:	4b17      	ldr	r3, [pc, #92]	; (10000864 <AddDirectionToStack+0xe4>)
10000806:	681a      	ldr	r2, [r3, #0]
10000808:	1e50      	subs	r0, r2, #1
1000080a:	6859      	ldr	r1, [r3, #4]
1000080c:	ac01      	add	r4, sp, #4
1000080e:	00cb      	lsls	r3, r1, #3
10000810:	1a5b      	subs	r3, r3, r1
10000812:	009b      	lsls	r3, r3, #2
10000814:	0182      	lsls	r2, r0, #6
10000816:	1a12      	subs	r2, r2, r0
10000818:	0092      	lsls	r2, r2, #2
1000081a:	189a      	adds	r2, r3, r2
1000081c:	4b12      	ldr	r3, [pc, #72]	; (10000868 <AddDirectionToStack+0xe8>)
1000081e:	189b      	adds	r3, r3, r2
10000820:	0022      	movs	r2, r4
10000822:	cb70      	ldmia	r3!, {r4, r5, r6}
10000824:	c270      	stmia	r2!, {r4, r5, r6}
10000826:	cb70      	ldmia	r3!, {r4, r5, r6}
10000828:	c270      	stmia	r2!, {r4, r5, r6}
1000082a:	681b      	ldr	r3, [r3, #0]
1000082c:	6013      	str	r3, [r2, #0]
1000082e:	e7e3      	b.n	100007f8 <AddDirectionToStack+0x78>
10000830:	4b0c      	ldr	r3, [pc, #48]	; (10000864 <AddDirectionToStack+0xe4>)
10000832:	681a      	ldr	r2, [r3, #0]
10000834:	1c50      	adds	r0, r2, #1
10000836:	6859      	ldr	r1, [r3, #4]
10000838:	ac01      	add	r4, sp, #4
1000083a:	00cb      	lsls	r3, r1, #3
1000083c:	1a5b      	subs	r3, r3, r1
1000083e:	009b      	lsls	r3, r3, #2
10000840:	0182      	lsls	r2, r0, #6
10000842:	1a12      	subs	r2, r2, r0
10000844:	0092      	lsls	r2, r2, #2
10000846:	189a      	adds	r2, r3, r2
10000848:	4b07      	ldr	r3, [pc, #28]	; (10000868 <AddDirectionToStack+0xe8>)
1000084a:	189b      	adds	r3, r3, r2
1000084c:	0022      	movs	r2, r4
1000084e:	cb70      	ldmia	r3!, {r4, r5, r6}
10000850:	c270      	stmia	r2!, {r4, r5, r6}
10000852:	cb70      	ldmia	r3!, {r4, r5, r6}
10000854:	c270      	stmia	r2!, {r4, r5, r6}
10000856:	681b      	ldr	r3, [r3, #0]
10000858:	6013      	str	r3, [r2, #0]
1000085a:	e7cd      	b.n	100007f8 <AddDirectionToStack+0x78>
1000085c:	f7ff fe30 	bl	100004c0 <AddStackIfNotExist>
10000860:	e7ce      	b.n	10000800 <AddDirectionToStack+0x80>
10000862:	46c0      	nop			; (mov r8, r8)
10000864:	20000c2c 	.word	0x20000c2c
10000868:	20001000 	.word	0x20001000

1000086c <CheckDirectionOfNode>:
1000086c:	b510      	push	{r4, lr}
1000086e:	4a0c      	ldr	r2, [pc, #48]	; (100008a0 <CheckDirectionOfNode+0x34>)
10000870:	6813      	ldr	r3, [r2, #0]
10000872:	6852      	ldr	r2, [r2, #4]
10000874:	1e5c      	subs	r4, r3, #1
10000876:	4284      	cmp	r4, r0
10000878:	d009      	beq.n	1000088e <CheckDirectionOfNode+0x22>
1000087a:	3301      	adds	r3, #1
1000087c:	4283      	cmp	r3, r0
1000087e:	d008      	beq.n	10000892 <CheckDirectionOfNode+0x26>
10000880:	1c53      	adds	r3, r2, #1
10000882:	428b      	cmp	r3, r1
10000884:	d007      	beq.n	10000896 <CheckDirectionOfNode+0x2a>
10000886:	3a01      	subs	r2, #1
10000888:	428a      	cmp	r2, r1
1000088a:	d006      	beq.n	1000089a <CheckDirectionOfNode+0x2e>
1000088c:	bd10      	pop	{r4, pc}
1000088e:	2000      	movs	r0, #0
10000890:	e7fc      	b.n	1000088c <CheckDirectionOfNode+0x20>
10000892:	2002      	movs	r0, #2
10000894:	e7fa      	b.n	1000088c <CheckDirectionOfNode+0x20>
10000896:	2001      	movs	r0, #1
10000898:	e7f8      	b.n	1000088c <CheckDirectionOfNode+0x20>
1000089a:	2003      	movs	r0, #3
1000089c:	e7f6      	b.n	1000088c <CheckDirectionOfNode+0x20>
1000089e:	46c0      	nop			; (mov r8, r8)
100008a0:	20000c2c 	.word	0x20000c2c

100008a4 <GetLeftDirection>:
100008a4:	2802      	cmp	r0, #2
100008a6:	d00a      	beq.n	100008be <GetLeftDirection+0x1a>
100008a8:	d805      	bhi.n	100008b6 <GetLeftDirection+0x12>
100008aa:	2800      	cmp	r0, #0
100008ac:	d009      	beq.n	100008c2 <GetLeftDirection+0x1e>
100008ae:	2801      	cmp	r0, #1
100008b0:	d100      	bne.n	100008b4 <GetLeftDirection+0x10>
100008b2:	2000      	movs	r0, #0
100008b4:	4770      	bx	lr
100008b6:	2803      	cmp	r0, #3
100008b8:	d1fc      	bne.n	100008b4 <GetLeftDirection+0x10>
100008ba:	2002      	movs	r0, #2
100008bc:	e7fa      	b.n	100008b4 <GetLeftDirection+0x10>
100008be:	2001      	movs	r0, #1
100008c0:	e7f8      	b.n	100008b4 <GetLeftDirection+0x10>
100008c2:	2003      	movs	r0, #3
100008c4:	e7f6      	b.n	100008b4 <GetLeftDirection+0x10>

100008c6 <GetRightDirection>:
100008c6:	2802      	cmp	r0, #2
100008c8:	d00a      	beq.n	100008e0 <GetRightDirection+0x1a>
100008ca:	d805      	bhi.n	100008d8 <GetRightDirection+0x12>
100008cc:	2800      	cmp	r0, #0
100008ce:	d009      	beq.n	100008e4 <GetRightDirection+0x1e>
100008d0:	2801      	cmp	r0, #1
100008d2:	d100      	bne.n	100008d6 <GetRightDirection+0x10>
100008d4:	2002      	movs	r0, #2
100008d6:	4770      	bx	lr
100008d8:	2803      	cmp	r0, #3
100008da:	d1fc      	bne.n	100008d6 <GetRightDirection+0x10>
100008dc:	2000      	movs	r0, #0
100008de:	e7fa      	b.n	100008d6 <GetRightDirection+0x10>
100008e0:	2003      	movs	r0, #3
100008e2:	e7f8      	b.n	100008d6 <GetRightDirection+0x10>
100008e4:	2001      	movs	r0, #1
100008e6:	e7f6      	b.n	100008d6 <GetRightDirection+0x10>

100008e8 <GetBackDirection>:
100008e8:	2802      	cmp	r0, #2
100008ea:	d00a      	beq.n	10000902 <GetBackDirection+0x1a>
100008ec:	d805      	bhi.n	100008fa <GetBackDirection+0x12>
100008ee:	2800      	cmp	r0, #0
100008f0:	d009      	beq.n	10000906 <GetBackDirection+0x1e>
100008f2:	2801      	cmp	r0, #1
100008f4:	d100      	bne.n	100008f8 <GetBackDirection+0x10>
100008f6:	2003      	movs	r0, #3
100008f8:	4770      	bx	lr
100008fa:	2803      	cmp	r0, #3
100008fc:	d1fc      	bne.n	100008f8 <GetBackDirection+0x10>
100008fe:	2001      	movs	r0, #1
10000900:	e7fa      	b.n	100008f8 <GetBackDirection+0x10>
10000902:	2000      	movs	r0, #0
10000904:	e7f8      	b.n	100008f8 <GetBackDirection+0x10>
10000906:	2002      	movs	r0, #2
10000908:	e7f6      	b.n	100008f8 <GetBackDirection+0x10>
	...

1000090c <CheckUltrasonic>:
1000090c:	b5f0      	push	{r4, r5, r6, r7, lr}
1000090e:	46c6      	mov	lr, r8
10000910:	b500      	push	{lr}
10000912:	2110      	movs	r1, #16
10000914:	200a      	movs	r0, #10
10000916:	f001 f91d 	bl	10001b54 <ultrasonicPulse>
1000091a:	1c05      	adds	r5, r0, #0
1000091c:	2111      	movs	r1, #17
1000091e:	200b      	movs	r0, #11
10000920:	f001 f918 	bl	10001b54 <ultrasonicPulse>
10000924:	4680      	mov	r8, r0
10000926:	2113      	movs	r1, #19
10000928:	200d      	movs	r0, #13
1000092a:	f001 f913 	bl	10001b54 <ultrasonicPulse>
1000092e:	1c07      	adds	r7, r0, #0
10000930:	2112      	movs	r1, #18
10000932:	200c      	movs	r0, #12
10000934:	f001 f90e 	bl	10001b54 <ultrasonicPulse>
10000938:	1c06      	adds	r6, r0, #0
1000093a:	1c29      	adds	r1, r5, #0
1000093c:	2062      	movs	r0, #98	; 0x62
1000093e:	f000 fd31 	bl	100013a4 <uart_send_float>
10000942:	4c0e      	ldr	r4, [pc, #56]	; (1000097c <CheckUltrasonic+0x70>)
10000944:	7e21      	ldrb	r1, [r4, #24]
10000946:	1c28      	adds	r0, r5, #0
10000948:	f7ff fdda 	bl	10000500 <MarkWall>
1000094c:	7e20      	ldrb	r0, [r4, #24]
1000094e:	f7ff ffba 	bl	100008c6 <GetRightDirection>
10000952:	0001      	movs	r1, r0
10000954:	4640      	mov	r0, r8
10000956:	f7ff fdd3 	bl	10000500 <MarkWall>
1000095a:	7e20      	ldrb	r0, [r4, #24]
1000095c:	f7ff ffa2 	bl	100008a4 <GetLeftDirection>
10000960:	0001      	movs	r1, r0
10000962:	1c38      	adds	r0, r7, #0
10000964:	f7ff fdcc 	bl	10000500 <MarkWall>
10000968:	7e20      	ldrb	r0, [r4, #24]
1000096a:	f7ff ffbd 	bl	100008e8 <GetBackDirection>
1000096e:	0001      	movs	r1, r0
10000970:	1c30      	adds	r0, r6, #0
10000972:	f7ff fdc5 	bl	10000500 <MarkWall>
10000976:	bc80      	pop	{r7}
10000978:	46b8      	mov	r8, r7
1000097a:	bdf0      	pop	{r4, r5, r6, r7, pc}
1000097c:	20000c2c 	.word	0x20000c2c

10000980 <CheckCurrentNode>:
10000980:	b510      	push	{r4, lr}
10000982:	4b25      	ldr	r3, [pc, #148]	; (10000a18 <CheckCurrentNode+0x98>)
10000984:	6819      	ldr	r1, [r3, #0]
10000986:	6858      	ldr	r0, [r3, #4]
10000988:	00c2      	lsls	r2, r0, #3
1000098a:	1a12      	subs	r2, r2, r0
1000098c:	0093      	lsls	r3, r2, #2
1000098e:	018a      	lsls	r2, r1, #6
10000990:	1a52      	subs	r2, r2, r1
10000992:	0094      	lsls	r4, r2, #2
10000994:	191b      	adds	r3, r3, r4
10000996:	4a21      	ldr	r2, [pc, #132]	; (10000a1c <CheckCurrentNode+0x9c>)
10000998:	5c9b      	ldrb	r3, [r3, r2]
1000099a:	07db      	lsls	r3, r3, #31
1000099c:	d500      	bpl.n	100009a0 <CheckCurrentNode+0x20>
1000099e:	bd10      	pop	{r4, pc}
100009a0:	0014      	movs	r4, r2
100009a2:	00c3      	lsls	r3, r0, #3
100009a4:	1a18      	subs	r0, r3, r0
100009a6:	0083      	lsls	r3, r0, #2
100009a8:	018a      	lsls	r2, r1, #6
100009aa:	1a51      	subs	r1, r2, r1
100009ac:	008a      	lsls	r2, r1, #2
100009ae:	189b      	adds	r3, r3, r2
100009b0:	5d1a      	ldrb	r2, [r3, r4]
100009b2:	2101      	movs	r1, #1
100009b4:	430a      	orrs	r2, r1
100009b6:	551a      	strb	r2, [r3, r4]
100009b8:	4a19      	ldr	r2, [pc, #100]	; (10000a20 <CheckCurrentNode+0xa0>)
100009ba:	6813      	ldr	r3, [r2, #0]
100009bc:	3301      	adds	r3, #1
100009be:	6013      	str	r3, [r2, #0]
100009c0:	f7ff ffa4 	bl	1000090c <CheckUltrasonic>
100009c4:	f7ff fe3e 	bl	10000644 <SetCarWallPointers>
100009c8:	4b13      	ldr	r3, [pc, #76]	; (10000a18 <CheckCurrentNode+0x98>)
100009ca:	695b      	ldr	r3, [r3, #20]
100009cc:	681b      	ldr	r3, [r3, #0]
100009ce:	2b01      	cmp	r3, #1
100009d0:	d013      	beq.n	100009fa <CheckCurrentNode+0x7a>
100009d2:	4b11      	ldr	r3, [pc, #68]	; (10000a18 <CheckCurrentNode+0x98>)
100009d4:	691b      	ldr	r3, [r3, #16]
100009d6:	681b      	ldr	r3, [r3, #0]
100009d8:	2b01      	cmp	r3, #1
100009da:	d013      	beq.n	10000a04 <CheckCurrentNode+0x84>
100009dc:	4b0e      	ldr	r3, [pc, #56]	; (10000a18 <CheckCurrentNode+0x98>)
100009de:	68db      	ldr	r3, [r3, #12]
100009e0:	681b      	ldr	r3, [r3, #0]
100009e2:	2b01      	cmp	r3, #1
100009e4:	d013      	beq.n	10000a0e <CheckCurrentNode+0x8e>
100009e6:	4b0c      	ldr	r3, [pc, #48]	; (10000a18 <CheckCurrentNode+0x98>)
100009e8:	689b      	ldr	r3, [r3, #8]
100009ea:	681b      	ldr	r3, [r3, #0]
100009ec:	2b01      	cmp	r3, #1
100009ee:	d1d6      	bne.n	1000099e <CheckCurrentNode+0x1e>
100009f0:	4b09      	ldr	r3, [pc, #36]	; (10000a18 <CheckCurrentNode+0x98>)
100009f2:	7e18      	ldrb	r0, [r3, #24]
100009f4:	f7ff fec4 	bl	10000780 <AddDirectionToStack>
100009f8:	e7d1      	b.n	1000099e <CheckCurrentNode+0x1e>
100009fa:	4b07      	ldr	r3, [pc, #28]	; (10000a18 <CheckCurrentNode+0x98>)
100009fc:	7ed8      	ldrb	r0, [r3, #27]
100009fe:	f7ff febf 	bl	10000780 <AddDirectionToStack>
10000a02:	e7e6      	b.n	100009d2 <CheckCurrentNode+0x52>
10000a04:	4b04      	ldr	r3, [pc, #16]	; (10000a18 <CheckCurrentNode+0x98>)
10000a06:	7e58      	ldrb	r0, [r3, #25]
10000a08:	f7ff feba 	bl	10000780 <AddDirectionToStack>
10000a0c:	e7e6      	b.n	100009dc <CheckCurrentNode+0x5c>
10000a0e:	4b02      	ldr	r3, [pc, #8]	; (10000a18 <CheckCurrentNode+0x98>)
10000a10:	7e98      	ldrb	r0, [r3, #26]
10000a12:	f7ff feb5 	bl	10000780 <AddDirectionToStack>
10000a16:	e7e6      	b.n	100009e6 <CheckCurrentNode+0x66>
10000a18:	20000c2c 	.word	0x20000c2c
10000a1c:	20001000 	.word	0x20001000
10000a20:	20001e30 	.word	0x20001e30

10000a24 <ChangeCarDirection>:
10000a24:	b5f8      	push	{r3, r4, r5, r6, r7, lr}
10000a26:	0004      	movs	r4, r0
10000a28:	000e      	movs	r6, r1
10000a2a:	0017      	movs	r7, r2
10000a2c:	4b23      	ldr	r3, [pc, #140]	; (10000abc <ChangeCarDirection+0x98>)
10000a2e:	7e1d      	ldrb	r5, [r3, #24]
10000a30:	4285      	cmp	r5, r0
10000a32:	d00e      	beq.n	10000a52 <ChangeCarDirection+0x2e>
10000a34:	f7ff ff58 	bl	100008e8 <GetBackDirection>
10000a38:	4285      	cmp	r5, r0
10000a3a:	d014      	beq.n	10000a66 <ChangeCarDirection+0x42>
10000a3c:	0028      	movs	r0, r5
10000a3e:	f7ff ff42 	bl	100008c6 <GetRightDirection>
10000a42:	42a0      	cmp	r0, r4
10000a44:	d019      	beq.n	10000a7a <ChangeCarDirection+0x56>
10000a46:	0028      	movs	r0, r5
10000a48:	f7ff ff2c 	bl	100008a4 <GetLeftDirection>
10000a4c:	42a0      	cmp	r0, r4
10000a4e:	d024      	beq.n	10000a9a <ChangeCarDirection+0x76>
10000a50:	bdf8      	pop	{r3, r4, r5, r6, r7, pc}
10000a52:	481b      	ldr	r0, [pc, #108]	; (10000ac0 <ChangeCarDirection+0x9c>)
10000a54:	f000 ff90 	bl	10001978 <moveForwardBY>
10000a58:	4818      	ldr	r0, [pc, #96]	; (10000abc <ChangeCarDirection+0x98>)
10000a5a:	7e03      	ldrb	r3, [r0, #24]
10000a5c:	003a      	movs	r2, r7
10000a5e:	0031      	movs	r1, r6
10000a60:	f7ff fde6 	bl	10000630 <SetCar>
10000a64:	e7f4      	b.n	10000a50 <ChangeCarDirection+0x2c>
10000a66:	4816      	ldr	r0, [pc, #88]	; (10000ac0 <ChangeCarDirection+0x9c>)
10000a68:	f000 ffc6 	bl	100019f8 <moveBackwardBY>
10000a6c:	4813      	ldr	r0, [pc, #76]	; (10000abc <ChangeCarDirection+0x98>)
10000a6e:	7e03      	ldrb	r3, [r0, #24]
10000a70:	003a      	movs	r2, r7
10000a72:	0031      	movs	r1, r6
10000a74:	f7ff fddc 	bl	10000630 <SetCar>
10000a78:	e7ea      	b.n	10000a50 <ChangeCarDirection+0x2c>
10000a7a:	f000 ff57 	bl	1000192c <turnRight90>
10000a7e:	4810      	ldr	r0, [pc, #64]	; (10000ac0 <ChangeCarDirection+0x9c>)
10000a80:	f000 ff7a 	bl	10001978 <moveForwardBY>
10000a84:	4c0d      	ldr	r4, [pc, #52]	; (10000abc <ChangeCarDirection+0x98>)
10000a86:	7e20      	ldrb	r0, [r4, #24]
10000a88:	f7ff ff1d 	bl	100008c6 <GetRightDirection>
10000a8c:	0003      	movs	r3, r0
10000a8e:	003a      	movs	r2, r7
10000a90:	0031      	movs	r1, r6
10000a92:	0020      	movs	r0, r4
10000a94:	f7ff fdcc 	bl	10000630 <SetCar>
10000a98:	e7da      	b.n	10000a50 <ChangeCarDirection+0x2c>
10000a9a:	f000 ff21 	bl	100018e0 <turnLeft90>
10000a9e:	4808      	ldr	r0, [pc, #32]	; (10000ac0 <ChangeCarDirection+0x9c>)
10000aa0:	f000 ff6a 	bl	10001978 <moveForwardBY>
10000aa4:	4c05      	ldr	r4, [pc, #20]	; (10000abc <ChangeCarDirection+0x98>)
10000aa6:	7e20      	ldrb	r0, [r4, #24]
10000aa8:	f7ff fefc 	bl	100008a4 <GetLeftDirection>
10000aac:	0003      	movs	r3, r0
10000aae:	003a      	movs	r2, r7
10000ab0:	0031      	movs	r1, r6
10000ab2:	0020      	movs	r0, r4
10000ab4:	f7ff fdbc 	bl	10000630 <SetCar>
10000ab8:	e7ca      	b.n	10000a50 <ChangeCarDirection+0x2c>
10000aba:	46c0      	nop			; (mov r8, r8)
10000abc:	20000c2c 	.word	0x20000c2c
10000ac0:	41d80000 	.word	0x41d80000

10000ac4 <Backtrack>:
10000ac4:	b570      	push	{r4, r5, r6, lr}
10000ac6:	4b0c      	ldr	r3, [pc, #48]	; (10000af8 <Backtrack+0x34>)
10000ac8:	681d      	ldr	r5, [r3, #0]
10000aca:	4b0c      	ldr	r3, [pc, #48]	; (10000afc <Backtrack+0x38>)
10000acc:	681e      	ldr	r6, [r3, #0]
10000ace:	480c      	ldr	r0, [pc, #48]	; (10000b00 <Backtrack+0x3c>)
10000ad0:	00f3      	lsls	r3, r6, #3
10000ad2:	1b9a      	subs	r2, r3, r6
10000ad4:	0092      	lsls	r2, r2, #2
10000ad6:	01a9      	lsls	r1, r5, #6
10000ad8:	1b4c      	subs	r4, r1, r5
10000ada:	00a4      	lsls	r4, r4, #2
10000adc:	1912      	adds	r2, r2, r4
10000ade:	1882      	adds	r2, r0, r2
10000ae0:	6954      	ldr	r4, [r2, #20]
10000ae2:	6995      	ldr	r5, [r2, #24]
10000ae4:	0029      	movs	r1, r5
10000ae6:	0020      	movs	r0, r4
10000ae8:	f7ff fec0 	bl	1000086c <CheckDirectionOfNode>
10000aec:	002a      	movs	r2, r5
10000aee:	0021      	movs	r1, r4
10000af0:	f7ff ff98 	bl	10000a24 <ChangeCarDirection>
10000af4:	bd70      	pop	{r4, r5, r6, pc}
10000af6:	46c0      	nop			; (mov r8, r8)
10000af8:	20000420 	.word	0x20000420
10000afc:	20000424 	.word	0x20000424
10000b00:	20001000 	.word	0x20001000

10000b04 <MoveCarToStackPos>:
10000b04:	b510      	push	{r4, lr}
10000b06:	b092      	sub	sp, #72	; 0x48
10000b08:	4a5a      	ldr	r2, [pc, #360]	; (10000c74 <MoveCarToStackPos+0x170>)
10000b0a:	6814      	ldr	r4, [r2, #0]
10000b0c:	495a      	ldr	r1, [pc, #360]	; (10000c78 <MoveCarToStackPos+0x174>)
10000b0e:	600c      	str	r4, [r1, #0]
10000b10:	6851      	ldr	r1, [r2, #4]
10000b12:	4a5a      	ldr	r2, [pc, #360]	; (10000c7c <MoveCarToStackPos+0x178>)
10000b14:	6011      	str	r1, [r2, #0]
10000b16:	3c01      	subs	r4, #1
10000b18:	a802      	add	r0, sp, #8
10000b1a:	f7ff fcb9 	bl	10000490 <Peek>
10000b1e:	9b02      	ldr	r3, [sp, #8]
10000b20:	429c      	cmp	r4, r3
10000b22:	d01c      	beq.n	10000b5e <MoveCarToStackPos+0x5a>
10000b24:	4b54      	ldr	r3, [pc, #336]	; (10000c78 <MoveCarToStackPos+0x174>)
10000b26:	681c      	ldr	r4, [r3, #0]
10000b28:	3401      	adds	r4, #1
10000b2a:	a806      	add	r0, sp, #24
10000b2c:	f7ff fcb0 	bl	10000490 <Peek>
10000b30:	9b06      	ldr	r3, [sp, #24]
10000b32:	429c      	cmp	r4, r3
10000b34:	d034      	beq.n	10000ba0 <MoveCarToStackPos+0x9c>
10000b36:	a80a      	add	r0, sp, #40	; 0x28
10000b38:	f7ff fcaa 	bl	10000490 <Peek>
10000b3c:	4b4e      	ldr	r3, [pc, #312]	; (10000c78 <MoveCarToStackPos+0x174>)
10000b3e:	681b      	ldr	r3, [r3, #0]
10000b40:	9a0a      	ldr	r2, [sp, #40]	; 0x28
10000b42:	429a      	cmp	r2, r3
10000b44:	d04d      	beq.n	10000be2 <MoveCarToStackPos+0xde>
10000b46:	a80e      	add	r0, sp, #56	; 0x38
10000b48:	f7ff fca2 	bl	10000490 <Peek>
10000b4c:	4b4a      	ldr	r3, [pc, #296]	; (10000c78 <MoveCarToStackPos+0x174>)
10000b4e:	681b      	ldr	r3, [r3, #0]
10000b50:	9a0e      	ldr	r2, [sp, #56]	; 0x38
10000b52:	429a      	cmp	r2, r3
10000b54:	d069      	beq.n	10000c2a <MoveCarToStackPos+0x126>
10000b56:	f7ff ffb5 	bl	10000ac4 <Backtrack>
10000b5a:	b012      	add	sp, #72	; 0x48
10000b5c:	bd10      	pop	{r4, pc}
10000b5e:	a804      	add	r0, sp, #16
10000b60:	f7ff fc96 	bl	10000490 <Peek>
10000b64:	9b05      	ldr	r3, [sp, #20]
10000b66:	4a45      	ldr	r2, [pc, #276]	; (10000c7c <MoveCarToStackPos+0x178>)
10000b68:	6812      	ldr	r2, [r2, #0]
10000b6a:	4293      	cmp	r3, r2
10000b6c:	d1da      	bne.n	10000b24 <MoveCarToStackPos+0x20>
10000b6e:	4b42      	ldr	r3, [pc, #264]	; (10000c78 <MoveCarToStackPos+0x174>)
10000b70:	6819      	ldr	r1, [r3, #0]
10000b72:	00d0      	lsls	r0, r2, #3
10000b74:	1a80      	subs	r0, r0, r2
10000b76:	0083      	lsls	r3, r0, #2
10000b78:	0188      	lsls	r0, r1, #6
10000b7a:	1a40      	subs	r0, r0, r1
10000b7c:	0084      	lsls	r4, r0, #2
10000b7e:	191b      	adds	r3, r3, r4
10000b80:	483f      	ldr	r0, [pc, #252]	; (10000c80 <MoveCarToStackPos+0x17c>)
10000b82:	18c3      	adds	r3, r0, r3
10000b84:	685b      	ldr	r3, [r3, #4]
10000b86:	2b01      	cmp	r3, #1
10000b88:	d002      	beq.n	10000b90 <MoveCarToStackPos+0x8c>
10000b8a:	f7ff ff9b 	bl	10000ac4 <Backtrack>
10000b8e:	e7e4      	b.n	10000b5a <MoveCarToStackPos+0x56>
10000b90:	3901      	subs	r1, #1
10000b92:	2000      	movs	r0, #0
10000b94:	f7ff ff46 	bl	10000a24 <ChangeCarDirection>
10000b98:	4668      	mov	r0, sp
10000b9a:	f7ff fc5d 	bl	10000458 <Pop>
10000b9e:	e7dc      	b.n	10000b5a <MoveCarToStackPos+0x56>
10000ba0:	a808      	add	r0, sp, #32
10000ba2:	f7ff fc75 	bl	10000490 <Peek>
10000ba6:	9b09      	ldr	r3, [sp, #36]	; 0x24
10000ba8:	4a34      	ldr	r2, [pc, #208]	; (10000c7c <MoveCarToStackPos+0x178>)
10000baa:	6812      	ldr	r2, [r2, #0]
10000bac:	4293      	cmp	r3, r2
10000bae:	d1c2      	bne.n	10000b36 <MoveCarToStackPos+0x32>
10000bb0:	4b31      	ldr	r3, [pc, #196]	; (10000c78 <MoveCarToStackPos+0x174>)
10000bb2:	6819      	ldr	r1, [r3, #0]
10000bb4:	00d0      	lsls	r0, r2, #3
10000bb6:	1a80      	subs	r0, r0, r2
10000bb8:	0083      	lsls	r3, r0, #2
10000bba:	0188      	lsls	r0, r1, #6
10000bbc:	1a40      	subs	r0, r0, r1
10000bbe:	0084      	lsls	r4, r0, #2
10000bc0:	191b      	adds	r3, r3, r4
10000bc2:	482f      	ldr	r0, [pc, #188]	; (10000c80 <MoveCarToStackPos+0x17c>)
10000bc4:	18c3      	adds	r3, r0, r3
10000bc6:	689b      	ldr	r3, [r3, #8]
10000bc8:	2b01      	cmp	r3, #1
10000bca:	d002      	beq.n	10000bd2 <MoveCarToStackPos+0xce>
10000bcc:	f7ff ff7a 	bl	10000ac4 <Backtrack>
10000bd0:	e7c3      	b.n	10000b5a <MoveCarToStackPos+0x56>
10000bd2:	3101      	adds	r1, #1
10000bd4:	2002      	movs	r0, #2
10000bd6:	f7ff ff25 	bl	10000a24 <ChangeCarDirection>
10000bda:	4668      	mov	r0, sp
10000bdc:	f7ff fc3c 	bl	10000458 <Pop>
10000be0:	e7bb      	b.n	10000b5a <MoveCarToStackPos+0x56>
10000be2:	4b26      	ldr	r3, [pc, #152]	; (10000c7c <MoveCarToStackPos+0x178>)
10000be4:	681c      	ldr	r4, [r3, #0]
10000be6:	3401      	adds	r4, #1
10000be8:	a80c      	add	r0, sp, #48	; 0x30
10000bea:	f7ff fc51 	bl	10000490 <Peek>
10000bee:	9b0d      	ldr	r3, [sp, #52]	; 0x34
10000bf0:	429c      	cmp	r4, r3
10000bf2:	d1a8      	bne.n	10000b46 <MoveCarToStackPos+0x42>
10000bf4:	4b20      	ldr	r3, [pc, #128]	; (10000c78 <MoveCarToStackPos+0x174>)
10000bf6:	6819      	ldr	r1, [r3, #0]
10000bf8:	4b20      	ldr	r3, [pc, #128]	; (10000c7c <MoveCarToStackPos+0x178>)
10000bfa:	681a      	ldr	r2, [r3, #0]
10000bfc:	00d0      	lsls	r0, r2, #3
10000bfe:	1a80      	subs	r0, r0, r2
10000c00:	0083      	lsls	r3, r0, #2
10000c02:	0188      	lsls	r0, r1, #6
10000c04:	1a40      	subs	r0, r0, r1
10000c06:	0084      	lsls	r4, r0, #2
10000c08:	191b      	adds	r3, r3, r4
10000c0a:	481d      	ldr	r0, [pc, #116]	; (10000c80 <MoveCarToStackPos+0x17c>)
10000c0c:	18c3      	adds	r3, r0, r3
10000c0e:	68db      	ldr	r3, [r3, #12]
10000c10:	2b01      	cmp	r3, #1
10000c12:	d002      	beq.n	10000c1a <MoveCarToStackPos+0x116>
10000c14:	f7ff ff56 	bl	10000ac4 <Backtrack>
10000c18:	e79f      	b.n	10000b5a <MoveCarToStackPos+0x56>
10000c1a:	3201      	adds	r2, #1
10000c1c:	2001      	movs	r0, #1
10000c1e:	f7ff ff01 	bl	10000a24 <ChangeCarDirection>
10000c22:	4668      	mov	r0, sp
10000c24:	f7ff fc18 	bl	10000458 <Pop>
10000c28:	e797      	b.n	10000b5a <MoveCarToStackPos+0x56>
10000c2a:	4b14      	ldr	r3, [pc, #80]	; (10000c7c <MoveCarToStackPos+0x178>)
10000c2c:	681c      	ldr	r4, [r3, #0]
10000c2e:	3c01      	subs	r4, #1
10000c30:	a810      	add	r0, sp, #64	; 0x40
10000c32:	f7ff fc2d 	bl	10000490 <Peek>
10000c36:	9b11      	ldr	r3, [sp, #68]	; 0x44
10000c38:	429c      	cmp	r4, r3
10000c3a:	d000      	beq.n	10000c3e <MoveCarToStackPos+0x13a>
10000c3c:	e78b      	b.n	10000b56 <MoveCarToStackPos+0x52>
10000c3e:	4b0e      	ldr	r3, [pc, #56]	; (10000c78 <MoveCarToStackPos+0x174>)
10000c40:	6819      	ldr	r1, [r3, #0]
10000c42:	4b0e      	ldr	r3, [pc, #56]	; (10000c7c <MoveCarToStackPos+0x178>)
10000c44:	681a      	ldr	r2, [r3, #0]
10000c46:	00d0      	lsls	r0, r2, #3
10000c48:	1a80      	subs	r0, r0, r2
10000c4a:	0083      	lsls	r3, r0, #2
10000c4c:	0188      	lsls	r0, r1, #6
10000c4e:	1a40      	subs	r0, r0, r1
10000c50:	0084      	lsls	r4, r0, #2
10000c52:	191b      	adds	r3, r3, r4
10000c54:	480a      	ldr	r0, [pc, #40]	; (10000c80 <MoveCarToStackPos+0x17c>)
10000c56:	18c3      	adds	r3, r0, r3
10000c58:	691b      	ldr	r3, [r3, #16]
10000c5a:	2b01      	cmp	r3, #1
10000c5c:	d002      	beq.n	10000c64 <MoveCarToStackPos+0x160>
10000c5e:	f7ff ff31 	bl	10000ac4 <Backtrack>
10000c62:	e77a      	b.n	10000b5a <MoveCarToStackPos+0x56>
10000c64:	3a01      	subs	r2, #1
10000c66:	2003      	movs	r0, #3
10000c68:	f7ff fedc 	bl	10000a24 <ChangeCarDirection>
10000c6c:	4668      	mov	r0, sp
10000c6e:	f7ff fbf3 	bl	10000458 <Pop>
10000c72:	e772      	b.n	10000b5a <MoveCarToStackPos+0x56>
10000c74:	20000c2c 	.word	0x20000c2c
10000c78:	20000420 	.word	0x20000420
10000c7c:	20000424 	.word	0x20000424
10000c80:	20001000 	.word	0x20001000

10000c84 <ConvertMappedGrid>:
10000c84:	b5f0      	push	{r4, r5, r6, r7, lr}
10000c86:	46d6      	mov	lr, sl
10000c88:	464f      	mov	r7, r9
10000c8a:	4646      	mov	r6, r8
10000c8c:	b5c0      	push	{r6, r7, lr}
10000c8e:	4b32      	ldr	r3, [pc, #200]	; (10000d58 <ConvertMappedGrid+0xd4>)
10000c90:	681b      	ldr	r3, [r3, #0]
10000c92:	4699      	mov	r9, r3
10000c94:	3b01      	subs	r3, #1
10000c96:	1c5a      	adds	r2, r3, #1
10000c98:	db12      	blt.n	10000cc0 <ConvertMappedGrid+0x3c>
10000c9a:	1c5a      	adds	r2, r3, #1
10000c9c:	d00e      	beq.n	10000cbc <ConvertMappedGrid+0x38>
10000c9e:	4a2e      	ldr	r2, [pc, #184]	; (10000d58 <ConvertMappedGrid+0xd4>)
10000ca0:	6852      	ldr	r2, [r2, #4]
10000ca2:	00d1      	lsls	r1, r2, #3
10000ca4:	1a89      	subs	r1, r1, r2
10000ca6:	008a      	lsls	r2, r1, #2
10000ca8:	0199      	lsls	r1, r3, #6
10000caa:	1ac9      	subs	r1, r1, r3
10000cac:	0088      	lsls	r0, r1, #2
10000cae:	1812      	adds	r2, r2, r0
10000cb0:	492a      	ldr	r1, [pc, #168]	; (10000d5c <ConvertMappedGrid+0xd8>)
10000cb2:	5c52      	ldrb	r2, [r2, r1]
10000cb4:	07d2      	lsls	r2, r2, #31
10000cb6:	d501      	bpl.n	10000cbc <ConvertMappedGrid+0x38>
10000cb8:	3b01      	subs	r3, #1
10000cba:	e7ec      	b.n	10000c96 <ConvertMappedGrid+0x12>
10000cbc:	3301      	adds	r3, #1
10000cbe:	469c      	mov	ip, r3
10000cc0:	4b25      	ldr	r3, [pc, #148]	; (10000d58 <ConvertMappedGrid+0xd4>)
10000cc2:	685b      	ldr	r3, [r3, #4]
10000cc4:	4698      	mov	r8, r3
10000cc6:	3b01      	subs	r3, #1
10000cc8:	1c5a      	adds	r2, r3, #1
10000cca:	db12      	blt.n	10000cf2 <ConvertMappedGrid+0x6e>
10000ccc:	1c5a      	adds	r2, r3, #1
10000cce:	d00e      	beq.n	10000cee <ConvertMappedGrid+0x6a>
10000cd0:	00d9      	lsls	r1, r3, #3
10000cd2:	1ac9      	subs	r1, r1, r3
10000cd4:	008a      	lsls	r2, r1, #2
10000cd6:	4649      	mov	r1, r9
10000cd8:	0189      	lsls	r1, r1, #6
10000cda:	4648      	mov	r0, r9
10000cdc:	1a09      	subs	r1, r1, r0
10000cde:	0088      	lsls	r0, r1, #2
10000ce0:	1812      	adds	r2, r2, r0
10000ce2:	491e      	ldr	r1, [pc, #120]	; (10000d5c <ConvertMappedGrid+0xd8>)
10000ce4:	5c52      	ldrb	r2, [r2, r1]
10000ce6:	07d2      	lsls	r2, r2, #31
10000ce8:	d501      	bpl.n	10000cee <ConvertMappedGrid+0x6a>
10000cea:	3b01      	subs	r3, #1
10000cec:	e7ec      	b.n	10000cc8 <ConvertMappedGrid+0x44>
10000cee:	3301      	adds	r3, #1
10000cf0:	469a      	mov	sl, r3
10000cf2:	2500      	movs	r5, #0
10000cf4:	e01e      	b.n	10000d34 <ConvertMappedGrid+0xb0>
10000cf6:	4663      	mov	r3, ip
10000cf8:	195e      	adds	r6, r3, r5
10000cfa:	4653      	mov	r3, sl
10000cfc:	185f      	adds	r7, r3, r1
10000cfe:	00ca      	lsls	r2, r1, #3
10000d00:	1a52      	subs	r2, r2, r1
10000d02:	0094      	lsls	r4, r2, #2
10000d04:	238c      	movs	r3, #140	; 0x8c
10000d06:	436b      	muls	r3, r5
10000d08:	18e4      	adds	r4, r4, r3
10000d0a:	00f8      	lsls	r0, r7, #3
10000d0c:	1bc0      	subs	r0, r0, r7
10000d0e:	0082      	lsls	r2, r0, #2
10000d10:	01b3      	lsls	r3, r6, #6
10000d12:	1b9b      	subs	r3, r3, r6
10000d14:	0098      	lsls	r0, r3, #2
10000d16:	1810      	adds	r0, r2, r0
10000d18:	4b11      	ldr	r3, [pc, #68]	; (10000d60 <ConvertMappedGrid+0xdc>)
10000d1a:	191b      	adds	r3, r3, r4
10000d1c:	4a0f      	ldr	r2, [pc, #60]	; (10000d5c <ConvertMappedGrid+0xd8>)
10000d1e:	1812      	adds	r2, r2, r0
10000d20:	ca51      	ldmia	r2!, {r0, r4, r6}
10000d22:	c351      	stmia	r3!, {r0, r4, r6}
10000d24:	ca51      	ldmia	r2!, {r0, r4, r6}
10000d26:	c351      	stmia	r3!, {r0, r4, r6}
10000d28:	6812      	ldr	r2, [r2, #0]
10000d2a:	601a      	str	r2, [r3, #0]
10000d2c:	3101      	adds	r1, #1
10000d2e:	2904      	cmp	r1, #4
10000d30:	dde1      	ble.n	10000cf6 <ConvertMappedGrid+0x72>
10000d32:	3501      	adds	r5, #1
10000d34:	2d03      	cmp	r5, #3
10000d36:	dc01      	bgt.n	10000d3c <ConvertMappedGrid+0xb8>
10000d38:	2100      	movs	r1, #0
10000d3a:	e7f8      	b.n	10000d2e <ConvertMappedGrid+0xaa>
10000d3c:	4b06      	ldr	r3, [pc, #24]	; (10000d58 <ConvertMappedGrid+0xd4>)
10000d3e:	464a      	mov	r2, r9
10000d40:	4661      	mov	r1, ip
10000d42:	1a56      	subs	r6, r2, r1
10000d44:	601e      	str	r6, [r3, #0]
10000d46:	4642      	mov	r2, r8
10000d48:	4651      	mov	r1, sl
10000d4a:	1a57      	subs	r7, r2, r1
10000d4c:	605f      	str	r7, [r3, #4]
10000d4e:	bce0      	pop	{r5, r6, r7}
10000d50:	46ba      	mov	sl, r7
10000d52:	46b1      	mov	r9, r6
10000d54:	46a8      	mov	r8, r5
10000d56:	bdf0      	pop	{r4, r5, r6, r7, pc}
10000d58:	20000c2c 	.word	0x20000c2c
10000d5c:	20001000 	.word	0x20001000
10000d60:	20000dd0 	.word	0x20000dd0

10000d64 <conversionConstructor>:
10000d64:	b5f0      	push	{r4, r5, r6, r7, lr}
10000d66:	46de      	mov	lr, fp
10000d68:	4657      	mov	r7, sl
10000d6a:	464e      	mov	r6, r9
10000d6c:	4645      	mov	r5, r8
10000d6e:	b5e0      	push	{r5, r6, r7, lr}
10000d70:	b083      	sub	sp, #12
10000d72:	4680      	mov	r8, r0
10000d74:	2300      	movs	r3, #0
10000d76:	4a55      	ldr	r2, [pc, #340]	; (10000ecc <conversionConstructor+0x168>)
10000d78:	6013      	str	r3, [r2, #0]
10000d7a:	4a55      	ldr	r2, [pc, #340]	; (10000ed0 <conversionConstructor+0x16c>)
10000d7c:	6013      	str	r3, [r2, #0]
10000d7e:	4a55      	ldr	r2, [pc, #340]	; (10000ed4 <conversionConstructor+0x170>)
10000d80:	6013      	str	r3, [r2, #0]
10000d82:	4a55      	ldr	r2, [pc, #340]	; (10000ed8 <conversionConstructor+0x174>)
10000d84:	6013      	str	r3, [r2, #0]
10000d86:	4a55      	ldr	r2, [pc, #340]	; (10000edc <conversionConstructor+0x178>)
10000d88:	7013      	strb	r3, [r2, #0]
10000d8a:	4a55      	ldr	r2, [pc, #340]	; (10000ee0 <conversionConstructor+0x17c>)
10000d8c:	6013      	str	r3, [r2, #0]
10000d8e:	2000      	movs	r0, #0
10000d90:	e00e      	b.n	10000db0 <conversionConstructor+0x4c>
10000d92:	0083      	lsls	r3, r0, #2
10000d94:	181b      	adds	r3, r3, r0
10000d96:	005b      	lsls	r3, r3, #1
10000d98:	181b      	adds	r3, r3, r0
10000d9a:	4952      	ldr	r1, [pc, #328]	; (10000ee4 <conversionConstructor+0x180>)
10000d9c:	18c9      	adds	r1, r1, r3
10000d9e:	2400      	movs	r4, #0
10000da0:	548c      	strb	r4, [r1, r2]
10000da2:	4951      	ldr	r1, [pc, #324]	; (10000ee8 <conversionConstructor+0x184>)
10000da4:	18cb      	adds	r3, r1, r3
10000da6:	549c      	strb	r4, [r3, r2]
10000da8:	3201      	adds	r2, #1
10000daa:	2a0a      	cmp	r2, #10
10000dac:	ddf1      	ble.n	10000d92 <conversionConstructor+0x2e>
10000dae:	3001      	adds	r0, #1
10000db0:	2808      	cmp	r0, #8
10000db2:	dc01      	bgt.n	10000db8 <conversionConstructor+0x54>
10000db4:	2200      	movs	r2, #0
10000db6:	e7f8      	b.n	10000daa <conversionConstructor+0x46>
10000db8:	2300      	movs	r3, #0
10000dba:	e006      	b.n	10000dca <conversionConstructor+0x66>
10000dbc:	4a4b      	ldr	r2, [pc, #300]	; (10000eec <conversionConstructor+0x188>)
10000dbe:	00d9      	lsls	r1, r3, #3
10000dc0:	1854      	adds	r4, r2, r1
10000dc2:	2000      	movs	r0, #0
10000dc4:	6060      	str	r0, [r4, #4]
10000dc6:	5088      	str	r0, [r1, r2]
10000dc8:	3301      	adds	r3, #1
10000dca:	2b59      	cmp	r3, #89	; 0x59
10000dcc:	ddf6      	ble.n	10000dbc <conversionConstructor+0x58>
10000dce:	2300      	movs	r3, #0
10000dd0:	9300      	str	r3, [sp, #0]
10000dd2:	e06e      	b.n	10000eb2 <conversionConstructor+0x14e>
10000dd4:	3301      	adds	r3, #1
10000dd6:	2b04      	cmp	r3, #4
10000dd8:	dc68      	bgt.n	10000eac <conversionConstructor+0x148>
10000dda:	9d00      	ldr	r5, [sp, #0]
10000ddc:	0069      	lsls	r1, r5, #1
10000dde:	1c4c      	adds	r4, r1, #1
10000de0:	0058      	lsls	r0, r3, #1
10000de2:	1c42      	adds	r2, r0, #1
10000de4:	4693      	mov	fp, r2
10000de6:	4a3f      	ldr	r2, [pc, #252]	; (10000ee4 <conversionConstructor+0x180>)
10000de8:	4694      	mov	ip, r2
10000dea:	00ea      	lsls	r2, r5, #3
10000dec:	1852      	adds	r2, r2, r1
10000dee:	0052      	lsls	r2, r2, #1
10000df0:	1852      	adds	r2, r2, r1
10000df2:	4462      	add	r2, ip
10000df4:	2501      	movs	r5, #1
10000df6:	5415      	strb	r5, [r2, r0]
10000df8:	1c86      	adds	r6, r0, #2
10000dfa:	9601      	str	r6, [sp, #4]
10000dfc:	5595      	strb	r5, [r2, r6]
10000dfe:	1c8f      	adds	r7, r1, #2
10000e00:	00ba      	lsls	r2, r7, #2
10000e02:	19d2      	adds	r2, r2, r7
10000e04:	0052      	lsls	r2, r2, #1
10000e06:	19d2      	adds	r2, r2, r7
10000e08:	4462      	add	r2, ip
10000e0a:	5415      	strb	r5, [r2, r0]
10000e0c:	5595      	strb	r5, [r2, r6]
10000e0e:	228c      	movs	r2, #140	; 0x8c
10000e10:	9d00      	ldr	r5, [sp, #0]
10000e12:	436a      	muls	r2, r5
10000e14:	4442      	add	r2, r8
10000e16:	00dd      	lsls	r5, r3, #3
10000e18:	1aed      	subs	r5, r5, r3
10000e1a:	00ad      	lsls	r5, r5, #2
10000e1c:	46ac      	mov	ip, r5
10000e1e:	4494      	add	ip, r2
10000e20:	4665      	mov	r5, ip
10000e22:	686d      	ldr	r5, [r5, #4]
10000e24:	2d00      	cmp	r5, #0
10000e26:	d10e      	bne.n	10000e46 <conversionConstructor+0xe2>
10000e28:	008d      	lsls	r5, r1, #2
10000e2a:	46ac      	mov	ip, r5
10000e2c:	448c      	add	ip, r1
10000e2e:	4665      	mov	r5, ip
10000e30:	006d      	lsls	r5, r5, #1
10000e32:	46ac      	mov	ip, r5
10000e34:	4461      	add	r1, ip
10000e36:	4d2b      	ldr	r5, [pc, #172]	; (10000ee4 <conversionConstructor+0x180>)
10000e38:	46ac      	mov	ip, r5
10000e3a:	4461      	add	r1, ip
10000e3c:	2501      	movs	r5, #1
10000e3e:	46ac      	mov	ip, r5
10000e40:	465d      	mov	r5, fp
10000e42:	4666      	mov	r6, ip
10000e44:	554e      	strb	r6, [r1, r5]
10000e46:	00d9      	lsls	r1, r3, #3
10000e48:	1ac9      	subs	r1, r1, r3
10000e4a:	0089      	lsls	r1, r1, #2
10000e4c:	1851      	adds	r1, r2, r1
10000e4e:	6889      	ldr	r1, [r1, #8]
10000e50:	2900      	cmp	r1, #0
10000e52:	d10b      	bne.n	10000e6c <conversionConstructor+0x108>
10000e54:	00b9      	lsls	r1, r7, #2
10000e56:	19c9      	adds	r1, r1, r7
10000e58:	0049      	lsls	r1, r1, #1
10000e5a:	19c9      	adds	r1, r1, r7
10000e5c:	4d21      	ldr	r5, [pc, #132]	; (10000ee4 <conversionConstructor+0x180>)
10000e5e:	46a9      	mov	r9, r5
10000e60:	4449      	add	r1, r9
10000e62:	2501      	movs	r5, #1
10000e64:	46ac      	mov	ip, r5
10000e66:	465d      	mov	r5, fp
10000e68:	4666      	mov	r6, ip
10000e6a:	554e      	strb	r6, [r1, r5]
10000e6c:	00d9      	lsls	r1, r3, #3
10000e6e:	1ac9      	subs	r1, r1, r3
10000e70:	0089      	lsls	r1, r1, #2
10000e72:	1851      	adds	r1, r2, r1
10000e74:	68c9      	ldr	r1, [r1, #12]
10000e76:	2900      	cmp	r1, #0
10000e78:	d107      	bne.n	10000e8a <conversionConstructor+0x126>
10000e7a:	00a1      	lsls	r1, r4, #2
10000e7c:	1909      	adds	r1, r1, r4
10000e7e:	0049      	lsls	r1, r1, #1
10000e80:	1909      	adds	r1, r1, r4
10000e82:	4f18      	ldr	r7, [pc, #96]	; (10000ee4 <conversionConstructor+0x180>)
10000e84:	1879      	adds	r1, r7, r1
10000e86:	2701      	movs	r7, #1
10000e88:	540f      	strb	r7, [r1, r0]
10000e8a:	00d9      	lsls	r1, r3, #3
10000e8c:	1ac9      	subs	r1, r1, r3
10000e8e:	0089      	lsls	r1, r1, #2
10000e90:	1852      	adds	r2, r2, r1
10000e92:	6912      	ldr	r2, [r2, #16]
10000e94:	2a00      	cmp	r2, #0
10000e96:	d19d      	bne.n	10000dd4 <conversionConstructor+0x70>
10000e98:	00a2      	lsls	r2, r4, #2
10000e9a:	1912      	adds	r2, r2, r4
10000e9c:	0052      	lsls	r2, r2, #1
10000e9e:	1914      	adds	r4, r2, r4
10000ea0:	4a10      	ldr	r2, [pc, #64]	; (10000ee4 <conversionConstructor+0x180>)
10000ea2:	1914      	adds	r4, r2, r4
10000ea4:	2201      	movs	r2, #1
10000ea6:	9901      	ldr	r1, [sp, #4]
10000ea8:	5462      	strb	r2, [r4, r1]
10000eaa:	e793      	b.n	10000dd4 <conversionConstructor+0x70>
10000eac:	9b00      	ldr	r3, [sp, #0]
10000eae:	3301      	adds	r3, #1
10000eb0:	9300      	str	r3, [sp, #0]
10000eb2:	9b00      	ldr	r3, [sp, #0]
10000eb4:	2b03      	cmp	r3, #3
10000eb6:	dc01      	bgt.n	10000ebc <conversionConstructor+0x158>
10000eb8:	2300      	movs	r3, #0
10000eba:	e78c      	b.n	10000dd6 <conversionConstructor+0x72>
10000ebc:	b003      	add	sp, #12
10000ebe:	bcf0      	pop	{r4, r5, r6, r7}
10000ec0:	46bb      	mov	fp, r7
10000ec2:	46b2      	mov	sl, r6
10000ec4:	46a9      	mov	r9, r5
10000ec6:	46a0      	mov	r8, r4
10000ec8:	bdf0      	pop	{r4, r5, r6, r7, pc}
10000eca:	46c0      	nop			; (mov r8, r8)
10000ecc:	20000c4c 	.word	0x20000c4c
10000ed0:	20000c48 	.word	0x20000c48
10000ed4:	20000d18 	.word	0x20000d18
10000ed8:	20000d14 	.word	0x20000d14
10000edc:	2000214c 	.word	0x2000214c
10000ee0:	20000af0 	.word	0x20000af0
10000ee4:	20001dc8 	.word	0x20001dc8
10000ee8:	200020cc 	.word	0x200020cc
10000eec:	20001af8 	.word	0x20001af8

10000ef0 <setCoord>:
10000ef0:	b510      	push	{r4, lr}
10000ef2:	0040      	lsls	r0, r0, #1
10000ef4:	3001      	adds	r0, #1
10000ef6:	4c07      	ldr	r4, [pc, #28]	; (10000f14 <setCoord+0x24>)
10000ef8:	6020      	str	r0, [r4, #0]
10000efa:	0049      	lsls	r1, r1, #1
10000efc:	3101      	adds	r1, #1
10000efe:	4806      	ldr	r0, [pc, #24]	; (10000f18 <setCoord+0x28>)
10000f00:	6001      	str	r1, [r0, #0]
10000f02:	0052      	lsls	r2, r2, #1
10000f04:	3201      	adds	r2, #1
10000f06:	4905      	ldr	r1, [pc, #20]	; (10000f1c <setCoord+0x2c>)
10000f08:	600a      	str	r2, [r1, #0]
10000f0a:	005b      	lsls	r3, r3, #1
10000f0c:	3301      	adds	r3, #1
10000f0e:	4a04      	ldr	r2, [pc, #16]	; (10000f20 <setCoord+0x30>)
10000f10:	6013      	str	r3, [r2, #0]
10000f12:	bd10      	pop	{r4, pc}
10000f14:	20000c4c 	.word	0x20000c4c
10000f18:	20000c48 	.word	0x20000c48
10000f1c:	20000d18 	.word	0x20000d18
10000f20:	20000d14 	.word	0x20000d14

10000f24 <validMove>:
10000f24:	b510      	push	{r4, lr}
10000f26:	2a08      	cmp	r2, #8
10000f28:	d80f      	bhi.n	10000f4a <validMove+0x26>
10000f2a:	2b0a      	cmp	r3, #10
10000f2c:	d80f      	bhi.n	10000f4e <validMove+0x2a>
10000f2e:	0094      	lsls	r4, r2, #2
10000f30:	18a4      	adds	r4, r4, r2
10000f32:	0064      	lsls	r4, r4, #1
10000f34:	18a2      	adds	r2, r4, r2
10000f36:	1880      	adds	r0, r0, r2
10000f38:	5cc0      	ldrb	r0, [r0, r3]
10000f3a:	2801      	cmp	r0, #1
10000f3c:	d009      	beq.n	10000f52 <validMove+0x2e>
10000f3e:	188a      	adds	r2, r1, r2
10000f40:	5cd3      	ldrb	r3, [r2, r3]
10000f42:	2b00      	cmp	r3, #0
10000f44:	d107      	bne.n	10000f56 <validMove+0x32>
10000f46:	2001      	movs	r0, #1
10000f48:	e000      	b.n	10000f4c <validMove+0x28>
10000f4a:	2000      	movs	r0, #0
10000f4c:	bd10      	pop	{r4, pc}
10000f4e:	2000      	movs	r0, #0
10000f50:	e7fc      	b.n	10000f4c <validMove+0x28>
10000f52:	2000      	movs	r0, #0
10000f54:	e7fa      	b.n	10000f4c <validMove+0x28>
10000f56:	2000      	movs	r0, #0
10000f58:	e7f8      	b.n	10000f4c <validMove+0x28>
	...

10000f5c <navigateTo>:
10000f5c:	b5f8      	push	{r3, r4, r5, r6, r7, lr}
10000f5e:	46ce      	mov	lr, r9
10000f60:	4647      	mov	r7, r8
10000f62:	b580      	push	{r7, lr}
10000f64:	4680      	mov	r8, r0
10000f66:	000e      	movs	r6, r1
10000f68:	0014      	movs	r4, r2
10000f6a:	001d      	movs	r5, r3
10000f6c:	4b3f      	ldr	r3, [pc, #252]	; (1000106c <navigateTo+0x110>)
10000f6e:	681b      	ldr	r3, [r3, #0]
10000f70:	4293      	cmp	r3, r2
10000f72:	d039      	beq.n	10000fe8 <navigateTo+0x8c>
10000f74:	00a2      	lsls	r2, r4, #2
10000f76:	1912      	adds	r2, r2, r4
10000f78:	0052      	lsls	r2, r2, #1
10000f7a:	1912      	adds	r2, r2, r4
10000f7c:	18b2      	adds	r2, r6, r2
10000f7e:	2301      	movs	r3, #1
10000f80:	5553      	strb	r3, [r2, r5]
10000f82:	1e63      	subs	r3, r4, #1
10000f84:	4699      	mov	r9, r3
10000f86:	002b      	movs	r3, r5
10000f88:	464a      	mov	r2, r9
10000f8a:	0031      	movs	r1, r6
10000f8c:	4640      	mov	r0, r8
10000f8e:	f7ff ffc9 	bl	10000f24 <validMove>
10000f92:	2800      	cmp	r0, #0
10000f94:	d140      	bne.n	10001018 <navigateTo+0xbc>
10000f96:	2f00      	cmp	r7, #0
10000f98:	d109      	bne.n	10000fae <navigateTo+0x52>
10000f9a:	1c63      	adds	r3, r4, #1
10000f9c:	4699      	mov	r9, r3
10000f9e:	002b      	movs	r3, r5
10000fa0:	464a      	mov	r2, r9
10000fa2:	0031      	movs	r1, r6
10000fa4:	4640      	mov	r0, r8
10000fa6:	f7ff ffbd 	bl	10000f24 <validMove>
10000faa:	2800      	cmp	r0, #0
10000fac:	d13c      	bne.n	10001028 <navigateTo+0xcc>
10000fae:	2f00      	cmp	r7, #0
10000fb0:	d108      	bne.n	10000fc4 <navigateTo+0x68>
10000fb2:	1e6b      	subs	r3, r5, #1
10000fb4:	4699      	mov	r9, r3
10000fb6:	0022      	movs	r2, r4
10000fb8:	0031      	movs	r1, r6
10000fba:	4640      	mov	r0, r8
10000fbc:	f7ff ffb2 	bl	10000f24 <validMove>
10000fc0:	2800      	cmp	r0, #0
10000fc2:	d139      	bne.n	10001038 <navigateTo+0xdc>
10000fc4:	2f00      	cmp	r7, #0
10000fc6:	d108      	bne.n	10000fda <navigateTo+0x7e>
10000fc8:	1c6b      	adds	r3, r5, #1
10000fca:	4699      	mov	r9, r3
10000fcc:	0022      	movs	r2, r4
10000fce:	0031      	movs	r1, r6
10000fd0:	4640      	mov	r0, r8
10000fd2:	f7ff ffa7 	bl	10000f24 <validMove>
10000fd6:	2800      	cmp	r0, #0
10000fd8:	d136      	bne.n	10001048 <navigateTo+0xec>
10000fda:	2f00      	cmp	r7, #0
10000fdc:	d13c      	bne.n	10001058 <navigateTo+0xfc>
10000fde:	0038      	movs	r0, r7
10000fe0:	bcc0      	pop	{r6, r7}
10000fe2:	46b9      	mov	r9, r7
10000fe4:	46b0      	mov	r8, r6
10000fe6:	bdf8      	pop	{r3, r4, r5, r6, r7, pc}
10000fe8:	4b21      	ldr	r3, [pc, #132]	; (10001070 <navigateTo+0x114>)
10000fea:	681b      	ldr	r3, [r3, #0]
10000fec:	42ab      	cmp	r3, r5
10000fee:	d1c1      	bne.n	10000f74 <navigateTo+0x18>
10000ff0:	4920      	ldr	r1, [pc, #128]	; (10001074 <navigateTo+0x118>)
10000ff2:	680b      	ldr	r3, [r1, #0]
10000ff4:	4a20      	ldr	r2, [pc, #128]	; (10001078 <navigateTo+0x11c>)
10000ff6:	00d8      	lsls	r0, r3, #3
10000ff8:	5084      	str	r4, [r0, r2]
10000ffa:	1812      	adds	r2, r2, r0
10000ffc:	6055      	str	r5, [r2, #4]
10000ffe:	3301      	adds	r3, #1
10001000:	600b      	str	r3, [r1, #0]
10001002:	00a2      	lsls	r2, r4, #2
10001004:	1912      	adds	r2, r2, r4
10001006:	0052      	lsls	r2, r2, #1
10001008:	1914      	adds	r4, r2, r4
1000100a:	1936      	adds	r6, r6, r4
1000100c:	2301      	movs	r3, #1
1000100e:	5573      	strb	r3, [r6, r5]
10001010:	4a1a      	ldr	r2, [pc, #104]	; (1000107c <navigateTo+0x120>)
10001012:	7013      	strb	r3, [r2, #0]
10001014:	2701      	movs	r7, #1
10001016:	e7e2      	b.n	10000fde <navigateTo+0x82>
10001018:	002b      	movs	r3, r5
1000101a:	464a      	mov	r2, r9
1000101c:	0031      	movs	r1, r6
1000101e:	4640      	mov	r0, r8
10001020:	f7ff ff9c 	bl	10000f5c <navigateTo>
10001024:	0007      	movs	r7, r0
10001026:	e7b6      	b.n	10000f96 <navigateTo+0x3a>
10001028:	002b      	movs	r3, r5
1000102a:	464a      	mov	r2, r9
1000102c:	0031      	movs	r1, r6
1000102e:	4640      	mov	r0, r8
10001030:	f7ff ff94 	bl	10000f5c <navigateTo>
10001034:	0007      	movs	r7, r0
10001036:	e7ba      	b.n	10000fae <navigateTo+0x52>
10001038:	464b      	mov	r3, r9
1000103a:	0022      	movs	r2, r4
1000103c:	0031      	movs	r1, r6
1000103e:	4640      	mov	r0, r8
10001040:	f7ff ff8c 	bl	10000f5c <navigateTo>
10001044:	0007      	movs	r7, r0
10001046:	e7bd      	b.n	10000fc4 <navigateTo+0x68>
10001048:	464b      	mov	r3, r9
1000104a:	0022      	movs	r2, r4
1000104c:	0031      	movs	r1, r6
1000104e:	4640      	mov	r0, r8
10001050:	f7ff ff84 	bl	10000f5c <navigateTo>
10001054:	0007      	movs	r7, r0
10001056:	e7c0      	b.n	10000fda <navigateTo+0x7e>
10001058:	4906      	ldr	r1, [pc, #24]	; (10001074 <navigateTo+0x118>)
1000105a:	680b      	ldr	r3, [r1, #0]
1000105c:	4a06      	ldr	r2, [pc, #24]	; (10001078 <navigateTo+0x11c>)
1000105e:	00d8      	lsls	r0, r3, #3
10001060:	5084      	str	r4, [r0, r2]
10001062:	1812      	adds	r2, r2, r0
10001064:	6055      	str	r5, [r2, #4]
10001066:	3301      	adds	r3, #1
10001068:	600b      	str	r3, [r1, #0]
1000106a:	e7b8      	b.n	10000fde <navigateTo+0x82>
1000106c:	20000d18 	.word	0x20000d18
10001070:	20000d14 	.word	0x20000d14
10001074:	20000af0 	.word	0x20000af0
10001078:	20001af8 	.word	0x20001af8
1000107c:	2000214c 	.word	0x2000214c

10001080 <targetLocator>:
10001080:	b5f8      	push	{r3, r4, r5, r6, r7, lr}
10001082:	000e      	movs	r6, r1
10001084:	0015      	movs	r5, r2
10001086:	2800      	cmp	r0, #0
10001088:	d100      	bne.n	1000108c <targetLocator+0xc>
1000108a:	e0d5      	b.n	10001238 <targetLocator+0x1b8>
1000108c:	486c      	ldr	r0, [pc, #432]	; (10001240 <targetLocator+0x1c0>)
1000108e:	f006 fbaf 	bl	100077f0 <__wrap_printf>
10001092:	1e69      	subs	r1, r5, #1
10001094:	486b      	ldr	r0, [pc, #428]	; (10001244 <targetLocator+0x1c4>)
10001096:	f006 fbab 	bl	100077f0 <__wrap_printf>
1000109a:	2400      	movs	r4, #0
1000109c:	e010      	b.n	100010c0 <targetLocator+0x40>
1000109e:	4b6a      	ldr	r3, [pc, #424]	; (10001248 <targetLocator+0x1c8>)
100010a0:	18eb      	adds	r3, r5, r3
100010a2:	00db      	lsls	r3, r3, #3
100010a4:	18f3      	adds	r3, r6, r3
100010a6:	681a      	ldr	r2, [r3, #0]
100010a8:	6859      	ldr	r1, [r3, #4]
100010aa:	4868      	ldr	r0, [pc, #416]	; (1000124c <targetLocator+0x1cc>)
100010ac:	f006 fba0 	bl	100077f0 <__wrap_printf>
100010b0:	4b67      	ldr	r3, [pc, #412]	; (10001250 <targetLocator+0x1d0>)
100010b2:	681a      	ldr	r2, [r3, #0]
100010b4:	4b67      	ldr	r3, [pc, #412]	; (10001254 <targetLocator+0x1d4>)
100010b6:	6819      	ldr	r1, [r3, #0]
100010b8:	4867      	ldr	r0, [pc, #412]	; (10001258 <targetLocator+0x1d8>)
100010ba:	f006 fb99 	bl	100077f0 <__wrap_printf>
100010be:	3401      	adds	r4, #1
100010c0:	42ac      	cmp	r4, r5
100010c2:	db00      	blt.n	100010c6 <targetLocator+0x46>
100010c4:	e0bb      	b.n	1000123e <targetLocator+0x1be>
100010c6:	2c00      	cmp	r4, #0
100010c8:	d0e9      	beq.n	1000109e <targetLocator+0x1e>
100010ca:	1b2b      	subs	r3, r5, r4
100010cc:	4a5e      	ldr	r2, [pc, #376]	; (10001248 <targetLocator+0x1c8>)
100010ce:	1898      	adds	r0, r3, r2
100010d0:	00c0      	lsls	r0, r0, #3
100010d2:	1830      	adds	r0, r6, r0
100010d4:	6801      	ldr	r1, [r0, #0]
100010d6:	00db      	lsls	r3, r3, #3
100010d8:	18f3      	adds	r3, r6, r3
100010da:	681a      	ldr	r2, [r3, #0]
100010dc:	1c57      	adds	r7, r2, #1
100010de:	42b9      	cmp	r1, r7
100010e0:	d01f      	beq.n	10001122 <targetLocator+0xa2>
100010e2:	3a01      	subs	r2, #1
100010e4:	4291      	cmp	r1, r2
100010e6:	d043      	beq.n	10001170 <targetLocator+0xf0>
100010e8:	6842      	ldr	r2, [r0, #4]
100010ea:	685b      	ldr	r3, [r3, #4]
100010ec:	1c59      	adds	r1, r3, #1
100010ee:	428a      	cmp	r2, r1
100010f0:	d065      	beq.n	100011be <targetLocator+0x13e>
100010f2:	3b01      	subs	r3, #1
100010f4:	429a      	cmp	r2, r3
100010f6:	d1e2      	bne.n	100010be <targetLocator+0x3e>
100010f8:	4858      	ldr	r0, [pc, #352]	; (1000125c <targetLocator+0x1dc>)
100010fa:	f006 fb79 	bl	100077f0 <__wrap_printf>
100010fe:	4b58      	ldr	r3, [pc, #352]	; (10001260 <targetLocator+0x1e0>)
10001100:	7e1b      	ldrb	r3, [r3, #24]
10001102:	2b00      	cmp	r3, #0
10001104:	d100      	bne.n	10001108 <targetLocator+0x88>
10001106:	e081      	b.n	1000120c <targetLocator+0x18c>
10001108:	2b02      	cmp	r3, #2
1000110a:	d100      	bne.n	1000110e <targetLocator+0x8e>
1000110c:	e084      	b.n	10001218 <targetLocator+0x198>
1000110e:	2b03      	cmp	r3, #3
10001110:	d100      	bne.n	10001114 <targetLocator+0x94>
10001112:	e087      	b.n	10001224 <targetLocator+0x1a4>
10001114:	2b01      	cmp	r3, #1
10001116:	d100      	bne.n	1000111a <targetLocator+0x9a>
10001118:	e088      	b.n	1000122c <targetLocator+0x1ac>
1000111a:	4b51      	ldr	r3, [pc, #324]	; (10001260 <targetLocator+0x1e0>)
1000111c:	2203      	movs	r2, #3
1000111e:	761a      	strb	r2, [r3, #24]
10001120:	e7cd      	b.n	100010be <targetLocator+0x3e>
10001122:	4850      	ldr	r0, [pc, #320]	; (10001264 <targetLocator+0x1e4>)
10001124:	f006 fb64 	bl	100077f0 <__wrap_printf>
10001128:	4b4d      	ldr	r3, [pc, #308]	; (10001260 <targetLocator+0x1e0>)
1000112a:	7e1b      	ldrb	r3, [r3, #24]
1000112c:	2b00      	cmp	r3, #0
1000112e:	d009      	beq.n	10001144 <targetLocator+0xc4>
10001130:	2b02      	cmp	r3, #2
10001132:	d00d      	beq.n	10001150 <targetLocator+0xd0>
10001134:	2b03      	cmp	r3, #3
10001136:	d00f      	beq.n	10001158 <targetLocator+0xd8>
10001138:	2b01      	cmp	r3, #1
1000113a:	d013      	beq.n	10001164 <targetLocator+0xe4>
1000113c:	4b48      	ldr	r3, [pc, #288]	; (10001260 <targetLocator+0x1e0>)
1000113e:	2202      	movs	r2, #2
10001140:	761a      	strb	r2, [r3, #24]
10001142:	e7bc      	b.n	100010be <targetLocator+0x3e>
10001144:	f000 fba6 	bl	10001894 <turnLeft180>
10001148:	4847      	ldr	r0, [pc, #284]	; (10001268 <targetLocator+0x1e8>)
1000114a:	f000 fc15 	bl	10001978 <moveForwardBY>
1000114e:	e7f5      	b.n	1000113c <targetLocator+0xbc>
10001150:	4845      	ldr	r0, [pc, #276]	; (10001268 <targetLocator+0x1e8>)
10001152:	f000 fc11 	bl	10001978 <moveForwardBY>
10001156:	e7f1      	b.n	1000113c <targetLocator+0xbc>
10001158:	f000 fbc2 	bl	100018e0 <turnLeft90>
1000115c:	4842      	ldr	r0, [pc, #264]	; (10001268 <targetLocator+0x1e8>)
1000115e:	f000 fc0b 	bl	10001978 <moveForwardBY>
10001162:	e7eb      	b.n	1000113c <targetLocator+0xbc>
10001164:	f000 fbe2 	bl	1000192c <turnRight90>
10001168:	483f      	ldr	r0, [pc, #252]	; (10001268 <targetLocator+0x1e8>)
1000116a:	f000 fc05 	bl	10001978 <moveForwardBY>
1000116e:	e7e5      	b.n	1000113c <targetLocator+0xbc>
10001170:	483e      	ldr	r0, [pc, #248]	; (1000126c <targetLocator+0x1ec>)
10001172:	f006 fb3d 	bl	100077f0 <__wrap_printf>
10001176:	4b3a      	ldr	r3, [pc, #232]	; (10001260 <targetLocator+0x1e0>)
10001178:	7e1b      	ldrb	r3, [r3, #24]
1000117a:	2b00      	cmp	r3, #0
1000117c:	d009      	beq.n	10001192 <targetLocator+0x112>
1000117e:	2b02      	cmp	r3, #2
10001180:	d00b      	beq.n	1000119a <targetLocator+0x11a>
10001182:	2b03      	cmp	r3, #3
10001184:	d00f      	beq.n	100011a6 <targetLocator+0x126>
10001186:	2b01      	cmp	r3, #1
10001188:	d013      	beq.n	100011b2 <targetLocator+0x132>
1000118a:	4b35      	ldr	r3, [pc, #212]	; (10001260 <targetLocator+0x1e0>)
1000118c:	2200      	movs	r2, #0
1000118e:	761a      	strb	r2, [r3, #24]
10001190:	e795      	b.n	100010be <targetLocator+0x3e>
10001192:	4835      	ldr	r0, [pc, #212]	; (10001268 <targetLocator+0x1e8>)
10001194:	f000 fbf0 	bl	10001978 <moveForwardBY>
10001198:	e7f7      	b.n	1000118a <targetLocator+0x10a>
1000119a:	f000 fb7b 	bl	10001894 <turnLeft180>
1000119e:	4832      	ldr	r0, [pc, #200]	; (10001268 <targetLocator+0x1e8>)
100011a0:	f000 fbea 	bl	10001978 <moveForwardBY>
100011a4:	e7f1      	b.n	1000118a <targetLocator+0x10a>
100011a6:	f000 fbc1 	bl	1000192c <turnRight90>
100011aa:	482f      	ldr	r0, [pc, #188]	; (10001268 <targetLocator+0x1e8>)
100011ac:	f000 fbe4 	bl	10001978 <moveForwardBY>
100011b0:	e7eb      	b.n	1000118a <targetLocator+0x10a>
100011b2:	f000 fb95 	bl	100018e0 <turnLeft90>
100011b6:	482c      	ldr	r0, [pc, #176]	; (10001268 <targetLocator+0x1e8>)
100011b8:	f000 fbde 	bl	10001978 <moveForwardBY>
100011bc:	e7e5      	b.n	1000118a <targetLocator+0x10a>
100011be:	482c      	ldr	r0, [pc, #176]	; (10001270 <targetLocator+0x1f0>)
100011c0:	f006 fb16 	bl	100077f0 <__wrap_printf>
100011c4:	4b26      	ldr	r3, [pc, #152]	; (10001260 <targetLocator+0x1e0>)
100011c6:	7e1b      	ldrb	r3, [r3, #24]
100011c8:	2b00      	cmp	r3, #0
100011ca:	d009      	beq.n	100011e0 <targetLocator+0x160>
100011cc:	2b02      	cmp	r3, #2
100011ce:	d00d      	beq.n	100011ec <targetLocator+0x16c>
100011d0:	2b03      	cmp	r3, #3
100011d2:	d011      	beq.n	100011f8 <targetLocator+0x178>
100011d4:	2b01      	cmp	r3, #1
100011d6:	d015      	beq.n	10001204 <targetLocator+0x184>
100011d8:	4b21      	ldr	r3, [pc, #132]	; (10001260 <targetLocator+0x1e0>)
100011da:	2201      	movs	r2, #1
100011dc:	761a      	strb	r2, [r3, #24]
100011de:	e76e      	b.n	100010be <targetLocator+0x3e>
100011e0:	f000 fba4 	bl	1000192c <turnRight90>
100011e4:	4820      	ldr	r0, [pc, #128]	; (10001268 <targetLocator+0x1e8>)
100011e6:	f000 fbc7 	bl	10001978 <moveForwardBY>
100011ea:	e7f5      	b.n	100011d8 <targetLocator+0x158>
100011ec:	f000 fb78 	bl	100018e0 <turnLeft90>
100011f0:	481d      	ldr	r0, [pc, #116]	; (10001268 <targetLocator+0x1e8>)
100011f2:	f000 fbc1 	bl	10001978 <moveForwardBY>
100011f6:	e7ef      	b.n	100011d8 <targetLocator+0x158>
100011f8:	f000 fb4c 	bl	10001894 <turnLeft180>
100011fc:	481a      	ldr	r0, [pc, #104]	; (10001268 <targetLocator+0x1e8>)
100011fe:	f000 fbbb 	bl	10001978 <moveForwardBY>
10001202:	e7e9      	b.n	100011d8 <targetLocator+0x158>
10001204:	4818      	ldr	r0, [pc, #96]	; (10001268 <targetLocator+0x1e8>)
10001206:	f000 fbb7 	bl	10001978 <moveForwardBY>
1000120a:	e7e5      	b.n	100011d8 <targetLocator+0x158>
1000120c:	f000 fb68 	bl	100018e0 <turnLeft90>
10001210:	4815      	ldr	r0, [pc, #84]	; (10001268 <targetLocator+0x1e8>)
10001212:	f000 fbb1 	bl	10001978 <moveForwardBY>
10001216:	e780      	b.n	1000111a <targetLocator+0x9a>
10001218:	f000 fb88 	bl	1000192c <turnRight90>
1000121c:	4812      	ldr	r0, [pc, #72]	; (10001268 <targetLocator+0x1e8>)
1000121e:	f000 fbab 	bl	10001978 <moveForwardBY>
10001222:	e77a      	b.n	1000111a <targetLocator+0x9a>
10001224:	4810      	ldr	r0, [pc, #64]	; (10001268 <targetLocator+0x1e8>)
10001226:	f000 fba7 	bl	10001978 <moveForwardBY>
1000122a:	e776      	b.n	1000111a <targetLocator+0x9a>
1000122c:	f000 fb32 	bl	10001894 <turnLeft180>
10001230:	480d      	ldr	r0, [pc, #52]	; (10001268 <targetLocator+0x1e8>)
10001232:	f000 fba1 	bl	10001978 <moveForwardBY>
10001236:	e770      	b.n	1000111a <targetLocator+0x9a>
10001238:	480e      	ldr	r0, [pc, #56]	; (10001274 <targetLocator+0x1f4>)
1000123a:	f006 fad9 	bl	100077f0 <__wrap_printf>
1000123e:	bdf8      	pop	{r3, r4, r5, r6, r7, pc}
10001240:	1000aa3c 	.word	0x1000aa3c
10001244:	1000aa4c 	.word	0x1000aa4c
10001248:	1fffffff 	.word	0x1fffffff
1000124c:	1000aa60 	.word	0x1000aa60
10001250:	20000d18 	.word	0x20000d18
10001254:	20000d14 	.word	0x20000d14
10001258:	1000aa80 	.word	0x1000aa80
1000125c:	1000aab4 	.word	0x1000aab4
10001260:	20000c2c 	.word	0x20000c2c
10001264:	1000aaa0 	.word	0x1000aaa0
10001268:	41580000 	.word	0x41580000
1000126c:	1000aaa8 	.word	0x1000aaa8
10001270:	1000aaac 	.word	0x1000aaac
10001274:	1000aabc 	.word	0x1000aabc

10001278 <receiveCoordinate>:
10001278:	b510      	push	{r4, lr}
1000127a:	4b13      	ldr	r3, [pc, #76]	; (100012c8 <receiveCoordinate+0x50>)
1000127c:	781b      	ldrb	r3, [r3, #0]
1000127e:	2b00      	cmp	r3, #0
10001280:	d01e      	beq.n	100012c0 <receiveCoordinate+0x48>
10001282:	4b12      	ldr	r3, [pc, #72]	; (100012cc <receiveCoordinate+0x54>)
10001284:	781b      	ldrb	r3, [r3, #0]
10001286:	4a12      	ldr	r2, [pc, #72]	; (100012d0 <receiveCoordinate+0x58>)
10001288:	7812      	ldrb	r2, [r2, #0]
1000128a:	4812      	ldr	r0, [pc, #72]	; (100012d4 <receiveCoordinate+0x5c>)
1000128c:	6801      	ldr	r1, [r0, #0]
1000128e:	6840      	ldr	r0, [r0, #4]
10001290:	f7ff fe2e 	bl	10000ef0 <setCoord>
10001294:	4810      	ldr	r0, [pc, #64]	; (100012d8 <receiveCoordinate+0x60>)
10001296:	f7ff fd65 	bl	10000d64 <conversionConstructor>
1000129a:	4b10      	ldr	r3, [pc, #64]	; (100012dc <receiveCoordinate+0x64>)
1000129c:	681b      	ldr	r3, [r3, #0]
1000129e:	4a10      	ldr	r2, [pc, #64]	; (100012e0 <receiveCoordinate+0x68>)
100012a0:	6812      	ldr	r2, [r2, #0]
100012a2:	4910      	ldr	r1, [pc, #64]	; (100012e4 <receiveCoordinate+0x6c>)
100012a4:	4810      	ldr	r0, [pc, #64]	; (100012e8 <receiveCoordinate+0x70>)
100012a6:	f7ff fe59 	bl	10000f5c <navigateTo>
100012aa:	4b10      	ldr	r3, [pc, #64]	; (100012ec <receiveCoordinate+0x74>)
100012ac:	681a      	ldr	r2, [r3, #0]
100012ae:	4b10      	ldr	r3, [pc, #64]	; (100012f0 <receiveCoordinate+0x78>)
100012b0:	7818      	ldrb	r0, [r3, #0]
100012b2:	4910      	ldr	r1, [pc, #64]	; (100012f4 <receiveCoordinate+0x7c>)
100012b4:	f7ff fee4 	bl	10001080 <targetLocator>
100012b8:	4b03      	ldr	r3, [pc, #12]	; (100012c8 <receiveCoordinate+0x50>)
100012ba:	2200      	movs	r2, #0
100012bc:	701a      	strb	r2, [r3, #0]
100012be:	bd10      	pop	{r4, pc}
100012c0:	f000 f8ca 	bl	10001458 <uart_read_data>
100012c4:	e7fb      	b.n	100012be <receiveCoordinate+0x46>
100012c6:	46c0      	nop			; (mov r8, r8)
100012c8:	2000214b 	.word	0x2000214b
100012cc:	20002152 	.word	0x20002152
100012d0:	20002153 	.word	0x20002153
100012d4:	20000c2c 	.word	0x20000c2c
100012d8:	20000dd0 	.word	0x20000dd0
100012dc:	20000d14 	.word	0x20000d14
100012e0:	20000d18 	.word	0x20000d18
100012e4:	200020cc 	.word	0x200020cc
100012e8:	20001dc8 	.word	0x20001dc8
100012ec:	20000af0 	.word	0x20000af0
100012f0:	2000214c 	.word	0x2000214c
100012f4:	20001af8 	.word	0x20001af8

100012f8 <MappingMain>:
100012f8:	b510      	push	{r4, lr}
100012fa:	2400      	movs	r4, #0
100012fc:	e00f      	b.n	1000131e <MappingMain+0x26>
100012fe:	00d9      	lsls	r1, r3, #3
10001300:	1ac9      	subs	r1, r1, r3
10001302:	008a      	lsls	r2, r1, #2
10001304:	01a0      	lsls	r0, r4, #6
10001306:	1b00      	subs	r0, r0, r4
10001308:	0081      	lsls	r1, r0, #2
1000130a:	1851      	adds	r1, r2, r1
1000130c:	4a17      	ldr	r2, [pc, #92]	; (1000136c <MappingMain+0x74>)
1000130e:	1852      	adds	r2, r2, r1
10001310:	2164      	movs	r1, #100	; 0x64
10001312:	6151      	str	r1, [r2, #20]
10001314:	6191      	str	r1, [r2, #24]
10001316:	3301      	adds	r3, #1
10001318:	2b08      	cmp	r3, #8
1000131a:	ddf0      	ble.n	100012fe <MappingMain+0x6>
1000131c:	3401      	adds	r4, #1
1000131e:	2c06      	cmp	r4, #6
10001320:	dc01      	bgt.n	10001326 <MappingMain+0x2e>
10001322:	2300      	movs	r3, #0
10001324:	e7f8      	b.n	10001318 <MappingMain+0x20>
10001326:	2300      	movs	r3, #0
10001328:	2204      	movs	r2, #4
1000132a:	2103      	movs	r1, #3
1000132c:	4810      	ldr	r0, [pc, #64]	; (10001370 <MappingMain+0x78>)
1000132e:	f7ff f97f 	bl	10000630 <SetCar>
10001332:	e003      	b.n	1000133c <MappingMain+0x44>
10001334:	f7ff fbe6 	bl	10000b04 <MoveCarToStackPos>
10001338:	f7ff f83e 	bl	100003b8 <SavePrevXYToCurrentNode>
1000133c:	f7ff fb20 	bl	10000980 <CheckCurrentNode>
10001340:	4b0c      	ldr	r3, [pc, #48]	; (10001374 <MappingMain+0x7c>)
10001342:	681b      	ldr	r3, [r3, #0]
10001344:	2b13      	cmp	r3, #19
10001346:	ddf5      	ble.n	10001334 <MappingMain+0x3c>
10001348:	2b14      	cmp	r3, #20
1000134a:	d1f7      	bne.n	1000133c <MappingMain+0x44>
1000134c:	f7ff fc9a 	bl	10000c84 <ConvertMappedGrid>
10001350:	4809      	ldr	r0, [pc, #36]	; (10001378 <MappingMain+0x80>)
10001352:	f7ff fd07 	bl	10000d64 <conversionConstructor>
10001356:	2400      	movs	r4, #0
10001358:	e005      	b.n	10001366 <MappingMain+0x6e>
1000135a:	4808      	ldr	r0, [pc, #32]	; (1000137c <MappingMain+0x84>)
1000135c:	f000 f84c 	bl	100013f8 <uart_send_map>
10001360:	3401      	adds	r4, #1
10001362:	f7ff ff89 	bl	10001278 <receiveCoordinate>
10001366:	2c00      	cmp	r4, #0
10001368:	d0f7      	beq.n	1000135a <MappingMain+0x62>
1000136a:	e7fa      	b.n	10001362 <MappingMain+0x6a>
1000136c:	20001000 	.word	0x20001000
10001370:	20000c2c 	.word	0x20000c2c
10001374:	20001e30 	.word	0x20001e30
10001378:	20000dd0 	.word	0x20000dd0
1000137c:	20001dc8 	.word	0x20001dc8

10001380 <uart_start>:
10001380:	b510      	push	{r4, lr}
10001382:	21e1      	movs	r1, #225	; 0xe1
10001384:	0209      	lsls	r1, r1, #8
10001386:	4806      	ldr	r0, [pc, #24]	; (100013a0 <uart_start+0x20>)
10001388:	f003 f874 	bl	10004474 <uart_init>
1000138c:	2102      	movs	r1, #2
1000138e:	2004      	movs	r0, #4
10001390:	f001 f9b0 	bl	100026f4 <gpio_set_function>
10001394:	2102      	movs	r1, #2
10001396:	2005      	movs	r0, #5
10001398:	f001 f9ac 	bl	100026f4 <gpio_set_function>
1000139c:	bd10      	pop	{r4, pc}
1000139e:	46c0      	nop			; (mov r8, r8)
100013a0:	40038000 	.word	0x40038000

100013a4 <uart_send_float>:
100013a4:	b570      	push	{r4, r5, r6, lr}
100013a6:	b082      	sub	sp, #8
100013a8:	1c0e      	adds	r6, r1, #0
100013aa:	ac01      	add	r4, sp, #4
100013ac:	7020      	strb	r0, [r4, #0]
100013ae:	1c08      	adds	r0, r1, #0
100013b0:	f005 ffcc 	bl	1000734c <__wrap___aeabi_f2uiz>
100013b4:	b2c5      	uxtb	r5, r0
100013b6:	0028      	movs	r0, r5
100013b8:	f005 ff74 	bl	100072a4 <__wrap___aeabi_i2f>
100013bc:	1c01      	adds	r1, r0, #0
100013be:	1c30      	adds	r0, r6, #0
100013c0:	f005 ff0f 	bl	100071e2 <__wrap___aeabi_fsub>
100013c4:	490a      	ldr	r1, [pc, #40]	; (100013f0 <uart_send_float+0x4c>)
100013c6:	f005 ff2c 	bl	10007222 <__wrap___aeabi_fmul>
100013ca:	f005 ffbf 	bl	1000734c <__wrap___aeabi_f2uiz>
100013ce:	7065      	strb	r5, [r4, #1]
100013d0:	70a0      	strb	r0, [r4, #2]
100013d2:	2100      	movs	r1, #0
100013d4:	e008      	b.n	100013e8 <uart_send_float+0x44>
100013d6:	4b07      	ldr	r3, [pc, #28]	; (100013f4 <uart_send_float+0x50>)
100013d8:	699b      	ldr	r3, [r3, #24]
100013da:	069b      	lsls	r3, r3, #26
100013dc:	d4fb      	bmi.n	100013d6 <uart_send_float+0x32>
100013de:	7820      	ldrb	r0, [r4, #0]
100013e0:	4b04      	ldr	r3, [pc, #16]	; (100013f4 <uart_send_float+0x50>)
100013e2:	6018      	str	r0, [r3, #0]
100013e4:	3101      	adds	r1, #1
100013e6:	3401      	adds	r4, #1
100013e8:	2902      	cmp	r1, #2
100013ea:	d9f4      	bls.n	100013d6 <uart_send_float+0x32>
100013ec:	b002      	add	sp, #8
100013ee:	bd70      	pop	{r4, r5, r6, pc}
100013f0:	42c80000 	.word	0x42c80000
100013f4:	40038000 	.word	0x40038000

100013f8 <uart_send_map>:
100013f8:	b530      	push	{r4, r5, lr}
100013fa:	b083      	sub	sp, #12
100013fc:	0004      	movs	r4, r0
100013fe:	466b      	mov	r3, sp
10001400:	1dda      	adds	r2, r3, #7
10001402:	2364      	movs	r3, #100	; 0x64
10001404:	7013      	strb	r3, [r2, #0]
10001406:	2100      	movs	r1, #0
10001408:	e008      	b.n	1000141c <uart_send_map+0x24>
1000140a:	4b12      	ldr	r3, [pc, #72]	; (10001454 <uart_send_map+0x5c>)
1000140c:	699b      	ldr	r3, [r3, #24]
1000140e:	069b      	lsls	r3, r3, #26
10001410:	d4fb      	bmi.n	1000140a <uart_send_map+0x12>
10001412:	7810      	ldrb	r0, [r2, #0]
10001414:	4b0f      	ldr	r3, [pc, #60]	; (10001454 <uart_send_map+0x5c>)
10001416:	6018      	str	r0, [r3, #0]
10001418:	3101      	adds	r1, #1
1000141a:	3201      	adds	r2, #1
1000141c:	2900      	cmp	r1, #0
1000141e:	d0f4      	beq.n	1000140a <uart_send_map+0x12>
10001420:	2500      	movs	r5, #0
10001422:	e00b      	b.n	1000143c <uart_send_map+0x44>
10001424:	4b0b      	ldr	r3, [pc, #44]	; (10001454 <uart_send_map+0x5c>)
10001426:	699b      	ldr	r3, [r3, #24]
10001428:	069b      	lsls	r3, r3, #26
1000142a:	d4fb      	bmi.n	10001424 <uart_send_map+0x2c>
1000142c:	7810      	ldrb	r0, [r2, #0]
1000142e:	4b09      	ldr	r3, [pc, #36]	; (10001454 <uart_send_map+0x5c>)
10001430:	6018      	str	r0, [r3, #0]
10001432:	3101      	adds	r1, #1
10001434:	3201      	adds	r2, #1
10001436:	290a      	cmp	r1, #10
10001438:	d9f4      	bls.n	10001424 <uart_send_map+0x2c>
1000143a:	3501      	adds	r5, #1
1000143c:	2d08      	cmp	r5, #8
1000143e:	dc06      	bgt.n	1000144e <uart_send_map+0x56>
10001440:	00aa      	lsls	r2, r5, #2
10001442:	1952      	adds	r2, r2, r5
10001444:	0052      	lsls	r2, r2, #1
10001446:	1952      	adds	r2, r2, r5
10001448:	18a2      	adds	r2, r4, r2
1000144a:	2100      	movs	r1, #0
1000144c:	e7f3      	b.n	10001436 <uart_send_map+0x3e>
1000144e:	b003      	add	sp, #12
10001450:	bd30      	pop	{r4, r5, pc}
10001452:	46c0      	nop			; (mov r8, r8)
10001454:	40038000 	.word	0x40038000

10001458 <uart_read_data>:
10001458:	b510      	push	{r4, lr}
1000145a:	4b13      	ldr	r3, [pc, #76]	; (100014a8 <uart_read_data+0x50>)
1000145c:	699b      	ldr	r3, [r3, #24]
1000145e:	2110      	movs	r1, #16
10001460:	000a      	movs	r2, r1
10001462:	401a      	ands	r2, r3
10001464:	4219      	tst	r1, r3
10001466:	d01d      	beq.n	100014a4 <uart_read_data+0x4c>
10001468:	bd10      	pop	{r4, pc}
1000146a:	4b0f      	ldr	r3, [pc, #60]	; (100014a8 <uart_read_data+0x50>)
1000146c:	699b      	ldr	r3, [r3, #24]
1000146e:	06db      	lsls	r3, r3, #27
10001470:	d4fb      	bmi.n	1000146a <uart_read_data+0x12>
10001472:	4b0d      	ldr	r3, [pc, #52]	; (100014a8 <uart_read_data+0x50>)
10001474:	681b      	ldr	r3, [r3, #0]
10001476:	700b      	strb	r3, [r1, #0]
10001478:	3201      	adds	r2, #1
1000147a:	3101      	adds	r1, #1
1000147c:	2a01      	cmp	r2, #1
1000147e:	d9f4      	bls.n	1000146a <uart_read_data+0x12>
10001480:	4b0a      	ldr	r3, [pc, #40]	; (100014ac <uart_read_data+0x54>)
10001482:	7819      	ldrb	r1, [r3, #0]
10001484:	4a0a      	ldr	r2, [pc, #40]	; (100014b0 <uart_read_data+0x58>)
10001486:	7011      	strb	r1, [r2, #0]
10001488:	785b      	ldrb	r3, [r3, #1]
1000148a:	4c0a      	ldr	r4, [pc, #40]	; (100014b4 <uart_read_data+0x5c>)
1000148c:	7023      	strb	r3, [r4, #0]
1000148e:	4b0a      	ldr	r3, [pc, #40]	; (100014b8 <uart_read_data+0x60>)
10001490:	2201      	movs	r2, #1
10001492:	701a      	strb	r2, [r3, #0]
10001494:	4809      	ldr	r0, [pc, #36]	; (100014bc <uart_read_data+0x64>)
10001496:	f006 f9ab 	bl	100077f0 <__wrap_printf>
1000149a:	7821      	ldrb	r1, [r4, #0]
1000149c:	4808      	ldr	r0, [pc, #32]	; (100014c0 <uart_read_data+0x68>)
1000149e:	f006 f9a7 	bl	100077f0 <__wrap_printf>
100014a2:	e7e1      	b.n	10001468 <uart_read_data+0x10>
100014a4:	4901      	ldr	r1, [pc, #4]	; (100014ac <uart_read_data+0x54>)
100014a6:	e7e9      	b.n	1000147c <uart_read_data+0x24>
100014a8:	40038000 	.word	0x40038000
100014ac:	20000c9c 	.word	0x20000c9c
100014b0:	20002152 	.word	0x20002152
100014b4:	20002153 	.word	0x20002153
100014b8:	2000214b 	.word	0x2000214b
100014bc:	1000aad0 	.word	0x1000aad0
100014c0:	1000aad8 	.word	0x1000aad8

100014c4 <ISR_rightEncoder>:
100014c4:	4a06      	ldr	r2, [pc, #24]	; (100014e0 <ISR_rightEncoder+0x1c>)
100014c6:	6813      	ldr	r3, [r2, #0]
100014c8:	3301      	adds	r3, #1
100014ca:	6013      	str	r3, [r2, #0]
100014cc:	4a05      	ldr	r2, [pc, #20]	; (100014e4 <ISR_rightEncoder+0x20>)
100014ce:	6813      	ldr	r3, [r2, #0]
100014d0:	3301      	adds	r3, #1
100014d2:	6013      	str	r3, [r2, #0]
100014d4:	4a04      	ldr	r2, [pc, #16]	; (100014e8 <ISR_rightEncoder+0x24>)
100014d6:	6813      	ldr	r3, [r2, #0]
100014d8:	3301      	adds	r3, #1
100014da:	6013      	str	r3, [r2, #0]
100014dc:	4770      	bx	lr
100014de:	46c0      	nop			; (mov r8, r8)
100014e0:	20001e58 	.word	0x20001e58
100014e4:	20000ca8 	.word	0x20000ca8
100014e8:	20001e5c 	.word	0x20001e5c

100014ec <ISR_leftEncoder>:
100014ec:	4a04      	ldr	r2, [pc, #16]	; (10001500 <ISR_leftEncoder+0x14>)
100014ee:	6813      	ldr	r3, [r2, #0]
100014f0:	3301      	adds	r3, #1
100014f2:	6013      	str	r3, [r2, #0]
100014f4:	4a03      	ldr	r2, [pc, #12]	; (10001504 <ISR_leftEncoder+0x18>)
100014f6:	6813      	ldr	r3, [r2, #0]
100014f8:	3301      	adds	r3, #1
100014fa:	6013      	str	r3, [r2, #0]
100014fc:	4770      	bx	lr
100014fe:	46c0      	nop			; (mov r8, r8)
10001500:	20001aec 	.word	0x20001aec
10001504:	20001af0 	.word	0x20001af0

10001508 <get_RightNotches>:
10001508:	4b01      	ldr	r3, [pc, #4]	; (10001510 <get_RightNotches+0x8>)
1000150a:	6818      	ldr	r0, [r3, #0]
1000150c:	4770      	bx	lr
1000150e:	46c0      	nop			; (mov r8, r8)
10001510:	20001e5c 	.word	0x20001e5c

10001514 <get_LeftNotches>:
10001514:	4b01      	ldr	r3, [pc, #4]	; (1000151c <get_LeftNotches+0x8>)
10001516:	6818      	ldr	r0, [r3, #0]
10001518:	4770      	bx	lr
1000151a:	46c0      	nop			; (mov r8, r8)
1000151c:	20001af0 	.word	0x20001af0

10001520 <get_RightCounter>:
10001520:	4b01      	ldr	r3, [pc, #4]	; (10001528 <get_RightCounter+0x8>)
10001522:	6818      	ldr	r0, [r3, #0]
10001524:	4770      	bx	lr
10001526:	46c0      	nop			; (mov r8, r8)
10001528:	20001e58 	.word	0x20001e58

1000152c <get_LeftCounter>:
1000152c:	4b01      	ldr	r3, [pc, #4]	; (10001534 <get_LeftCounter+0x8>)
1000152e:	6818      	ldr	r0, [r3, #0]
10001530:	4770      	bx	lr
10001532:	46c0      	nop			; (mov r8, r8)
10001534:	20001aec 	.word	0x20001aec

10001538 <get_current_notches>:
10001538:	b510      	push	{r4, lr}
1000153a:	4b02      	ldr	r3, [pc, #8]	; (10001544 <get_current_notches+0xc>)
1000153c:	6818      	ldr	r0, [r3, #0]
1000153e:	f005 feb1 	bl	100072a4 <__wrap___aeabi_i2f>
10001542:	bd10      	pop	{r4, pc}
10001544:	20000ca8 	.word	0x20000ca8

10001548 <reset_notches>:
10001548:	4b01      	ldr	r3, [pc, #4]	; (10001550 <reset_notches+0x8>)
1000154a:	2200      	movs	r2, #0
1000154c:	601a      	str	r2, [r3, #0]
1000154e:	4770      	bx	lr
10001550:	20000ca8 	.word	0x20000ca8

10001554 <reset_RightCounter>:
10001554:	4b01      	ldr	r3, [pc, #4]	; (1000155c <reset_RightCounter+0x8>)
10001556:	2200      	movs	r2, #0
10001558:	601a      	str	r2, [r3, #0]
1000155a:	4770      	bx	lr
1000155c:	20001e58 	.word	0x20001e58

10001560 <reset_LeftCounter>:
10001560:	4b01      	ldr	r3, [pc, #4]	; (10001568 <reset_LeftCounter+0x8>)
10001562:	2200      	movs	r2, #0
10001564:	601a      	str	r2, [r3, #0]
10001566:	4770      	bx	lr
10001568:	20001aec 	.word	0x20001aec

1000156c <reset_RightNotches>:
1000156c:	4b01      	ldr	r3, [pc, #4]	; (10001574 <reset_RightNotches+0x8>)
1000156e:	2200      	movs	r2, #0
10001570:	601a      	str	r2, [r3, #0]
10001572:	4770      	bx	lr
10001574:	20001e5c 	.word	0x20001e5c

10001578 <reset_LeftNotches>:
10001578:	4b01      	ldr	r3, [pc, #4]	; (10001580 <reset_LeftNotches+0x8>)
1000157a:	2200      	movs	r2, #0
1000157c:	601a      	str	r2, [r3, #0]
1000157e:	4770      	bx	lr
10001580:	20001af0 	.word	0x20001af0

10001584 <CMtoSteps>:
10001584:	b510      	push	{r4, lr}
10001586:	4903      	ldr	r1, [pc, #12]	; (10001594 <CMtoSteps+0x10>)
10001588:	f005 fe35 	bl	100071f6 <__wrap___aeabi_fdiv>
1000158c:	f005 feac 	bl	100072e8 <__wrap___aeabi_f2iz>
10001590:	bd10      	pop	{r4, pc}
10001592:	46c0      	nop			; (mov r8, r8)
10001594:	3f714e3b 	.word	0x3f714e3b

10001598 <gpio_callback>:
10001598:	b510      	push	{r4, lr}
1000159a:	280e      	cmp	r0, #14
1000159c:	d002      	beq.n	100015a4 <gpio_callback+0xc>
1000159e:	280f      	cmp	r0, #15
100015a0:	d003      	beq.n	100015aa <gpio_callback+0x12>
100015a2:	bd10      	pop	{r4, pc}
100015a4:	f7ff ff8e 	bl	100014c4 <ISR_rightEncoder>
100015a8:	e7fb      	b.n	100015a2 <gpio_callback+0xa>
100015aa:	f7ff ff9f 	bl	100014ec <ISR_leftEncoder>
100015ae:	e7f8      	b.n	100015a2 <gpio_callback+0xa>

100015b0 <init_pins>:
100015b0:	b510      	push	{r4, lr}
100015b2:	f006 f929 	bl	10007808 <stdio_init_all>
100015b6:	2019      	movs	r0, #25
100015b8:	f001 f99c 	bl	100028f4 <gpio_init>
100015bc:	24d0      	movs	r4, #208	; 0xd0
100015be:	0624      	lsls	r4, r4, #24
100015c0:	2380      	movs	r3, #128	; 0x80
100015c2:	049b      	lsls	r3, r3, #18
100015c4:	6263      	str	r3, [r4, #36]	; 0x24
100015c6:	200e      	movs	r0, #14
100015c8:	f001 f994 	bl	100028f4 <gpio_init>
100015cc:	2380      	movs	r3, #128	; 0x80
100015ce:	01db      	lsls	r3, r3, #7
100015d0:	62a3      	str	r3, [r4, #40]	; 0x28
100015d2:	2200      	movs	r2, #0
100015d4:	2101      	movs	r1, #1
100015d6:	200e      	movs	r0, #14
100015d8:	f001 f8a4 	bl	10002724 <gpio_set_pulls>
100015dc:	200f      	movs	r0, #15
100015de:	f001 f989 	bl	100028f4 <gpio_init>
100015e2:	2380      	movs	r3, #128	; 0x80
100015e4:	021b      	lsls	r3, r3, #8
100015e6:	62a3      	str	r3, [r4, #40]	; 0x28
100015e8:	2200      	movs	r2, #0
100015ea:	2101      	movs	r1, #1
100015ec:	200f      	movs	r0, #15
100015ee:	f001 f899 	bl	10002724 <gpio_set_pulls>
100015f2:	bd10      	pop	{r4, pc}

100015f4 <init_motor>:
100015f4:	b510      	push	{r4, lr}
100015f6:	2006      	movs	r0, #6
100015f8:	f001 f97c 	bl	100028f4 <gpio_init>
100015fc:	2007      	movs	r0, #7
100015fe:	f001 f979 	bl	100028f4 <gpio_init>
10001602:	2008      	movs	r0, #8
10001604:	f001 f976 	bl	100028f4 <gpio_init>
10001608:	2009      	movs	r0, #9
1000160a:	f001 f973 	bl	100028f4 <gpio_init>
1000160e:	23d0      	movs	r3, #208	; 0xd0
10001610:	061b      	lsls	r3, r3, #24
10001612:	2240      	movs	r2, #64	; 0x40
10001614:	625a      	str	r2, [r3, #36]	; 0x24
10001616:	3240      	adds	r2, #64	; 0x40
10001618:	625a      	str	r2, [r3, #36]	; 0x24
1000161a:	3280      	adds	r2, #128	; 0x80
1000161c:	625a      	str	r2, [r3, #36]	; 0x24
1000161e:	3201      	adds	r2, #1
10001620:	32ff      	adds	r2, #255	; 0xff
10001622:	625a      	str	r2, [r3, #36]	; 0x24
10001624:	bd10      	pop	{r4, pc}
	...

10001628 <init_pwmChanA>:
10001628:	b570      	push	{r4, r5, r6, lr}
1000162a:	4e1f      	ldr	r6, [pc, #124]	; (100016a8 <init_pwmChanA+0x80>)
1000162c:	8030      	strh	r0, [r6, #0]
1000162e:	2104      	movs	r1, #4
10001630:	2000      	movs	r0, #0
10001632:	f001 f85f 	bl	100026f4 <gpio_set_function>
10001636:	2005      	movs	r0, #5
10001638:	f003 f916 	bl	10004868 <clock_get_hz>
1000163c:	491b      	ldr	r1, [pc, #108]	; (100016ac <init_pwmChanA+0x84>)
1000163e:	f004 fb3b 	bl	10005cb8 <__wrap___aeabi_uidiv>
10001642:	f005 fe2a 	bl	1000729a <__wrap___aeabi_ui2f>
10001646:	1c05      	adds	r5, r0, #0
10001648:	f005 fe80 	bl	1000734c <__wrap___aeabi_f2uiz>
1000164c:	b2c4      	uxtb	r4, r0
1000164e:	0020      	movs	r0, r4
10001650:	f005 fe28 	bl	100072a4 <__wrap___aeabi_i2f>
10001654:	1c01      	adds	r1, r0, #0
10001656:	1c28      	adds	r0, r5, #0
10001658:	f005 fdc3 	bl	100071e2 <__wrap___aeabi_fsub>
1000165c:	2183      	movs	r1, #131	; 0x83
1000165e:	05c9      	lsls	r1, r1, #23
10001660:	f005 fddf 	bl	10007222 <__wrap___aeabi_fmul>
10001664:	f005 fe72 	bl	1000734c <__wrap___aeabi_f2uiz>
10001668:	b2c3      	uxtb	r3, r0
1000166a:	0120      	lsls	r0, r4, #4
1000166c:	4318      	orrs	r0, r3
1000166e:	4c10      	ldr	r4, [pc, #64]	; (100016b0 <init_pwmChanA+0x88>)
10001670:	6060      	str	r0, [r4, #4]
10001672:	4b10      	ldr	r3, [pc, #64]	; (100016b4 <init_pwmChanA+0x8c>)
10001674:	6123      	str	r3, [r4, #16]
10001676:	8832      	ldrh	r2, [r6, #0]
10001678:	0153      	lsls	r3, r2, #5
1000167a:	1a9b      	subs	r3, r3, r2
1000167c:	0098      	lsls	r0, r3, #2
1000167e:	1880      	adds	r0, r0, r2
10001680:	00c0      	lsls	r0, r0, #3
10001682:	2164      	movs	r1, #100	; 0x64
10001684:	f004 fb18 	bl	10005cb8 <__wrap___aeabi_uidiv>
10001688:	b283      	uxth	r3, r0
1000168a:	3b01      	subs	r3, #1
1000168c:	b29b      	uxth	r3, r3
1000168e:	4a0a      	ldr	r2, [pc, #40]	; (100016b8 <init_pwmChanA+0x90>)
10001690:	6810      	ldr	r0, [r2, #0]
10001692:	4043      	eors	r3, r0
10001694:	041b      	lsls	r3, r3, #16
10001696:	0c1b      	lsrs	r3, r3, #16
10001698:	4a08      	ldr	r2, [pc, #32]	; (100016bc <init_pwmChanA+0x94>)
1000169a:	6013      	str	r3, [r2, #0]
1000169c:	6822      	ldr	r2, [r4, #0]
1000169e:	2301      	movs	r3, #1
100016a0:	4393      	bics	r3, r2
100016a2:	4a07      	ldr	r2, [pc, #28]	; (100016c0 <init_pwmChanA+0x98>)
100016a4:	6013      	str	r3, [r2, #0]
100016a6:	bd70      	pop	{r4, r5, r6, pc}
100016a8:	20002144 	.word	0x20002144
100016ac:	000f4240 	.word	0x000f4240
100016b0:	40050000 	.word	0x40050000
100016b4:	000003e7 	.word	0x000003e7
100016b8:	4005000c 	.word	0x4005000c
100016bc:	4005100c 	.word	0x4005100c
100016c0:	40051000 	.word	0x40051000

100016c4 <init_pwmChanB>:
100016c4:	b570      	push	{r4, r5, r6, lr}
100016c6:	4e1f      	ldr	r6, [pc, #124]	; (10001744 <init_pwmChanB+0x80>)
100016c8:	8030      	strh	r0, [r6, #0]
100016ca:	2104      	movs	r1, #4
100016cc:	2001      	movs	r0, #1
100016ce:	f001 f811 	bl	100026f4 <gpio_set_function>
100016d2:	2005      	movs	r0, #5
100016d4:	f003 f8c8 	bl	10004868 <clock_get_hz>
100016d8:	491b      	ldr	r1, [pc, #108]	; (10001748 <init_pwmChanB+0x84>)
100016da:	f004 faed 	bl	10005cb8 <__wrap___aeabi_uidiv>
100016de:	f005 fddc 	bl	1000729a <__wrap___aeabi_ui2f>
100016e2:	1c05      	adds	r5, r0, #0
100016e4:	f005 fe32 	bl	1000734c <__wrap___aeabi_f2uiz>
100016e8:	b2c4      	uxtb	r4, r0
100016ea:	0020      	movs	r0, r4
100016ec:	f005 fdda 	bl	100072a4 <__wrap___aeabi_i2f>
100016f0:	1c01      	adds	r1, r0, #0
100016f2:	1c28      	adds	r0, r5, #0
100016f4:	f005 fd75 	bl	100071e2 <__wrap___aeabi_fsub>
100016f8:	2183      	movs	r1, #131	; 0x83
100016fa:	05c9      	lsls	r1, r1, #23
100016fc:	f005 fd91 	bl	10007222 <__wrap___aeabi_fmul>
10001700:	f005 fe24 	bl	1000734c <__wrap___aeabi_f2uiz>
10001704:	b2c3      	uxtb	r3, r0
10001706:	0120      	lsls	r0, r4, #4
10001708:	4318      	orrs	r0, r3
1000170a:	4c10      	ldr	r4, [pc, #64]	; (1000174c <init_pwmChanB+0x88>)
1000170c:	6060      	str	r0, [r4, #4]
1000170e:	4b10      	ldr	r3, [pc, #64]	; (10001750 <init_pwmChanB+0x8c>)
10001710:	6123      	str	r3, [r4, #16]
10001712:	8832      	ldrh	r2, [r6, #0]
10001714:	0153      	lsls	r3, r2, #5
10001716:	1a9b      	subs	r3, r3, r2
10001718:	0098      	lsls	r0, r3, #2
1000171a:	1880      	adds	r0, r0, r2
1000171c:	00c0      	lsls	r0, r0, #3
1000171e:	2164      	movs	r1, #100	; 0x64
10001720:	f004 faca 	bl	10005cb8 <__wrap___aeabi_uidiv>
10001724:	b283      	uxth	r3, r0
10001726:	3b01      	subs	r3, #1
10001728:	041b      	lsls	r3, r3, #16
1000172a:	4a0a      	ldr	r2, [pc, #40]	; (10001754 <init_pwmChanB+0x90>)
1000172c:	6810      	ldr	r0, [r2, #0]
1000172e:	4043      	eors	r3, r0
10001730:	0c1b      	lsrs	r3, r3, #16
10001732:	041b      	lsls	r3, r3, #16
10001734:	4a08      	ldr	r2, [pc, #32]	; (10001758 <init_pwmChanB+0x94>)
10001736:	6013      	str	r3, [r2, #0]
10001738:	6822      	ldr	r2, [r4, #0]
1000173a:	2301      	movs	r3, #1
1000173c:	4393      	bics	r3, r2
1000173e:	4a07      	ldr	r2, [pc, #28]	; (1000175c <init_pwmChanB+0x98>)
10001740:	6013      	str	r3, [r2, #0]
10001742:	bd70      	pop	{r4, r5, r6, pc}
10001744:	20002144 	.word	0x20002144
10001748:	000f4240 	.word	0x000f4240
1000174c:	40050000 	.word	0x40050000
10001750:	000003e7 	.word	0x000003e7
10001754:	4005000c 	.word	0x4005000c
10001758:	4005100c 	.word	0x4005100c
1000175c:	40051000 	.word	0x40051000

10001760 <ISR_PID>:
10001760:	b5f0      	push	{r4, r5, r6, r7, lr}
10001762:	46c6      	mov	lr, r8
10001764:	b500      	push	{lr}
10001766:	b082      	sub	sp, #8
10001768:	f7ff feda 	bl	10001520 <get_RightCounter>
1000176c:	f005 fd9a 	bl	100072a4 <__wrap___aeabi_i2f>
10001770:	1c05      	adds	r5, r0, #0
10001772:	f7ff fedb 	bl	1000152c <get_LeftCounter>
10001776:	f005 fd95 	bl	100072a4 <__wrap___aeabi_i2f>
1000177a:	1c04      	adds	r4, r0, #0
1000177c:	492c      	ldr	r1, [pc, #176]	; (10001830 <ISR_PID+0xd0>)
1000177e:	1c28      	adds	r0, r5, #0
10001780:	f005 fd39 	bl	100071f6 <__wrap___aeabi_fdiv>
10001784:	492b      	ldr	r1, [pc, #172]	; (10001834 <ISR_PID+0xd4>)
10001786:	f005 fd4c 	bl	10007222 <__wrap___aeabi_fmul>
1000178a:	1c05      	adds	r5, r0, #0
1000178c:	f7ff fee2 	bl	10001554 <reset_RightCounter>
10001790:	4927      	ldr	r1, [pc, #156]	; (10001830 <ISR_PID+0xd0>)
10001792:	1c20      	adds	r0, r4, #0
10001794:	f005 fd2f 	bl	100071f6 <__wrap___aeabi_fdiv>
10001798:	4926      	ldr	r1, [pc, #152]	; (10001834 <ISR_PID+0xd4>)
1000179a:	f005 fd42 	bl	10007222 <__wrap___aeabi_fmul>
1000179e:	1c04      	adds	r4, r0, #0
100017a0:	f7ff fede 	bl	10001560 <reset_LeftCounter>
100017a4:	1c21      	adds	r1, r4, #0
100017a6:	1c28      	adds	r0, r5, #0
100017a8:	f005 fd1b 	bl	100071e2 <__wrap___aeabi_fsub>
100017ac:	1c04      	adds	r4, r0, #0
100017ae:	4922      	ldr	r1, [pc, #136]	; (10001838 <ISR_PID+0xd8>)
100017b0:	f005 fd1c 	bl	100071ec <__wrap___aeabi_fadd>
100017b4:	4680      	mov	r8, r0
100017b6:	2100      	movs	r1, #0
100017b8:	1c20      	adds	r0, r4, #0
100017ba:	f005 fd12 	bl	100071e2 <__wrap___aeabi_fsub>
100017be:	1c07      	adds	r7, r0, #0
100017c0:	491e      	ldr	r1, [pc, #120]	; (1000183c <ISR_PID+0xdc>)
100017c2:	1c20      	adds	r0, r4, #0
100017c4:	f005 fd2d 	bl	10007222 <__wrap___aeabi_fmul>
100017c8:	1c06      	adds	r6, r0, #0
100017ca:	491b      	ldr	r1, [pc, #108]	; (10001838 <ISR_PID+0xd8>)
100017cc:	4640      	mov	r0, r8
100017ce:	f005 fd28 	bl	10007222 <__wrap___aeabi_fmul>
100017d2:	1c01      	adds	r1, r0, #0
100017d4:	1c30      	adds	r0, r6, #0
100017d6:	f005 fd09 	bl	100071ec <__wrap___aeabi_fadd>
100017da:	1c06      	adds	r6, r0, #0
100017dc:	4918      	ldr	r1, [pc, #96]	; (10001840 <ISR_PID+0xe0>)
100017de:	1c38      	adds	r0, r7, #0
100017e0:	f005 fd1f 	bl	10007222 <__wrap___aeabi_fmul>
100017e4:	1c01      	adds	r1, r0, #0
100017e6:	1c30      	adds	r0, r6, #0
100017e8:	f005 fd00 	bl	100071ec <__wrap___aeabi_fadd>
100017ec:	4680      	mov	r8, r0
100017ee:	1c20      	adds	r0, r4, #0
100017f0:	f005 fdc4 	bl	1000737c <__wrap___aeabi_f2d>
100017f4:	0006      	movs	r6, r0
100017f6:	000f      	movs	r7, r1
100017f8:	1c28      	adds	r0, r5, #0
100017fa:	f005 fdbf 	bl	1000737c <__wrap___aeabi_f2d>
100017fe:	9000      	str	r0, [sp, #0]
10001800:	9101      	str	r1, [sp, #4]
10001802:	0032      	movs	r2, r6
10001804:	003b      	movs	r3, r7
10001806:	480f      	ldr	r0, [pc, #60]	; (10001844 <ISR_PID+0xe4>)
10001808:	f005 fff2 	bl	100077f0 <__wrap_printf>
1000180c:	4b0e      	ldr	r3, [pc, #56]	; (10001848 <ISR_PID+0xe8>)
1000180e:	8818      	ldrh	r0, [r3, #0]
10001810:	f005 fd48 	bl	100072a4 <__wrap___aeabi_i2f>
10001814:	4641      	mov	r1, r8
10001816:	f005 fce9 	bl	100071ec <__wrap___aeabi_fadd>
1000181a:	f005 fd97 	bl	1000734c <__wrap___aeabi_f2uiz>
1000181e:	b280      	uxth	r0, r0
10001820:	f7ff ff50 	bl	100016c4 <init_pwmChanB>
10001824:	2001      	movs	r0, #1
10001826:	b002      	add	sp, #8
10001828:	bc80      	pop	{r7}
1000182a:	46b8      	mov	r8, r7
1000182c:	bdf0      	pop	{r4, r5, r6, r7, pc}
1000182e:	46c0      	nop			; (mov r8, r8)
10001830:	41a00000 	.word	0x41a00000
10001834:	42700000 	.word	0x42700000
10001838:	3f733333 	.word	0x3f733333
1000183c:	3e2e147b 	.word	0x3e2e147b
10001840:	3e4ccccd 	.word	0x3e4ccccd
10001844:	1000aae8 	.word	0x1000aae8
10001848:	20002144 	.word	0x20002144

1000184c <moveForward>:
1000184c:	b510      	push	{r4, lr}
1000184e:	4c0a      	ldr	r4, [pc, #40]	; (10001878 <moveForward+0x2c>)
10001850:	2346      	movs	r3, #70	; 0x46
10001852:	8023      	strh	r3, [r4, #0]
10001854:	2046      	movs	r0, #70	; 0x46
10001856:	f7ff fee7 	bl	10001628 <init_pwmChanA>
1000185a:	8820      	ldrh	r0, [r4, #0]
1000185c:	f7ff ff32 	bl	100016c4 <init_pwmChanB>
10001860:	23d0      	movs	r3, #208	; 0xd0
10001862:	061b      	lsls	r3, r3, #24
10001864:	2240      	movs	r2, #64	; 0x40
10001866:	619a      	str	r2, [r3, #24]
10001868:	3240      	adds	r2, #64	; 0x40
1000186a:	615a      	str	r2, [r3, #20]
1000186c:	3280      	adds	r2, #128	; 0x80
1000186e:	619a      	str	r2, [r3, #24]
10001870:	3201      	adds	r2, #1
10001872:	32ff      	adds	r2, #255	; 0xff
10001874:	615a      	str	r2, [r3, #20]
10001876:	bd10      	pop	{r4, pc}
10001878:	20002144 	.word	0x20002144

1000187c <stop>:
1000187c:	23d0      	movs	r3, #208	; 0xd0
1000187e:	061b      	lsls	r3, r3, #24
10001880:	2240      	movs	r2, #64	; 0x40
10001882:	619a      	str	r2, [r3, #24]
10001884:	3240      	adds	r2, #64	; 0x40
10001886:	619a      	str	r2, [r3, #24]
10001888:	3280      	adds	r2, #128	; 0x80
1000188a:	619a      	str	r2, [r3, #24]
1000188c:	3201      	adds	r2, #1
1000188e:	32ff      	adds	r2, #255	; 0xff
10001890:	619a      	str	r2, [r3, #24]
10001892:	4770      	bx	lr

10001894 <turnLeft180>:
10001894:	b510      	push	{r4, lr}
10001896:	f7ff fe69 	bl	1000156c <reset_RightNotches>
1000189a:	f7ff ffd7 	bl	1000184c <moveForward>
1000189e:	23d0      	movs	r3, #208	; 0xd0
100018a0:	061b      	lsls	r3, r3, #24
100018a2:	2240      	movs	r2, #64	; 0x40
100018a4:	619a      	str	r2, [r3, #24]
100018a6:	3240      	adds	r2, #64	; 0x40
100018a8:	619a      	str	r2, [r3, #24]
100018aa:	3280      	adds	r2, #128	; 0x80
100018ac:	619a      	str	r2, [r3, #24]
100018ae:	3201      	adds	r2, #1
100018b0:	32ff      	adds	r2, #255	; 0xff
100018b2:	615a      	str	r2, [r3, #20]
100018b4:	2000      	movs	r0, #0
100018b6:	f7ff ff05 	bl	100016c4 <init_pwmChanB>
100018ba:	f7ff fe25 	bl	10001508 <get_RightNotches>
100018be:	f005 fcf1 	bl	100072a4 <__wrap___aeabi_i2f>
100018c2:	e003      	b.n	100018cc <turnLeft180+0x38>
100018c4:	f7ff fe20 	bl	10001508 <get_RightNotches>
100018c8:	f005 fcec 	bl	100072a4 <__wrap___aeabi_i2f>
100018cc:	4903      	ldr	r1, [pc, #12]	; (100018dc <turnLeft180+0x48>)
100018ce:	f005 fcd9 	bl	10007284 <__wrap___aeabi_fcmplt>
100018d2:	2800      	cmp	r0, #0
100018d4:	d1f6      	bne.n	100018c4 <turnLeft180+0x30>
100018d6:	f7ff ffd1 	bl	1000187c <stop>
100018da:	bd10      	pop	{r4, pc}
100018dc:	42140000 	.word	0x42140000

100018e0 <turnLeft90>:
100018e0:	b510      	push	{r4, lr}
100018e2:	f7ff fe43 	bl	1000156c <reset_RightNotches>
100018e6:	f7ff ffb1 	bl	1000184c <moveForward>
100018ea:	23d0      	movs	r3, #208	; 0xd0
100018ec:	061b      	lsls	r3, r3, #24
100018ee:	2240      	movs	r2, #64	; 0x40
100018f0:	619a      	str	r2, [r3, #24]
100018f2:	3240      	adds	r2, #64	; 0x40
100018f4:	619a      	str	r2, [r3, #24]
100018f6:	3280      	adds	r2, #128	; 0x80
100018f8:	619a      	str	r2, [r3, #24]
100018fa:	3201      	adds	r2, #1
100018fc:	32ff      	adds	r2, #255	; 0xff
100018fe:	615a      	str	r2, [r3, #20]
10001900:	2000      	movs	r0, #0
10001902:	f7ff fedf 	bl	100016c4 <init_pwmChanB>
10001906:	f7ff fdff 	bl	10001508 <get_RightNotches>
1000190a:	f005 fccb 	bl	100072a4 <__wrap___aeabi_i2f>
1000190e:	e003      	b.n	10001918 <turnLeft90+0x38>
10001910:	f7ff fdfa 	bl	10001508 <get_RightNotches>
10001914:	f005 fcc6 	bl	100072a4 <__wrap___aeabi_i2f>
10001918:	4903      	ldr	r1, [pc, #12]	; (10001928 <turnLeft90+0x48>)
1000191a:	f005 fcb3 	bl	10007284 <__wrap___aeabi_fcmplt>
1000191e:	2800      	cmp	r0, #0
10001920:	d1f6      	bne.n	10001910 <turnLeft90+0x30>
10001922:	f7ff ffab 	bl	1000187c <stop>
10001926:	bd10      	pop	{r4, pc}
10001928:	41a00000 	.word	0x41a00000

1000192c <turnRight90>:
1000192c:	b510      	push	{r4, lr}
1000192e:	f7ff fe23 	bl	10001578 <reset_LeftNotches>
10001932:	f7ff ff8b 	bl	1000184c <moveForward>
10001936:	23d0      	movs	r3, #208	; 0xd0
10001938:	061b      	lsls	r3, r3, #24
1000193a:	2240      	movs	r2, #64	; 0x40
1000193c:	619a      	str	r2, [r3, #24]
1000193e:	3240      	adds	r2, #64	; 0x40
10001940:	615a      	str	r2, [r3, #20]
10001942:	3280      	adds	r2, #128	; 0x80
10001944:	619a      	str	r2, [r3, #24]
10001946:	3201      	adds	r2, #1
10001948:	32ff      	adds	r2, #255	; 0xff
1000194a:	619a      	str	r2, [r3, #24]
1000194c:	2000      	movs	r0, #0
1000194e:	f7ff fe6b 	bl	10001628 <init_pwmChanA>
10001952:	f7ff fddf 	bl	10001514 <get_LeftNotches>
10001956:	f005 fca5 	bl	100072a4 <__wrap___aeabi_i2f>
1000195a:	e003      	b.n	10001964 <turnRight90+0x38>
1000195c:	f7ff fdda 	bl	10001514 <get_LeftNotches>
10001960:	f005 fca0 	bl	100072a4 <__wrap___aeabi_i2f>
10001964:	4903      	ldr	r1, [pc, #12]	; (10001974 <turnRight90+0x48>)
10001966:	f005 fc8d 	bl	10007284 <__wrap___aeabi_fcmplt>
1000196a:	2800      	cmp	r0, #0
1000196c:	d1f6      	bne.n	1000195c <turnRight90+0x30>
1000196e:	f7ff ff85 	bl	1000187c <stop>
10001972:	bd10      	pop	{r4, pc}
10001974:	41a00000 	.word	0x41a00000

10001978 <moveForwardBY>:
10001978:	b5f0      	push	{r4, r5, r6, r7, lr}
1000197a:	b083      	sub	sp, #12
1000197c:	1c05      	adds	r5, r0, #0
1000197e:	f7ff fde3 	bl	10001548 <reset_notches>
10001982:	1c28      	adds	r0, r5, #0
10001984:	f7ff fdfe 	bl	10001584 <CMtoSteps>
10001988:	f005 fc8c 	bl	100072a4 <__wrap___aeabi_i2f>
1000198c:	1c05      	adds	r5, r0, #0
1000198e:	4e18      	ldr	r6, [pc, #96]	; (100019f0 <moveForwardBY+0x78>)
10001990:	2346      	movs	r3, #70	; 0x46
10001992:	8033      	strh	r3, [r6, #0]
10001994:	2046      	movs	r0, #70	; 0x46
10001996:	f7ff fe47 	bl	10001628 <init_pwmChanA>
1000199a:	8830      	ldrh	r0, [r6, #0]
1000199c:	f7ff fe92 	bl	100016c4 <init_pwmChanB>
100019a0:	23d0      	movs	r3, #208	; 0xd0
100019a2:	061b      	lsls	r3, r3, #24
100019a4:	2240      	movs	r2, #64	; 0x40
100019a6:	619a      	str	r2, [r3, #24]
100019a8:	3240      	adds	r2, #64	; 0x40
100019aa:	615a      	str	r2, [r3, #20]
100019ac:	3280      	adds	r2, #128	; 0x80
100019ae:	619a      	str	r2, [r3, #24]
100019b0:	3201      	adds	r2, #1
100019b2:	32ff      	adds	r2, #255	; 0xff
100019b4:	615a      	str	r2, [r3, #20]
100019b6:	e010      	b.n	100019da <moveForwardBY+0x62>
100019b8:	f7ff fdbe 	bl	10001538 <get_current_notches>
100019bc:	1c04      	adds	r4, r0, #0
100019be:	f005 fcdd 	bl	1000737c <__wrap___aeabi_f2d>
100019c2:	0006      	movs	r6, r0
100019c4:	000f      	movs	r7, r1
100019c6:	1c28      	adds	r0, r5, #0
100019c8:	f005 fcd8 	bl	1000737c <__wrap___aeabi_f2d>
100019cc:	9000      	str	r0, [sp, #0]
100019ce:	9101      	str	r1, [sp, #4]
100019d0:	0032      	movs	r2, r6
100019d2:	003b      	movs	r3, r7
100019d4:	4807      	ldr	r0, [pc, #28]	; (100019f4 <moveForwardBY+0x7c>)
100019d6:	f005 ff0b 	bl	100077f0 <__wrap_printf>
100019da:	1c29      	adds	r1, r5, #0
100019dc:	1c20      	adds	r0, r4, #0
100019de:	f005 fc51 	bl	10007284 <__wrap___aeabi_fcmplt>
100019e2:	2800      	cmp	r0, #0
100019e4:	d1e8      	bne.n	100019b8 <moveForwardBY+0x40>
100019e6:	f7ff ff49 	bl	1000187c <stop>
100019ea:	b003      	add	sp, #12
100019ec:	bdf0      	pop	{r4, r5, r6, r7, pc}
100019ee:	46c0      	nop			; (mov r8, r8)
100019f0:	20002144 	.word	0x20002144
100019f4:	1000ab00 	.word	0x1000ab00

100019f8 <moveBackwardBY>:
100019f8:	b5f0      	push	{r4, r5, r6, r7, lr}
100019fa:	b083      	sub	sp, #12
100019fc:	1c05      	adds	r5, r0, #0
100019fe:	f7ff fda3 	bl	10001548 <reset_notches>
10001a02:	1c28      	adds	r0, r5, #0
10001a04:	f7ff fdbe 	bl	10001584 <CMtoSteps>
10001a08:	f005 fc4c 	bl	100072a4 <__wrap___aeabi_i2f>
10001a0c:	1c05      	adds	r5, r0, #0
10001a0e:	4e18      	ldr	r6, [pc, #96]	; (10001a70 <moveBackwardBY+0x78>)
10001a10:	2346      	movs	r3, #70	; 0x46
10001a12:	8033      	strh	r3, [r6, #0]
10001a14:	2046      	movs	r0, #70	; 0x46
10001a16:	f7ff fe07 	bl	10001628 <init_pwmChanA>
10001a1a:	8830      	ldrh	r0, [r6, #0]
10001a1c:	f7ff fe52 	bl	100016c4 <init_pwmChanB>
10001a20:	23d0      	movs	r3, #208	; 0xd0
10001a22:	061b      	lsls	r3, r3, #24
10001a24:	2240      	movs	r2, #64	; 0x40
10001a26:	615a      	str	r2, [r3, #20]
10001a28:	3240      	adds	r2, #64	; 0x40
10001a2a:	619a      	str	r2, [r3, #24]
10001a2c:	3280      	adds	r2, #128	; 0x80
10001a2e:	615a      	str	r2, [r3, #20]
10001a30:	3201      	adds	r2, #1
10001a32:	32ff      	adds	r2, #255	; 0xff
10001a34:	619a      	str	r2, [r3, #24]
10001a36:	e010      	b.n	10001a5a <moveBackwardBY+0x62>
10001a38:	f7ff fd7e 	bl	10001538 <get_current_notches>
10001a3c:	1c04      	adds	r4, r0, #0
10001a3e:	f005 fc9d 	bl	1000737c <__wrap___aeabi_f2d>
10001a42:	0006      	movs	r6, r0
10001a44:	000f      	movs	r7, r1
10001a46:	1c28      	adds	r0, r5, #0
10001a48:	f005 fc98 	bl	1000737c <__wrap___aeabi_f2d>
10001a4c:	9000      	str	r0, [sp, #0]
10001a4e:	9101      	str	r1, [sp, #4]
10001a50:	0032      	movs	r2, r6
10001a52:	003b      	movs	r3, r7
10001a54:	4807      	ldr	r0, [pc, #28]	; (10001a74 <moveBackwardBY+0x7c>)
10001a56:	f005 fecb 	bl	100077f0 <__wrap_printf>
10001a5a:	1c29      	adds	r1, r5, #0
10001a5c:	1c20      	adds	r0, r4, #0
10001a5e:	f005 fc11 	bl	10007284 <__wrap___aeabi_fcmplt>
10001a62:	2800      	cmp	r0, #0
10001a64:	d1e8      	bne.n	10001a38 <moveBackwardBY+0x40>
10001a66:	f7ff ff09 	bl	1000187c <stop>
10001a6a:	b003      	add	sp, #12
10001a6c:	bdf0      	pop	{r4, r5, r6, r7, pc}
10001a6e:	46c0      	nop			; (mov r8, r8)
10001a70:	20002144 	.word	0x20002144
10001a74:	1000ab00 	.word	0x1000ab00

10001a78 <getPulse>:
10001a78:	b570      	push	{r4, r5, r6, lr}
10001a7a:	b082      	sub	sp, #8
10001a7c:	000e      	movs	r6, r1
10001a7e:	2401      	movs	r4, #1
10001a80:	4084      	lsls	r4, r0
10001a82:	25d0      	movs	r5, #208	; 0xd0
10001a84:	062d      	lsls	r5, r5, #24
10001a86:	616c      	str	r4, [r5, #20]
10001a88:	200a      	movs	r0, #10
10001a8a:	2100      	movs	r1, #0
10001a8c:	f002 f8ac 	bl	10003be8 <sleep_us>
10001a90:	61ac      	str	r4, [r5, #24]
10001a92:	23d0      	movs	r3, #208	; 0xd0
10001a94:	061b      	lsls	r3, r3, #24
10001a96:	685b      	ldr	r3, [r3, #4]
10001a98:	40f3      	lsrs	r3, r6
10001a9a:	07db      	lsls	r3, r3, #31
10001a9c:	d5f9      	bpl.n	10001a92 <getPulse+0x1a>
10001a9e:	f002 f96b 	bl	10003d78 <time_us_64>
10001aa2:	9000      	str	r0, [sp, #0]
10001aa4:	9101      	str	r1, [sp, #4]
10001aa6:	2900      	cmp	r1, #0
10001aa8:	db17      	blt.n	10001ada <getPulse+0x62>
10001aaa:	2400      	movs	r4, #0
10001aac:	2500      	movs	r5, #0
10001aae:	23d0      	movs	r3, #208	; 0xd0
10001ab0:	061b      	lsls	r3, r3, #24
10001ab2:	685b      	ldr	r3, [r3, #4]
10001ab4:	40f3      	lsrs	r3, r6
10001ab6:	07db      	lsls	r3, r3, #31
10001ab8:	d515      	bpl.n	10001ae6 <getPulse+0x6e>
10001aba:	2201      	movs	r2, #1
10001abc:	2300      	movs	r3, #0
10001abe:	18a4      	adds	r4, r4, r2
10001ac0:	415d      	adcs	r5, r3
10001ac2:	2001      	movs	r0, #1
10001ac4:	2100      	movs	r1, #0
10001ac6:	f002 f88f 	bl	10003be8 <sleep_us>
10001aca:	2d00      	cmp	r5, #0
10001acc:	d103      	bne.n	10001ad6 <getPulse+0x5e>
10001ace:	d1ee      	bne.n	10001aae <getPulse+0x36>
10001ad0:	4b0f      	ldr	r3, [pc, #60]	; (10001b10 <getPulse+0x98>)
10001ad2:	429c      	cmp	r4, r3
10001ad4:	d9eb      	bls.n	10001aae <getPulse+0x36>
10001ad6:	2000      	movs	r0, #0
10001ad8:	e012      	b.n	10001b00 <getPulse+0x88>
10001ada:	4b0e      	ldr	r3, [pc, #56]	; (10001b14 <getPulse+0x9c>)
10001adc:	4a0e      	ldr	r2, [pc, #56]	; (10001b18 <getPulse+0xa0>)
10001ade:	213f      	movs	r1, #63	; 0x3f
10001ae0:	480e      	ldr	r0, [pc, #56]	; (10001b1c <getPulse+0xa4>)
10001ae2:	f002 fd0d 	bl	10004500 <__assert_func>
10001ae6:	f002 f947 	bl	10003d78 <time_us_64>
10001aea:	0002      	movs	r2, r0
10001aec:	1e0b      	subs	r3, r1, #0
10001aee:	db09      	blt.n	10001b04 <getPulse+0x8c>
10001af0:	9800      	ldr	r0, [sp, #0]
10001af2:	9901      	ldr	r1, [sp, #4]
10001af4:	1a12      	subs	r2, r2, r0
10001af6:	418b      	sbcs	r3, r1
10001af8:	0010      	movs	r0, r2
10001afa:	0019      	movs	r1, r3
10001afc:	f005 fc30 	bl	10007360 <__wrap___aeabi_l2f>
10001b00:	b002      	add	sp, #8
10001b02:	bd70      	pop	{r4, r5, r6, pc}
10001b04:	4b03      	ldr	r3, [pc, #12]	; (10001b14 <getPulse+0x9c>)
10001b06:	4a04      	ldr	r2, [pc, #16]	; (10001b18 <getPulse+0xa0>)
10001b08:	213f      	movs	r1, #63	; 0x3f
10001b0a:	4804      	ldr	r0, [pc, #16]	; (10001b1c <getPulse+0xa4>)
10001b0c:	f002 fcf8 	bl	10004500 <__assert_func>
10001b10:	000065f4 	.word	0x000065f4
10001b14:	1000ab18 	.word	0x1000ab18
10001b18:	1000ab8c 	.word	0x1000ab8c
10001b1c:	1000ab34 	.word	0x1000ab34

10001b20 <init_ultrasonic>:
10001b20:	b570      	push	{r4, r5, r6, lr}
10001b22:	2400      	movs	r4, #0
10001b24:	e012      	b.n	10001b4c <init_ultrasonic+0x2c>
10001b26:	0026      	movs	r6, r4
10001b28:	360a      	adds	r6, #10
10001b2a:	0030      	movs	r0, r6
10001b2c:	f000 fee2 	bl	100028f4 <gpio_init>
10001b30:	0025      	movs	r5, r4
10001b32:	3510      	adds	r5, #16
10001b34:	0028      	movs	r0, r5
10001b36:	f000 fedd 	bl	100028f4 <gpio_init>
10001b3a:	2301      	movs	r3, #1
10001b3c:	0019      	movs	r1, r3
10001b3e:	40b1      	lsls	r1, r6
10001b40:	22d0      	movs	r2, #208	; 0xd0
10001b42:	0612      	lsls	r2, r2, #24
10001b44:	6251      	str	r1, [r2, #36]	; 0x24
10001b46:	40ab      	lsls	r3, r5
10001b48:	6293      	str	r3, [r2, #40]	; 0x28
10001b4a:	3401      	adds	r4, #1
10001b4c:	2c03      	cmp	r4, #3
10001b4e:	ddea      	ble.n	10001b26 <init_ultrasonic+0x6>
10001b50:	bd70      	pop	{r4, r5, r6, pc}
	...

10001b54 <ultrasonicPulse>:
10001b54:	b5f8      	push	{r3, r4, r5, r6, r7, lr}
10001b56:	0007      	movs	r7, r0
10001b58:	000e      	movs	r6, r1
10001b5a:	2500      	movs	r5, #0
10001b5c:	2400      	movs	r4, #0
10001b5e:	e00c      	b.n	10001b7a <ultrasonicPulse+0x26>
10001b60:	0031      	movs	r1, r6
10001b62:	0038      	movs	r0, r7
10001b64:	f7ff ff88 	bl	10001a78 <getPulse>
10001b68:	490c      	ldr	r1, [pc, #48]	; (10001b9c <ultrasonicPulse+0x48>)
10001b6a:	f005 fb44 	bl	100071f6 <__wrap___aeabi_fdiv>
10001b6e:	1c01      	adds	r1, r0, #0
10001b70:	1c20      	adds	r0, r4, #0
10001b72:	f005 fb3b 	bl	100071ec <__wrap___aeabi_fadd>
10001b76:	1c04      	adds	r4, r0, #0
10001b78:	3501      	adds	r5, #1
10001b7a:	2d09      	cmp	r5, #9
10001b7c:	ddf0      	ble.n	10001b60 <ultrasonicPulse+0xc>
10001b7e:	4908      	ldr	r1, [pc, #32]	; (10001ba0 <ultrasonicPulse+0x4c>)
10001b80:	1c20      	adds	r0, r4, #0
10001b82:	f005 fb38 	bl	100071f6 <__wrap___aeabi_fdiv>
10001b86:	1c04      	adds	r4, r0, #0
10001b88:	f005 fbf8 	bl	1000737c <__wrap___aeabi_f2d>
10001b8c:	0002      	movs	r2, r0
10001b8e:	000b      	movs	r3, r1
10001b90:	4804      	ldr	r0, [pc, #16]	; (10001ba4 <ultrasonicPulse+0x50>)
10001b92:	f005 fe2d 	bl	100077f0 <__wrap_printf>
10001b96:	1c20      	adds	r0, r4, #0
10001b98:	bdf8      	pop	{r3, r4, r5, r6, r7, pc}
10001b9a:	46c0      	nop			; (mov r8, r8)
10001b9c:	42680000 	.word	0x42680000
10001ba0:	41200000 	.word	0x41200000
10001ba4:	1000ab7c 	.word	0x1000ab7c

10001ba8 <mpu6050_reset>:
10001ba8:	b500      	push	{lr}
10001baa:	b085      	sub	sp, #20
10001bac:	aa03      	add	r2, sp, #12
10001bae:	236b      	movs	r3, #107	; 0x6b
10001bb0:	8013      	strh	r3, [r2, #0]
10001bb2:	4b05      	ldr	r3, [pc, #20]	; (10001bc8 <mpu6050_reset+0x20>)
10001bb4:	6818      	ldr	r0, [r3, #0]
10001bb6:	2300      	movs	r3, #0
10001bb8:	9300      	str	r3, [sp, #0]
10001bba:	3302      	adds	r3, #2
10001bbc:	2168      	movs	r1, #104	; 0x68
10001bbe:	f008 fe8b 	bl	1000a8d8 <i2c_write_blocking>
10001bc2:	b005      	add	sp, #20
10001bc4:	bd00      	pop	{pc}
10001bc6:	46c0      	nop			; (mov r8, r8)
10001bc8:	2000042c 	.word	0x2000042c

10001bcc <mpu6050_read_rawA>:
10001bcc:	b570      	push	{r4, r5, r6, lr}
10001bce:	b086      	sub	sp, #24
10001bd0:	0006      	movs	r6, r0
10001bd2:	220f      	movs	r2, #15
10001bd4:	446a      	add	r2, sp
10001bd6:	233b      	movs	r3, #59	; 0x3b
10001bd8:	7013      	strb	r3, [r2, #0]
10001bda:	4c0f      	ldr	r4, [pc, #60]	; (10001c18 <mpu6050_read_rawA+0x4c>)
10001bdc:	6820      	ldr	r0, [r4, #0]
10001bde:	3b3a      	subs	r3, #58	; 0x3a
10001be0:	9300      	str	r3, [sp, #0]
10001be2:	2168      	movs	r1, #104	; 0x68
10001be4:	f008 fe78 	bl	1000a8d8 <i2c_write_blocking>
10001be8:	6820      	ldr	r0, [r4, #0]
10001bea:	2300      	movs	r3, #0
10001bec:	9300      	str	r3, [sp, #0]
10001bee:	3306      	adds	r3, #6
10001bf0:	aa04      	add	r2, sp, #16
10001bf2:	2168      	movs	r1, #104	; 0x68
10001bf4:	f008 fe7c 	bl	1000a8f0 <i2c_read_blocking>
10001bf8:	2300      	movs	r3, #0
10001bfa:	e008      	b.n	10001c0e <mpu6050_read_rawA+0x42>
10001bfc:	005a      	lsls	r2, r3, #1
10001bfe:	ad04      	add	r5, sp, #16
10001c00:	5cac      	ldrb	r4, [r5, r2]
10001c02:	0224      	lsls	r4, r4, #8
10001c04:	1c51      	adds	r1, r2, #1
10001c06:	5c69      	ldrb	r1, [r5, r1]
10001c08:	4321      	orrs	r1, r4
10001c0a:	52b1      	strh	r1, [r6, r2]
10001c0c:	3301      	adds	r3, #1
10001c0e:	2b02      	cmp	r3, #2
10001c10:	ddf4      	ble.n	10001bfc <mpu6050_read_rawA+0x30>
10001c12:	b006      	add	sp, #24
10001c14:	bd70      	pop	{r4, r5, r6, pc}
10001c16:	46c0      	nop			; (mov r8, r8)
10001c18:	2000042c 	.word	0x2000042c

10001c1c <calcAccAngle>:
10001c1c:	b570      	push	{r4, r5, r6, lr}
10001c1e:	001d      	movs	r5, r3
10001c20:	ab04      	add	r3, sp, #16
10001c22:	2400      	movs	r4, #0
10001c24:	5f1c      	ldrsh	r4, [r3, r4]
10001c26:	1a43      	subs	r3, r0, r1
10001c28:	1b60      	subs	r0, r4, r5
10001c2a:	4358      	muls	r0, r3
10001c2c:	1a51      	subs	r1, r2, r1
10001c2e:	f004 f81b 	bl	10005c68 <__wrap___aeabi_idiv>
10001c32:	1940      	adds	r0, r0, r5
10001c34:	b200      	sxth	r0, r0
10001c36:	bd70      	pop	{r4, r5, r6, pc}

10001c38 <calcTiltAngleX>:
10001c38:	b570      	push	{r4, r5, r6, lr}
10001c3a:	4246      	negs	r6, r0
10001c3c:	4248      	negs	r0, r1
10001c3e:	f004 fb2b 	bl	10006298 <__wrap___aeabi_i2d>
10001c42:	0004      	movs	r4, r0
10001c44:	000d      	movs	r5, r1
10001c46:	0030      	movs	r0, r6
10001c48:	f004 fb26 	bl	10006298 <__wrap___aeabi_i2d>
10001c4c:	0022      	movs	r2, r4
10001c4e:	002b      	movs	r3, r5
10001c50:	f004 fba2 	bl	10006398 <__wrap_atan2>
10001c54:	4a03      	ldr	r2, [pc, #12]	; (10001c64 <calcTiltAngleX+0x2c>)
10001c56:	4b04      	ldr	r3, [pc, #16]	; (10001c68 <calcTiltAngleX+0x30>)
10001c58:	f004 fa86 	bl	10006168 <__wrap___aeabi_dadd>
10001c5c:	f004 fb70 	bl	10006340 <__wrap___aeabi_d2f>
10001c60:	bd70      	pop	{r4, r5, r6, pc}
10001c62:	46c0      	nop			; (mov r8, r8)
10001c64:	53c8d4f1 	.word	0x53c8d4f1
10001c68:	400921fb 	.word	0x400921fb

10001c6c <calcHeight>:
10001c6c:	b510      	push	{r4, lr}
10001c6e:	f005 fb85 	bl	1000737c <__wrap___aeabi_f2d>
10001c72:	f004 fb7b 	bl	1000636c <__wrap_sin>
10001c76:	2200      	movs	r2, #0
10001c78:	4b02      	ldr	r3, [pc, #8]	; (10001c84 <calcHeight+0x18>)
10001c7a:	f004 fa9c 	bl	100061b6 <__wrap___aeabi_dmul>
10001c7e:	f004 fb5f 	bl	10006340 <__wrap___aeabi_d2f>
10001c82:	bd10      	pop	{r4, pc}
10001c84:	40340000 	.word	0x40340000

10001c88 <mpu6050_calibration>:
10001c88:	b5f0      	push	{r4, r5, r6, r7, lr}
10001c8a:	46d6      	mov	lr, sl
10001c8c:	464f      	mov	r7, r9
10001c8e:	4646      	mov	r6, r8
10001c90:	b5c0      	push	{r6, r7, lr}
10001c92:	b084      	sub	sp, #16
10001c94:	2300      	movs	r3, #0
10001c96:	4698      	mov	r8, r3
10001c98:	2500      	movs	r5, #0
10001c9a:	e057      	b.n	10001d4c <mpu6050_calibration+0xc4>
10001c9c:	a802      	add	r0, sp, #8
10001c9e:	f7ff ff95 	bl	10001bcc <mpu6050_read_rawA>
10001ca2:	235a      	movs	r3, #90	; 0x5a
10001ca4:	425b      	negs	r3, r3
10001ca6:	4699      	mov	r9, r3
10001ca8:	27c9      	movs	r7, #201	; 0xc9
10001caa:	007f      	lsls	r7, r7, #1
10001cac:	260a      	movs	r6, #10
10001cae:	36ff      	adds	r6, #255	; 0xff
10001cb0:	466b      	mov	r3, sp
10001cb2:	200a      	movs	r0, #10
10001cb4:	5e18      	ldrsh	r0, [r3, r0]
10001cb6:	235a      	movs	r3, #90	; 0x5a
10001cb8:	469a      	mov	sl, r3
10001cba:	9300      	str	r3, [sp, #0]
10001cbc:	464b      	mov	r3, r9
10001cbe:	003a      	movs	r2, r7
10001cc0:	0031      	movs	r1, r6
10001cc2:	f7ff ffab 	bl	10001c1c <calcAccAngle>
10001cc6:	b204      	sxth	r4, r0
10001cc8:	466b      	mov	r3, sp
10001cca:	200c      	movs	r0, #12
10001ccc:	5e18      	ldrsh	r0, [r3, r0]
10001cce:	4653      	mov	r3, sl
10001cd0:	9300      	str	r3, [sp, #0]
10001cd2:	464b      	mov	r3, r9
10001cd4:	003a      	movs	r2, r7
10001cd6:	0031      	movs	r1, r6
10001cd8:	f7ff ffa0 	bl	10001c1c <calcAccAngle>
10001cdc:	b200      	sxth	r0, r0
10001cde:	4264      	negs	r4, r4
10001ce0:	4240      	negs	r0, r0
10001ce2:	f004 fad9 	bl	10006298 <__wrap___aeabi_i2d>
10001ce6:	0006      	movs	r6, r0
10001ce8:	000f      	movs	r7, r1
10001cea:	0020      	movs	r0, r4
10001cec:	f004 fad4 	bl	10006298 <__wrap___aeabi_i2d>
10001cf0:	0032      	movs	r2, r6
10001cf2:	003b      	movs	r3, r7
10001cf4:	f004 fb50 	bl	10006398 <__wrap_atan2>
10001cf8:	4a1c      	ldr	r2, [pc, #112]	; (10001d6c <mpu6050_calibration+0xe4>)
10001cfa:	4b1d      	ldr	r3, [pc, #116]	; (10001d70 <mpu6050_calibration+0xe8>)
10001cfc:	f004 fa34 	bl	10006168 <__wrap___aeabi_dadd>
10001d00:	f004 fb1e 	bl	10006340 <__wrap___aeabi_d2f>
10001d04:	f005 fb3a 	bl	1000737c <__wrap___aeabi_f2d>
10001d08:	f004 fb30 	bl	1000636c <__wrap_sin>
10001d0c:	2200      	movs	r2, #0
10001d0e:	4b19      	ldr	r3, [pc, #100]	; (10001d74 <mpu6050_calibration+0xec>)
10001d10:	f004 fa51 	bl	100061b6 <__wrap___aeabi_dmul>
10001d14:	0006      	movs	r6, r0
10001d16:	000f      	movs	r7, r1
10001d18:	4640      	mov	r0, r8
10001d1a:	f005 fb2f 	bl	1000737c <__wrap___aeabi_f2d>
10001d1e:	0032      	movs	r2, r6
10001d20:	003b      	movs	r3, r7
10001d22:	f004 fa21 	bl	10006168 <__wrap___aeabi_dadd>
10001d26:	f004 fb0b 	bl	10006340 <__wrap___aeabi_d2f>
10001d2a:	4680      	mov	r8, r0
10001d2c:	0029      	movs	r1, r5
10001d2e:	4812      	ldr	r0, [pc, #72]	; (10001d78 <mpu6050_calibration+0xf0>)
10001d30:	f005 fd5e 	bl	100077f0 <__wrap_printf>
10001d34:	4640      	mov	r0, r8
10001d36:	f005 fb21 	bl	1000737c <__wrap___aeabi_f2d>
10001d3a:	0002      	movs	r2, r0
10001d3c:	000b      	movs	r3, r1
10001d3e:	480f      	ldr	r0, [pc, #60]	; (10001d7c <mpu6050_calibration+0xf4>)
10001d40:	f005 fd56 	bl	100077f0 <__wrap_printf>
10001d44:	3501      	adds	r5, #1
10001d46:	201e      	movs	r0, #30
10001d48:	f001 ff7a 	bl	10003c40 <sleep_ms>
10001d4c:	2396      	movs	r3, #150	; 0x96
10001d4e:	005b      	lsls	r3, r3, #1
10001d50:	429d      	cmp	r5, r3
10001d52:	dba3      	blt.n	10001c9c <mpu6050_calibration+0x14>
10001d54:	490a      	ldr	r1, [pc, #40]	; (10001d80 <mpu6050_calibration+0xf8>)
10001d56:	4640      	mov	r0, r8
10001d58:	f005 fa4d 	bl	100071f6 <__wrap___aeabi_fdiv>
10001d5c:	4b09      	ldr	r3, [pc, #36]	; (10001d84 <mpu6050_calibration+0xfc>)
10001d5e:	6018      	str	r0, [r3, #0]
10001d60:	b004      	add	sp, #16
10001d62:	bce0      	pop	{r5, r6, r7}
10001d64:	46ba      	mov	sl, r7
10001d66:	46b1      	mov	r9, r6
10001d68:	46a8      	mov	r8, r5
10001d6a:	bdf0      	pop	{r4, r5, r6, r7, pc}
10001d6c:	53c8d4f1 	.word	0x53c8d4f1
10001d70:	400921fb 	.word	0x400921fb
10001d74:	40340000 	.word	0x40340000
10001d78:	1000aba4 	.word	0x1000aba4
10001d7c:	1000abb8 	.word	0x1000abb8
10001d80:	43960000 	.word	0x43960000
10001d84:	20001e34 	.word	0x20001e34

10001d88 <getHeight>:
10001d88:	b5f0      	push	{r4, r5, r6, r7, lr}
10001d8a:	46d6      	mov	lr, sl
10001d8c:	464f      	mov	r7, r9
10001d8e:	4646      	mov	r6, r8
10001d90:	b5c0      	push	{r6, r7, lr}
10001d92:	b084      	sub	sp, #16
10001d94:	2300      	movs	r3, #0
10001d96:	4698      	mov	r8, r3
10001d98:	2400      	movs	r4, #0
10001d9a:	e02c      	b.n	10001df6 <getHeight+0x6e>
10001d9c:	a802      	add	r0, sp, #8
10001d9e:	f7ff ff15 	bl	10001bcc <mpu6050_read_rawA>
10001da2:	235a      	movs	r3, #90	; 0x5a
10001da4:	425b      	negs	r3, r3
10001da6:	4699      	mov	r9, r3
10001da8:	25c9      	movs	r5, #201	; 0xc9
10001daa:	006d      	lsls	r5, r5, #1
10001dac:	270a      	movs	r7, #10
10001dae:	37ff      	adds	r7, #255	; 0xff
10001db0:	466b      	mov	r3, sp
10001db2:	200a      	movs	r0, #10
10001db4:	5e18      	ldrsh	r0, [r3, r0]
10001db6:	235a      	movs	r3, #90	; 0x5a
10001db8:	469a      	mov	sl, r3
10001dba:	9300      	str	r3, [sp, #0]
10001dbc:	464b      	mov	r3, r9
10001dbe:	002a      	movs	r2, r5
10001dc0:	0039      	movs	r1, r7
10001dc2:	f7ff ff2b 	bl	10001c1c <calcAccAngle>
10001dc6:	b206      	sxth	r6, r0
10001dc8:	466b      	mov	r3, sp
10001dca:	200c      	movs	r0, #12
10001dcc:	5e18      	ldrsh	r0, [r3, r0]
10001dce:	4653      	mov	r3, sl
10001dd0:	9300      	str	r3, [sp, #0]
10001dd2:	464b      	mov	r3, r9
10001dd4:	002a      	movs	r2, r5
10001dd6:	0039      	movs	r1, r7
10001dd8:	f7ff ff20 	bl	10001c1c <calcAccAngle>
10001ddc:	b201      	sxth	r1, r0
10001dde:	0030      	movs	r0, r6
10001de0:	f7ff ff2a 	bl	10001c38 <calcTiltAngleX>
10001de4:	f7ff ff42 	bl	10001c6c <calcHeight>
10001de8:	1c01      	adds	r1, r0, #0
10001dea:	4640      	mov	r0, r8
10001dec:	f005 f9fe 	bl	100071ec <__wrap___aeabi_fadd>
10001df0:	4680      	mov	r8, r0
10001df2:	3401      	adds	r4, #1
10001df4:	b224      	sxth	r4, r4
10001df6:	2c13      	cmp	r4, #19
10001df8:	ddd0      	ble.n	10001d9c <getHeight+0x14>
10001dfa:	4905      	ldr	r1, [pc, #20]	; (10001e10 <getHeight+0x88>)
10001dfc:	4640      	mov	r0, r8
10001dfe:	f005 f9fa 	bl	100071f6 <__wrap___aeabi_fdiv>
10001e02:	b004      	add	sp, #16
10001e04:	bce0      	pop	{r5, r6, r7}
10001e06:	46ba      	mov	sl, r7
10001e08:	46b1      	mov	r9, r6
10001e0a:	46a8      	mov	r8, r5
10001e0c:	bdf0      	pop	{r4, r5, r6, r7, pc}
10001e0e:	46c0      	nop			; (mov r8, r8)
10001e10:	41a00000 	.word	0x41a00000

10001e14 <init_accel>:
10001e14:	b510      	push	{r4, lr}
10001e16:	4b0e      	ldr	r3, [pc, #56]	; (10001e50 <init_accel+0x3c>)
10001e18:	6818      	ldr	r0, [r3, #0]
10001e1a:	490e      	ldr	r1, [pc, #56]	; (10001e54 <init_accel+0x40>)
10001e1c:	f008 fd30 	bl	1000a880 <i2c_init>
10001e20:	2103      	movs	r1, #3
10001e22:	2002      	movs	r0, #2
10001e24:	f000 fc66 	bl	100026f4 <gpio_set_function>
10001e28:	2103      	movs	r1, #3
10001e2a:	2003      	movs	r0, #3
10001e2c:	f000 fc62 	bl	100026f4 <gpio_set_function>
10001e30:	2200      	movs	r2, #0
10001e32:	2101      	movs	r1, #1
10001e34:	2002      	movs	r0, #2
10001e36:	f000 fc75 	bl	10002724 <gpio_set_pulls>
10001e3a:	2200      	movs	r2, #0
10001e3c:	2101      	movs	r1, #1
10001e3e:	2003      	movs	r0, #3
10001e40:	f000 fc70 	bl	10002724 <gpio_set_pulls>
10001e44:	f7ff feb0 	bl	10001ba8 <mpu6050_reset>
10001e48:	f7ff ff1e 	bl	10001c88 <mpu6050_calibration>
10001e4c:	bd10      	pop	{r4, pc}
10001e4e:	46c0      	nop			; (mov r8, r8)
10001e50:	2000042c 	.word	0x2000042c
10001e54:	00061a80 	.word	0x00061a80

10001e58 <checkBumpISR>:
10001e58:	b570      	push	{r4, r5, r6, lr}
10001e5a:	f7ff ff95 	bl	10001d88 <getHeight>
10001e5e:	4b1a      	ldr	r3, [pc, #104]	; (10001ec8 <checkBumpISR+0x70>)
10001e60:	6819      	ldr	r1, [r3, #0]
10001e62:	f005 f9be 	bl	100071e2 <__wrap___aeabi_fsub>
10001e66:	1c06      	adds	r6, r0, #0
10001e68:	f005 fa88 	bl	1000737c <__wrap___aeabi_f2d>
10001e6c:	0004      	movs	r4, r0
10001e6e:	000d      	movs	r5, r1
10001e70:	4a16      	ldr	r2, [pc, #88]	; (10001ecc <checkBumpISR+0x74>)
10001e72:	4b17      	ldr	r3, [pc, #92]	; (10001ed0 <checkBumpISR+0x78>)
10001e74:	f004 f9f8 	bl	10006268 <__wrap___aeabi_dcmpgt>
10001e78:	2800      	cmp	r0, #0
10001e7a:	d008      	beq.n	10001e8e <checkBumpISR+0x36>
10001e7c:	4b15      	ldr	r3, [pc, #84]	; (10001ed4 <checkBumpISR+0x7c>)
10001e7e:	6818      	ldr	r0, [r3, #0]
10001e80:	1c31      	adds	r1, r6, #0
10001e82:	f005 f9ff 	bl	10007284 <__wrap___aeabi_fcmplt>
10001e86:	2800      	cmp	r0, #0
10001e88:	d001      	beq.n	10001e8e <checkBumpISR+0x36>
10001e8a:	4b12      	ldr	r3, [pc, #72]	; (10001ed4 <checkBumpISR+0x7c>)
10001e8c:	601e      	str	r6, [r3, #0]
10001e8e:	4a0f      	ldr	r2, [pc, #60]	; (10001ecc <checkBumpISR+0x74>)
10001e90:	4b0f      	ldr	r3, [pc, #60]	; (10001ed0 <checkBumpISR+0x78>)
10001e92:	0020      	movs	r0, r4
10001e94:	0029      	movs	r1, r5
10001e96:	f004 f9d1 	bl	1000623c <__wrap___aeabi_dcmplt>
10001e9a:	2800      	cmp	r0, #0
10001e9c:	d007      	beq.n	10001eae <checkBumpISR+0x56>
10001e9e:	4b0d      	ldr	r3, [pc, #52]	; (10001ed4 <checkBumpISR+0x7c>)
10001ea0:	681c      	ldr	r4, [r3, #0]
10001ea2:	2100      	movs	r1, #0
10001ea4:	1c20      	adds	r0, r4, #0
10001ea6:	f005 f9f3 	bl	10007290 <__wrap___aeabi_fcmpgt>
10001eaa:	2800      	cmp	r0, #0
10001eac:	d101      	bne.n	10001eb2 <checkBumpISR+0x5a>
10001eae:	2001      	movs	r0, #1
10001eb0:	bd70      	pop	{r4, r5, r6, pc}
10001eb2:	1c21      	adds	r1, r4, #0
10001eb4:	2063      	movs	r0, #99	; 0x63
10001eb6:	f7ff fa75 	bl	100013a4 <uart_send_float>
10001eba:	4b06      	ldr	r3, [pc, #24]	; (10001ed4 <checkBumpISR+0x7c>)
10001ebc:	2200      	movs	r2, #0
10001ebe:	601a      	str	r2, [r3, #0]
10001ec0:	4b05      	ldr	r3, [pc, #20]	; (10001ed8 <checkBumpISR+0x80>)
10001ec2:	2200      	movs	r2, #0
10001ec4:	701a      	strb	r2, [r3, #0]
10001ec6:	e7f2      	b.n	10001eae <checkBumpISR+0x56>
10001ec8:	20001e34 	.word	0x20001e34
10001ecc:	66666666 	.word	0x66666666
10001ed0:	3fe66666 	.word	0x3fe66666
10001ed4:	200016e4 	.word	0x200016e4
10001ed8:	20002149 	.word	0x20002149

10001edc <init_barcode>:
10001edc:	b510      	push	{r4, lr}
10001ede:	f008 fd13 	bl	1000a908 <adc_init>
10001ee2:	211f      	movs	r1, #31
10001ee4:	201a      	movs	r0, #26
10001ee6:	f000 fc05 	bl	100026f4 <gpio_set_function>
10001eea:	2200      	movs	r2, #0
10001eec:	2100      	movs	r1, #0
10001eee:	201a      	movs	r0, #26
10001ef0:	f000 fc18 	bl	10002724 <gpio_set_pulls>
10001ef4:	2100      	movs	r1, #0
10001ef6:	201a      	movs	r0, #26
10001ef8:	f000 fce4 	bl	100028c4 <gpio_set_input_enabled>
10001efc:	4b03      	ldr	r3, [pc, #12]	; (10001f0c <init_barcode+0x30>)
10001efe:	681b      	ldr	r3, [r3, #0]
10001f00:	22e0      	movs	r2, #224	; 0xe0
10001f02:	01d2      	lsls	r2, r2, #7
10001f04:	4013      	ands	r3, r2
10001f06:	4a02      	ldr	r2, [pc, #8]	; (10001f10 <init_barcode+0x34>)
10001f08:	6013      	str	r3, [r2, #0]
10001f0a:	bd10      	pop	{r4, pc}
10001f0c:	4004c000 	.word	0x4004c000
10001f10:	4004d000 	.word	0x4004d000

10001f14 <combineArray>:
10001f14:	b570      	push	{r4, r5, r6, lr}
10001f16:	2500      	movs	r5, #0
10001f18:	2400      	movs	r4, #0
10001f1a:	2300      	movs	r3, #0
10001f1c:	e003      	b.n	10001f26 <combineArray+0x12>
10001f1e:	5d0e      	ldrb	r6, [r1, r4]
10001f20:	54d6      	strb	r6, [r2, r3]
10001f22:	3401      	adds	r4, #1
10001f24:	3301      	adds	r3, #1
10001f26:	2b1d      	cmp	r3, #29
10001f28:	dc05      	bgt.n	10001f36 <combineArray+0x22>
10001f2a:	07de      	lsls	r6, r3, #31
10001f2c:	d4f7      	bmi.n	10001f1e <combineArray+0xa>
10001f2e:	5d46      	ldrb	r6, [r0, r5]
10001f30:	54d6      	strb	r6, [r2, r3]
10001f32:	3501      	adds	r5, #1
10001f34:	e7f6      	b.n	10001f24 <combineArray+0x10>
10001f36:	bd70      	pop	{r4, r5, r6, pc}

10001f38 <decipherBarcode>:
10001f38:	b510      	push	{r4, lr}
10001f3a:	230a      	movs	r3, #10
10001f3c:	e009      	b.n	10001f52 <decipherBarcode+0x1a>
10001f3e:	1e5a      	subs	r2, r3, #1
10001f40:	5cc4      	ldrb	r4, [r0, r3]
10001f42:	490c      	ldr	r1, [pc, #48]	; (10001f74 <decipherBarcode+0x3c>)
10001f44:	548c      	strb	r4, [r1, r2]
10001f46:	e003      	b.n	10001f50 <decipherBarcode+0x18>
10001f48:	001a      	movs	r2, r3
10001f4a:	3a15      	subs	r2, #21
10001f4c:	2a08      	cmp	r2, #8
10001f4e:	d90c      	bls.n	10001f6a <decipherBarcode+0x32>
10001f50:	3301      	adds	r3, #1
10001f52:	2b13      	cmp	r3, #19
10001f54:	dc0d      	bgt.n	10001f72 <decipherBarcode+0x3a>
10001f56:	2b09      	cmp	r3, #9
10001f58:	ddf1      	ble.n	10001f3e <decipherBarcode+0x6>
10001f5a:	001a      	movs	r2, r3
10001f5c:	3a0a      	subs	r2, #10
10001f5e:	2a08      	cmp	r2, #8
10001f60:	d8f2      	bhi.n	10001f48 <decipherBarcode+0x10>
10001f62:	5cc4      	ldrb	r4, [r0, r3]
10001f64:	4904      	ldr	r1, [pc, #16]	; (10001f78 <decipherBarcode+0x40>)
10001f66:	548c      	strb	r4, [r1, r2]
10001f68:	e7f2      	b.n	10001f50 <decipherBarcode+0x18>
10001f6a:	5cc4      	ldrb	r4, [r0, r3]
10001f6c:	4903      	ldr	r1, [pc, #12]	; (10001f7c <decipherBarcode+0x44>)
10001f6e:	548c      	strb	r4, [r1, r2]
10001f70:	e7ee      	b.n	10001f50 <decipherBarcode+0x18>
10001f72:	bd10      	pop	{r4, pc}
10001f74:	20002078 	.word	0x20002078
10001f78:	20000b04 	.word	0x20000b04
10001f7c:	20000dc0 	.word	0x20000dc0

10001f80 <printArray>:
10001f80:	b570      	push	{r4, r5, r6, lr}
10001f82:	0006      	movs	r6, r0
10001f84:	000d      	movs	r5, r1
10001f86:	4807      	ldr	r0, [pc, #28]	; (10001fa4 <printArray+0x24>)
10001f88:	f005 fc32 	bl	100077f0 <__wrap_printf>
10001f8c:	2400      	movs	r4, #0
10001f8e:	e005      	b.n	10001f9c <printArray+0x1c>
10001f90:	5d32      	ldrb	r2, [r6, r4]
10001f92:	0021      	movs	r1, r4
10001f94:	4804      	ldr	r0, [pc, #16]	; (10001fa8 <printArray+0x28>)
10001f96:	f005 fc2b 	bl	100077f0 <__wrap_printf>
10001f9a:	3401      	adds	r4, #1
10001f9c:	42ac      	cmp	r4, r5
10001f9e:	dbf7      	blt.n	10001f90 <printArray+0x10>
10001fa0:	bd70      	pop	{r4, r5, r6, pc}
10001fa2:	46c0      	nop			; (mov r8, r8)
10001fa4:	1000abd0 	.word	0x1000abd0
10001fa8:	1000abe4 	.word	0x1000abe4

10001fac <compareArray>:
10001fac:	b530      	push	{r4, r5, lr}
10001fae:	2300      	movs	r3, #0
10001fb0:	e000      	b.n	10001fb4 <compareArray+0x8>
10001fb2:	3301      	adds	r3, #1
10001fb4:	4293      	cmp	r3, r2
10001fb6:	da05      	bge.n	10001fc4 <compareArray+0x18>
10001fb8:	5cc5      	ldrb	r5, [r0, r3]
10001fba:	5ccc      	ldrb	r4, [r1, r3]
10001fbc:	42a5      	cmp	r5, r4
10001fbe:	d0f8      	beq.n	10001fb2 <compareArray+0x6>
10001fc0:	2001      	movs	r0, #1
10001fc2:	e000      	b.n	10001fc6 <compareArray+0x1a>
10001fc4:	2000      	movs	r0, #0
10001fc6:	bd30      	pop	{r4, r5, pc}

10001fc8 <decodeBarcode>:
10001fc8:	b530      	push	{r4, r5, lr}
10001fca:	b0d3      	sub	sp, #332	; 0x14c
10001fcc:	a84f      	add	r0, sp, #316	; 0x13c
10001fce:	4bdf      	ldr	r3, [pc, #892]	; (1000234c <decodeBarcode+0x384>)
10001fd0:	0002      	movs	r2, r0
10001fd2:	0019      	movs	r1, r3
10001fd4:	c930      	ldmia	r1!, {r4, r5}
10001fd6:	c230      	stmia	r2!, {r4, r5}
10001fd8:	7809      	ldrb	r1, [r1, #0]
10001fda:	7011      	strb	r1, [r2, #0]
10001fdc:	a94c      	add	r1, sp, #304	; 0x130
10001fde:	001a      	movs	r2, r3
10001fe0:	320c      	adds	r2, #12
10001fe2:	ca30      	ldmia	r2!, {r4, r5}
10001fe4:	c130      	stmia	r1!, {r4, r5}
10001fe6:	7812      	ldrb	r2, [r2, #0]
10001fe8:	700a      	strb	r2, [r1, #0]
10001fea:	a949      	add	r1, sp, #292	; 0x124
10001fec:	001a      	movs	r2, r3
10001fee:	3218      	adds	r2, #24
10001ff0:	ca30      	ldmia	r2!, {r4, r5}
10001ff2:	c130      	stmia	r1!, {r4, r5}
10001ff4:	7812      	ldrb	r2, [r2, #0]
10001ff6:	700a      	strb	r2, [r1, #0]
10001ff8:	a946      	add	r1, sp, #280	; 0x118
10001ffa:	001a      	movs	r2, r3
10001ffc:	3224      	adds	r2, #36	; 0x24
10001ffe:	ca30      	ldmia	r2!, {r4, r5}
10002000:	c130      	stmia	r1!, {r4, r5}
10002002:	7812      	ldrb	r2, [r2, #0]
10002004:	700a      	strb	r2, [r1, #0]
10002006:	a943      	add	r1, sp, #268	; 0x10c
10002008:	001a      	movs	r2, r3
1000200a:	3230      	adds	r2, #48	; 0x30
1000200c:	ca30      	ldmia	r2!, {r4, r5}
1000200e:	c130      	stmia	r1!, {r4, r5}
10002010:	7812      	ldrb	r2, [r2, #0]
10002012:	700a      	strb	r2, [r1, #0]
10002014:	a940      	add	r1, sp, #256	; 0x100
10002016:	001a      	movs	r2, r3
10002018:	323c      	adds	r2, #60	; 0x3c
1000201a:	ca30      	ldmia	r2!, {r4, r5}
1000201c:	c130      	stmia	r1!, {r4, r5}
1000201e:	7812      	ldrb	r2, [r2, #0]
10002020:	700a      	strb	r2, [r1, #0]
10002022:	a93d      	add	r1, sp, #244	; 0xf4
10002024:	001a      	movs	r2, r3
10002026:	3248      	adds	r2, #72	; 0x48
10002028:	ca30      	ldmia	r2!, {r4, r5}
1000202a:	c130      	stmia	r1!, {r4, r5}
1000202c:	7812      	ldrb	r2, [r2, #0]
1000202e:	700a      	strb	r2, [r1, #0]
10002030:	a93a      	add	r1, sp, #232	; 0xe8
10002032:	001a      	movs	r2, r3
10002034:	3254      	adds	r2, #84	; 0x54
10002036:	ca30      	ldmia	r2!, {r4, r5}
10002038:	c130      	stmia	r1!, {r4, r5}
1000203a:	7812      	ldrb	r2, [r2, #0]
1000203c:	700a      	strb	r2, [r1, #0]
1000203e:	a937      	add	r1, sp, #220	; 0xdc
10002040:	001a      	movs	r2, r3
10002042:	3260      	adds	r2, #96	; 0x60
10002044:	ca30      	ldmia	r2!, {r4, r5}
10002046:	c130      	stmia	r1!, {r4, r5}
10002048:	7812      	ldrb	r2, [r2, #0]
1000204a:	700a      	strb	r2, [r1, #0]
1000204c:	a934      	add	r1, sp, #208	; 0xd0
1000204e:	001a      	movs	r2, r3
10002050:	326c      	adds	r2, #108	; 0x6c
10002052:	ca30      	ldmia	r2!, {r4, r5}
10002054:	c130      	stmia	r1!, {r4, r5}
10002056:	7812      	ldrb	r2, [r2, #0]
10002058:	700a      	strb	r2, [r1, #0]
1000205a:	aa31      	add	r2, sp, #196	; 0xc4
1000205c:	3378      	adds	r3, #120	; 0x78
1000205e:	cb12      	ldmia	r3!, {r1, r4}
10002060:	c212      	stmia	r2!, {r1, r4}
10002062:	781b      	ldrb	r3, [r3, #0]
10002064:	7013      	strb	r3, [r2, #0]
10002066:	a92e      	add	r1, sp, #184	; 0xb8
10002068:	4bb9      	ldr	r3, [pc, #740]	; (10002350 <decodeBarcode+0x388>)
1000206a:	1d1a      	adds	r2, r3, #4
1000206c:	ca30      	ldmia	r2!, {r4, r5}
1000206e:	c130      	stmia	r1!, {r4, r5}
10002070:	7812      	ldrb	r2, [r2, #0]
10002072:	700a      	strb	r2, [r1, #0]
10002074:	a92b      	add	r1, sp, #172	; 0xac
10002076:	001a      	movs	r2, r3
10002078:	3210      	adds	r2, #16
1000207a:	ca30      	ldmia	r2!, {r4, r5}
1000207c:	c130      	stmia	r1!, {r4, r5}
1000207e:	7812      	ldrb	r2, [r2, #0]
10002080:	700a      	strb	r2, [r1, #0]
10002082:	a928      	add	r1, sp, #160	; 0xa0
10002084:	001a      	movs	r2, r3
10002086:	321c      	adds	r2, #28
10002088:	ca30      	ldmia	r2!, {r4, r5}
1000208a:	c130      	stmia	r1!, {r4, r5}
1000208c:	7812      	ldrb	r2, [r2, #0]
1000208e:	700a      	strb	r2, [r1, #0]
10002090:	a925      	add	r1, sp, #148	; 0x94
10002092:	001a      	movs	r2, r3
10002094:	3228      	adds	r2, #40	; 0x28
10002096:	ca30      	ldmia	r2!, {r4, r5}
10002098:	c130      	stmia	r1!, {r4, r5}
1000209a:	7812      	ldrb	r2, [r2, #0]
1000209c:	700a      	strb	r2, [r1, #0]
1000209e:	a922      	add	r1, sp, #136	; 0x88
100020a0:	001a      	movs	r2, r3
100020a2:	3234      	adds	r2, #52	; 0x34
100020a4:	ca30      	ldmia	r2!, {r4, r5}
100020a6:	c130      	stmia	r1!, {r4, r5}
100020a8:	7812      	ldrb	r2, [r2, #0]
100020aa:	700a      	strb	r2, [r1, #0]
100020ac:	a91f      	add	r1, sp, #124	; 0x7c
100020ae:	001a      	movs	r2, r3
100020b0:	3240      	adds	r2, #64	; 0x40
100020b2:	ca30      	ldmia	r2!, {r4, r5}
100020b4:	c130      	stmia	r1!, {r4, r5}
100020b6:	7812      	ldrb	r2, [r2, #0]
100020b8:	700a      	strb	r2, [r1, #0]
100020ba:	a91c      	add	r1, sp, #112	; 0x70
100020bc:	001a      	movs	r2, r3
100020be:	324c      	adds	r2, #76	; 0x4c
100020c0:	ca30      	ldmia	r2!, {r4, r5}
100020c2:	c130      	stmia	r1!, {r4, r5}
100020c4:	7812      	ldrb	r2, [r2, #0]
100020c6:	700a      	strb	r2, [r1, #0]
100020c8:	a919      	add	r1, sp, #100	; 0x64
100020ca:	001a      	movs	r2, r3
100020cc:	3258      	adds	r2, #88	; 0x58
100020ce:	ca30      	ldmia	r2!, {r4, r5}
100020d0:	c130      	stmia	r1!, {r4, r5}
100020d2:	7812      	ldrb	r2, [r2, #0]
100020d4:	700a      	strb	r2, [r1, #0]
100020d6:	a916      	add	r1, sp, #88	; 0x58
100020d8:	001a      	movs	r2, r3
100020da:	3264      	adds	r2, #100	; 0x64
100020dc:	ca30      	ldmia	r2!, {r4, r5}
100020de:	c130      	stmia	r1!, {r4, r5}
100020e0:	7812      	ldrb	r2, [r2, #0]
100020e2:	700a      	strb	r2, [r1, #0]
100020e4:	a913      	add	r1, sp, #76	; 0x4c
100020e6:	001a      	movs	r2, r3
100020e8:	3270      	adds	r2, #112	; 0x70
100020ea:	ca30      	ldmia	r2!, {r4, r5}
100020ec:	c130      	stmia	r1!, {r4, r5}
100020ee:	7812      	ldrb	r2, [r2, #0]
100020f0:	700a      	strb	r2, [r1, #0]
100020f2:	aa10      	add	r2, sp, #64	; 0x40
100020f4:	337c      	adds	r3, #124	; 0x7c
100020f6:	cb12      	ldmia	r3!, {r1, r4}
100020f8:	c212      	stmia	r2!, {r1, r4}
100020fa:	781b      	ldrb	r3, [r3, #0]
100020fc:	7013      	strb	r3, [r2, #0]
100020fe:	a90d      	add	r1, sp, #52	; 0x34
10002100:	4b94      	ldr	r3, [pc, #592]	; (10002354 <decodeBarcode+0x38c>)
10002102:	001a      	movs	r2, r3
10002104:	3208      	adds	r2, #8
10002106:	ca30      	ldmia	r2!, {r4, r5}
10002108:	c130      	stmia	r1!, {r4, r5}
1000210a:	7812      	ldrb	r2, [r2, #0]
1000210c:	700a      	strb	r2, [r1, #0]
1000210e:	a90a      	add	r1, sp, #40	; 0x28
10002110:	001a      	movs	r2, r3
10002112:	3214      	adds	r2, #20
10002114:	ca30      	ldmia	r2!, {r4, r5}
10002116:	c130      	stmia	r1!, {r4, r5}
10002118:	7812      	ldrb	r2, [r2, #0]
1000211a:	700a      	strb	r2, [r1, #0]
1000211c:	a907      	add	r1, sp, #28
1000211e:	001a      	movs	r2, r3
10002120:	3220      	adds	r2, #32
10002122:	ca30      	ldmia	r2!, {r4, r5}
10002124:	c130      	stmia	r1!, {r4, r5}
10002126:	7812      	ldrb	r2, [r2, #0]
10002128:	700a      	strb	r2, [r1, #0]
1000212a:	a904      	add	r1, sp, #16
1000212c:	001a      	movs	r2, r3
1000212e:	322c      	adds	r2, #44	; 0x2c
10002130:	ca30      	ldmia	r2!, {r4, r5}
10002132:	c130      	stmia	r1!, {r4, r5}
10002134:	7812      	ldrb	r2, [r2, #0]
10002136:	700a      	strb	r2, [r1, #0]
10002138:	aa01      	add	r2, sp, #4
1000213a:	3338      	adds	r3, #56	; 0x38
1000213c:	cb12      	ldmia	r3!, {r1, r4}
1000213e:	c212      	stmia	r2!, {r1, r4}
10002140:	781b      	ldrb	r3, [r3, #0]
10002142:	7013      	strb	r3, [r2, #0]
10002144:	2209      	movs	r2, #9
10002146:	4984      	ldr	r1, [pc, #528]	; (10002358 <decodeBarcode+0x390>)
10002148:	f7ff ff30 	bl	10001fac <compareArray>
1000214c:	2800      	cmp	r0, #0
1000214e:	d100      	bne.n	10002152 <decodeBarcode+0x18a>
10002150:	e0d3      	b.n	100022fa <decodeBarcode+0x332>
10002152:	2209      	movs	r2, #9
10002154:	4980      	ldr	r1, [pc, #512]	; (10002358 <decodeBarcode+0x390>)
10002156:	a84c      	add	r0, sp, #304	; 0x130
10002158:	f7ff ff28 	bl	10001fac <compareArray>
1000215c:	2800      	cmp	r0, #0
1000215e:	d100      	bne.n	10002162 <decodeBarcode+0x19a>
10002160:	e0d0      	b.n	10002304 <decodeBarcode+0x33c>
10002162:	2209      	movs	r2, #9
10002164:	497c      	ldr	r1, [pc, #496]	; (10002358 <decodeBarcode+0x390>)
10002166:	a849      	add	r0, sp, #292	; 0x124
10002168:	f7ff ff20 	bl	10001fac <compareArray>
1000216c:	2800      	cmp	r0, #0
1000216e:	d100      	bne.n	10002172 <decodeBarcode+0x1aa>
10002170:	e0cc      	b.n	1000230c <decodeBarcode+0x344>
10002172:	2209      	movs	r2, #9
10002174:	4978      	ldr	r1, [pc, #480]	; (10002358 <decodeBarcode+0x390>)
10002176:	a846      	add	r0, sp, #280	; 0x118
10002178:	f7ff ff18 	bl	10001fac <compareArray>
1000217c:	2800      	cmp	r0, #0
1000217e:	d100      	bne.n	10002182 <decodeBarcode+0x1ba>
10002180:	e0c8      	b.n	10002314 <decodeBarcode+0x34c>
10002182:	2209      	movs	r2, #9
10002184:	4974      	ldr	r1, [pc, #464]	; (10002358 <decodeBarcode+0x390>)
10002186:	a843      	add	r0, sp, #268	; 0x10c
10002188:	f7ff ff10 	bl	10001fac <compareArray>
1000218c:	2800      	cmp	r0, #0
1000218e:	d100      	bne.n	10002192 <decodeBarcode+0x1ca>
10002190:	e0c4      	b.n	1000231c <decodeBarcode+0x354>
10002192:	2209      	movs	r2, #9
10002194:	4970      	ldr	r1, [pc, #448]	; (10002358 <decodeBarcode+0x390>)
10002196:	a840      	add	r0, sp, #256	; 0x100
10002198:	f7ff ff08 	bl	10001fac <compareArray>
1000219c:	2800      	cmp	r0, #0
1000219e:	d100      	bne.n	100021a2 <decodeBarcode+0x1da>
100021a0:	e0c0      	b.n	10002324 <decodeBarcode+0x35c>
100021a2:	2209      	movs	r2, #9
100021a4:	496c      	ldr	r1, [pc, #432]	; (10002358 <decodeBarcode+0x390>)
100021a6:	a83d      	add	r0, sp, #244	; 0xf4
100021a8:	f7ff ff00 	bl	10001fac <compareArray>
100021ac:	2800      	cmp	r0, #0
100021ae:	d100      	bne.n	100021b2 <decodeBarcode+0x1ea>
100021b0:	e0bc      	b.n	1000232c <decodeBarcode+0x364>
100021b2:	2209      	movs	r2, #9
100021b4:	4968      	ldr	r1, [pc, #416]	; (10002358 <decodeBarcode+0x390>)
100021b6:	a83a      	add	r0, sp, #232	; 0xe8
100021b8:	f7ff fef8 	bl	10001fac <compareArray>
100021bc:	2800      	cmp	r0, #0
100021be:	d100      	bne.n	100021c2 <decodeBarcode+0x1fa>
100021c0:	e0b8      	b.n	10002334 <decodeBarcode+0x36c>
100021c2:	2209      	movs	r2, #9
100021c4:	4964      	ldr	r1, [pc, #400]	; (10002358 <decodeBarcode+0x390>)
100021c6:	a837      	add	r0, sp, #220	; 0xdc
100021c8:	f7ff fef0 	bl	10001fac <compareArray>
100021cc:	2800      	cmp	r0, #0
100021ce:	d100      	bne.n	100021d2 <decodeBarcode+0x20a>
100021d0:	e0b4      	b.n	1000233c <decodeBarcode+0x374>
100021d2:	2209      	movs	r2, #9
100021d4:	4960      	ldr	r1, [pc, #384]	; (10002358 <decodeBarcode+0x390>)
100021d6:	a834      	add	r0, sp, #208	; 0xd0
100021d8:	f7ff fee8 	bl	10001fac <compareArray>
100021dc:	2800      	cmp	r0, #0
100021de:	d100      	bne.n	100021e2 <decodeBarcode+0x21a>
100021e0:	e0b0      	b.n	10002344 <decodeBarcode+0x37c>
100021e2:	2209      	movs	r2, #9
100021e4:	495c      	ldr	r1, [pc, #368]	; (10002358 <decodeBarcode+0x390>)
100021e6:	a831      	add	r0, sp, #196	; 0xc4
100021e8:	f7ff fee0 	bl	10001fac <compareArray>
100021ec:	2800      	cmp	r0, #0
100021ee:	d100      	bne.n	100021f2 <decodeBarcode+0x22a>
100021f0:	e0ca      	b.n	10002388 <decodeBarcode+0x3c0>
100021f2:	2209      	movs	r2, #9
100021f4:	4958      	ldr	r1, [pc, #352]	; (10002358 <decodeBarcode+0x390>)
100021f6:	a82e      	add	r0, sp, #184	; 0xb8
100021f8:	f7ff fed8 	bl	10001fac <compareArray>
100021fc:	2800      	cmp	r0, #0
100021fe:	d100      	bne.n	10002202 <decodeBarcode+0x23a>
10002200:	e0c6      	b.n	10002390 <decodeBarcode+0x3c8>
10002202:	2209      	movs	r2, #9
10002204:	4954      	ldr	r1, [pc, #336]	; (10002358 <decodeBarcode+0x390>)
10002206:	a82b      	add	r0, sp, #172	; 0xac
10002208:	f7ff fed0 	bl	10001fac <compareArray>
1000220c:	2800      	cmp	r0, #0
1000220e:	d100      	bne.n	10002212 <decodeBarcode+0x24a>
10002210:	e0c2      	b.n	10002398 <decodeBarcode+0x3d0>
10002212:	2209      	movs	r2, #9
10002214:	4950      	ldr	r1, [pc, #320]	; (10002358 <decodeBarcode+0x390>)
10002216:	a828      	add	r0, sp, #160	; 0xa0
10002218:	f7ff fec8 	bl	10001fac <compareArray>
1000221c:	2800      	cmp	r0, #0
1000221e:	d100      	bne.n	10002222 <decodeBarcode+0x25a>
10002220:	e0be      	b.n	100023a0 <decodeBarcode+0x3d8>
10002222:	2209      	movs	r2, #9
10002224:	494c      	ldr	r1, [pc, #304]	; (10002358 <decodeBarcode+0x390>)
10002226:	a825      	add	r0, sp, #148	; 0x94
10002228:	f7ff fec0 	bl	10001fac <compareArray>
1000222c:	2800      	cmp	r0, #0
1000222e:	d100      	bne.n	10002232 <decodeBarcode+0x26a>
10002230:	e0ba      	b.n	100023a8 <decodeBarcode+0x3e0>
10002232:	2209      	movs	r2, #9
10002234:	4948      	ldr	r1, [pc, #288]	; (10002358 <decodeBarcode+0x390>)
10002236:	a822      	add	r0, sp, #136	; 0x88
10002238:	f7ff feb8 	bl	10001fac <compareArray>
1000223c:	2800      	cmp	r0, #0
1000223e:	d100      	bne.n	10002242 <decodeBarcode+0x27a>
10002240:	e0b6      	b.n	100023b0 <decodeBarcode+0x3e8>
10002242:	2209      	movs	r2, #9
10002244:	4944      	ldr	r1, [pc, #272]	; (10002358 <decodeBarcode+0x390>)
10002246:	a81f      	add	r0, sp, #124	; 0x7c
10002248:	f7ff feb0 	bl	10001fac <compareArray>
1000224c:	2800      	cmp	r0, #0
1000224e:	d100      	bne.n	10002252 <decodeBarcode+0x28a>
10002250:	e0b2      	b.n	100023b8 <decodeBarcode+0x3f0>
10002252:	2209      	movs	r2, #9
10002254:	4940      	ldr	r1, [pc, #256]	; (10002358 <decodeBarcode+0x390>)
10002256:	a81c      	add	r0, sp, #112	; 0x70
10002258:	f7ff fea8 	bl	10001fac <compareArray>
1000225c:	2800      	cmp	r0, #0
1000225e:	d100      	bne.n	10002262 <decodeBarcode+0x29a>
10002260:	e0ae      	b.n	100023c0 <decodeBarcode+0x3f8>
10002262:	2209      	movs	r2, #9
10002264:	493c      	ldr	r1, [pc, #240]	; (10002358 <decodeBarcode+0x390>)
10002266:	a819      	add	r0, sp, #100	; 0x64
10002268:	f7ff fea0 	bl	10001fac <compareArray>
1000226c:	2800      	cmp	r0, #0
1000226e:	d100      	bne.n	10002272 <decodeBarcode+0x2aa>
10002270:	e0aa      	b.n	100023c8 <decodeBarcode+0x400>
10002272:	2209      	movs	r2, #9
10002274:	4938      	ldr	r1, [pc, #224]	; (10002358 <decodeBarcode+0x390>)
10002276:	a816      	add	r0, sp, #88	; 0x58
10002278:	f7ff fe98 	bl	10001fac <compareArray>
1000227c:	2800      	cmp	r0, #0
1000227e:	d100      	bne.n	10002282 <decodeBarcode+0x2ba>
10002280:	e0a6      	b.n	100023d0 <decodeBarcode+0x408>
10002282:	2209      	movs	r2, #9
10002284:	4934      	ldr	r1, [pc, #208]	; (10002358 <decodeBarcode+0x390>)
10002286:	a813      	add	r0, sp, #76	; 0x4c
10002288:	f7ff fe90 	bl	10001fac <compareArray>
1000228c:	2800      	cmp	r0, #0
1000228e:	d100      	bne.n	10002292 <decodeBarcode+0x2ca>
10002290:	e0a2      	b.n	100023d8 <decodeBarcode+0x410>
10002292:	2209      	movs	r2, #9
10002294:	4930      	ldr	r1, [pc, #192]	; (10002358 <decodeBarcode+0x390>)
10002296:	a810      	add	r0, sp, #64	; 0x40
10002298:	f7ff fe88 	bl	10001fac <compareArray>
1000229c:	2800      	cmp	r0, #0
1000229e:	d100      	bne.n	100022a2 <decodeBarcode+0x2da>
100022a0:	e09e      	b.n	100023e0 <decodeBarcode+0x418>
100022a2:	2209      	movs	r2, #9
100022a4:	492c      	ldr	r1, [pc, #176]	; (10002358 <decodeBarcode+0x390>)
100022a6:	a80d      	add	r0, sp, #52	; 0x34
100022a8:	f7ff fe80 	bl	10001fac <compareArray>
100022ac:	2800      	cmp	r0, #0
100022ae:	d100      	bne.n	100022b2 <decodeBarcode+0x2ea>
100022b0:	e09a      	b.n	100023e8 <decodeBarcode+0x420>
100022b2:	2209      	movs	r2, #9
100022b4:	4928      	ldr	r1, [pc, #160]	; (10002358 <decodeBarcode+0x390>)
100022b6:	a80a      	add	r0, sp, #40	; 0x28
100022b8:	f7ff fe78 	bl	10001fac <compareArray>
100022bc:	2800      	cmp	r0, #0
100022be:	d100      	bne.n	100022c2 <decodeBarcode+0x2fa>
100022c0:	e096      	b.n	100023f0 <decodeBarcode+0x428>
100022c2:	2209      	movs	r2, #9
100022c4:	4924      	ldr	r1, [pc, #144]	; (10002358 <decodeBarcode+0x390>)
100022c6:	a807      	add	r0, sp, #28
100022c8:	f7ff fe70 	bl	10001fac <compareArray>
100022cc:	2800      	cmp	r0, #0
100022ce:	d100      	bne.n	100022d2 <decodeBarcode+0x30a>
100022d0:	e092      	b.n	100023f8 <decodeBarcode+0x430>
100022d2:	2209      	movs	r2, #9
100022d4:	4920      	ldr	r1, [pc, #128]	; (10002358 <decodeBarcode+0x390>)
100022d6:	a804      	add	r0, sp, #16
100022d8:	f7ff fe68 	bl	10001fac <compareArray>
100022dc:	2800      	cmp	r0, #0
100022de:	d100      	bne.n	100022e2 <decodeBarcode+0x31a>
100022e0:	e08e      	b.n	10002400 <decodeBarcode+0x438>
100022e2:	2209      	movs	r2, #9
100022e4:	491c      	ldr	r1, [pc, #112]	; (10002358 <decodeBarcode+0x390>)
100022e6:	a801      	add	r0, sp, #4
100022e8:	f7ff fe60 	bl	10001fac <compareArray>
100022ec:	2800      	cmp	r0, #0
100022ee:	d000      	beq.n	100022f2 <decodeBarcode+0x32a>
100022f0:	e08a      	b.n	10002408 <decodeBarcode+0x440>
100022f2:	481a      	ldr	r0, [pc, #104]	; (1000235c <decodeBarcode+0x394>)
100022f4:	f005 fa4a 	bl	1000778c <__wrap_puts>
100022f8:	e002      	b.n	10002300 <decodeBarcode+0x338>
100022fa:	4819      	ldr	r0, [pc, #100]	; (10002360 <decodeBarcode+0x398>)
100022fc:	f005 fa46 	bl	1000778c <__wrap_puts>
10002300:	b053      	add	sp, #332	; 0x14c
10002302:	bd30      	pop	{r4, r5, pc}
10002304:	4817      	ldr	r0, [pc, #92]	; (10002364 <decodeBarcode+0x39c>)
10002306:	f005 fa41 	bl	1000778c <__wrap_puts>
1000230a:	e7f9      	b.n	10002300 <decodeBarcode+0x338>
1000230c:	4816      	ldr	r0, [pc, #88]	; (10002368 <decodeBarcode+0x3a0>)
1000230e:	f005 fa3d 	bl	1000778c <__wrap_puts>
10002312:	e7f5      	b.n	10002300 <decodeBarcode+0x338>
10002314:	4815      	ldr	r0, [pc, #84]	; (1000236c <decodeBarcode+0x3a4>)
10002316:	f005 fa39 	bl	1000778c <__wrap_puts>
1000231a:	e7f1      	b.n	10002300 <decodeBarcode+0x338>
1000231c:	4814      	ldr	r0, [pc, #80]	; (10002370 <decodeBarcode+0x3a8>)
1000231e:	f005 fa35 	bl	1000778c <__wrap_puts>
10002322:	e7ed      	b.n	10002300 <decodeBarcode+0x338>
10002324:	4813      	ldr	r0, [pc, #76]	; (10002374 <decodeBarcode+0x3ac>)
10002326:	f005 fa31 	bl	1000778c <__wrap_puts>
1000232a:	e7e9      	b.n	10002300 <decodeBarcode+0x338>
1000232c:	4812      	ldr	r0, [pc, #72]	; (10002378 <decodeBarcode+0x3b0>)
1000232e:	f005 fa2d 	bl	1000778c <__wrap_puts>
10002332:	e7e5      	b.n	10002300 <decodeBarcode+0x338>
10002334:	4811      	ldr	r0, [pc, #68]	; (1000237c <decodeBarcode+0x3b4>)
10002336:	f005 fa29 	bl	1000778c <__wrap_puts>
1000233a:	e7e1      	b.n	10002300 <decodeBarcode+0x338>
1000233c:	4810      	ldr	r0, [pc, #64]	; (10002380 <decodeBarcode+0x3b8>)
1000233e:	f005 fa25 	bl	1000778c <__wrap_puts>
10002342:	e7dd      	b.n	10002300 <decodeBarcode+0x338>
10002344:	480f      	ldr	r0, [pc, #60]	; (10002384 <decodeBarcode+0x3bc>)
10002346:	f005 fa21 	bl	1000778c <__wrap_puts>
1000234a:	e7d9      	b.n	10002300 <decodeBarcode+0x338>
1000234c:	1000af20 	.word	0x1000af20
10002350:	1000afa0 	.word	0x1000afa0
10002354:	1000b020 	.word	0x1000b020
10002358:	20000b04 	.word	0x20000b04
1000235c:	1000aecc 	.word	0x1000aecc
10002360:	1000abf4 	.word	0x1000abf4
10002364:	1000ac10 	.word	0x1000ac10
10002368:	1000ac2c 	.word	0x1000ac2c
1000236c:	1000ac48 	.word	0x1000ac48
10002370:	1000ac64 	.word	0x1000ac64
10002374:	1000ac80 	.word	0x1000ac80
10002378:	1000ac9c 	.word	0x1000ac9c
1000237c:	1000acb8 	.word	0x1000acb8
10002380:	1000acd4 	.word	0x1000acd4
10002384:	1000acf0 	.word	0x1000acf0
10002388:	4821      	ldr	r0, [pc, #132]	; (10002410 <decodeBarcode+0x448>)
1000238a:	f005 f9ff 	bl	1000778c <__wrap_puts>
1000238e:	e7b7      	b.n	10002300 <decodeBarcode+0x338>
10002390:	4820      	ldr	r0, [pc, #128]	; (10002414 <decodeBarcode+0x44c>)
10002392:	f005 f9fb 	bl	1000778c <__wrap_puts>
10002396:	e7b3      	b.n	10002300 <decodeBarcode+0x338>
10002398:	481f      	ldr	r0, [pc, #124]	; (10002418 <decodeBarcode+0x450>)
1000239a:	f005 f9f7 	bl	1000778c <__wrap_puts>
1000239e:	e7af      	b.n	10002300 <decodeBarcode+0x338>
100023a0:	481e      	ldr	r0, [pc, #120]	; (1000241c <decodeBarcode+0x454>)
100023a2:	f005 f9f3 	bl	1000778c <__wrap_puts>
100023a6:	e7ab      	b.n	10002300 <decodeBarcode+0x338>
100023a8:	481d      	ldr	r0, [pc, #116]	; (10002420 <decodeBarcode+0x458>)
100023aa:	f005 f9ef 	bl	1000778c <__wrap_puts>
100023ae:	e7a7      	b.n	10002300 <decodeBarcode+0x338>
100023b0:	481c      	ldr	r0, [pc, #112]	; (10002424 <decodeBarcode+0x45c>)
100023b2:	f005 f9eb 	bl	1000778c <__wrap_puts>
100023b6:	e7a3      	b.n	10002300 <decodeBarcode+0x338>
100023b8:	481b      	ldr	r0, [pc, #108]	; (10002428 <decodeBarcode+0x460>)
100023ba:	f005 f9e7 	bl	1000778c <__wrap_puts>
100023be:	e79f      	b.n	10002300 <decodeBarcode+0x338>
100023c0:	481a      	ldr	r0, [pc, #104]	; (1000242c <decodeBarcode+0x464>)
100023c2:	f005 f9e3 	bl	1000778c <__wrap_puts>
100023c6:	e79b      	b.n	10002300 <decodeBarcode+0x338>
100023c8:	4819      	ldr	r0, [pc, #100]	; (10002430 <decodeBarcode+0x468>)
100023ca:	f005 f9df 	bl	1000778c <__wrap_puts>
100023ce:	e797      	b.n	10002300 <decodeBarcode+0x338>
100023d0:	4818      	ldr	r0, [pc, #96]	; (10002434 <decodeBarcode+0x46c>)
100023d2:	f005 f9db 	bl	1000778c <__wrap_puts>
100023d6:	e793      	b.n	10002300 <decodeBarcode+0x338>
100023d8:	4817      	ldr	r0, [pc, #92]	; (10002438 <decodeBarcode+0x470>)
100023da:	f005 f9d7 	bl	1000778c <__wrap_puts>
100023de:	e78f      	b.n	10002300 <decodeBarcode+0x338>
100023e0:	4816      	ldr	r0, [pc, #88]	; (1000243c <decodeBarcode+0x474>)
100023e2:	f005 f9d3 	bl	1000778c <__wrap_puts>
100023e6:	e78b      	b.n	10002300 <decodeBarcode+0x338>
100023e8:	4815      	ldr	r0, [pc, #84]	; (10002440 <decodeBarcode+0x478>)
100023ea:	f005 f9cf 	bl	1000778c <__wrap_puts>
100023ee:	e787      	b.n	10002300 <decodeBarcode+0x338>
100023f0:	4814      	ldr	r0, [pc, #80]	; (10002444 <decodeBarcode+0x47c>)
100023f2:	f005 f9cb 	bl	1000778c <__wrap_puts>
100023f6:	e783      	b.n	10002300 <decodeBarcode+0x338>
100023f8:	4813      	ldr	r0, [pc, #76]	; (10002448 <decodeBarcode+0x480>)
100023fa:	f005 f9c7 	bl	1000778c <__wrap_puts>
100023fe:	e77f      	b.n	10002300 <decodeBarcode+0x338>
10002400:	4812      	ldr	r0, [pc, #72]	; (1000244c <decodeBarcode+0x484>)
10002402:	f005 f9c3 	bl	1000778c <__wrap_puts>
10002406:	e77b      	b.n	10002300 <decodeBarcode+0x338>
10002408:	4811      	ldr	r0, [pc, #68]	; (10002450 <decodeBarcode+0x488>)
1000240a:	f005 f9bf 	bl	1000778c <__wrap_puts>
1000240e:	e777      	b.n	10002300 <decodeBarcode+0x338>
10002410:	1000ad0c 	.word	0x1000ad0c
10002414:	1000ad28 	.word	0x1000ad28
10002418:	1000ad44 	.word	0x1000ad44
1000241c:	1000ad60 	.word	0x1000ad60
10002420:	1000ad7c 	.word	0x1000ad7c
10002424:	1000ad98 	.word	0x1000ad98
10002428:	1000adb4 	.word	0x1000adb4
1000242c:	1000add0 	.word	0x1000add0
10002430:	1000adec 	.word	0x1000adec
10002434:	1000ae08 	.word	0x1000ae08
10002438:	1000ae24 	.word	0x1000ae24
1000243c:	1000ae40 	.word	0x1000ae40
10002440:	1000ae5c 	.word	0x1000ae5c
10002444:	1000ae78 	.word	0x1000ae78
10002448:	1000ae94 	.word	0x1000ae94
1000244c:	1000aeb0 	.word	0x1000aeb0
10002450:	1000aee8 	.word	0x1000aee8

10002454 <detectBar_raw>:
10002454:	b510      	push	{r4, lr}
10002456:	4b5b      	ldr	r3, [pc, #364]	; (100025c4 <detectBar_raw+0x170>)
10002458:	681b      	ldr	r3, [r3, #0]
1000245a:	4283      	cmp	r3, r0
1000245c:	da03      	bge.n	10002466 <detectBar_raw+0x12>
1000245e:	4a5a      	ldr	r2, [pc, #360]	; (100025c8 <detectBar_raw+0x174>)
10002460:	6812      	ldr	r2, [r2, #0]
10002462:	2a00      	cmp	r2, #0
10002464:	d00a      	beq.n	1000247c <detectBar_raw+0x28>
10002466:	4283      	cmp	r3, r0
10002468:	dd03      	ble.n	10002472 <detectBar_raw+0x1e>
1000246a:	4b57      	ldr	r3, [pc, #348]	; (100025c8 <detectBar_raw+0x174>)
1000246c:	681b      	ldr	r3, [r3, #0]
1000246e:	2b00      	cmp	r3, #0
10002470:	d11a      	bne.n	100024a8 <detectBar_raw+0x54>
10002472:	4b56      	ldr	r3, [pc, #344]	; (100025cc <detectBar_raw+0x178>)
10002474:	681c      	ldr	r4, [r3, #0]
10002476:	2c0f      	cmp	r4, #15
10002478:	d02c      	beq.n	100024d4 <detectBar_raw+0x80>
1000247a:	bd10      	pop	{r4, pc}
1000247c:	4a54      	ldr	r2, [pc, #336]	; (100025d0 <detectBar_raw+0x17c>)
1000247e:	6a91      	ldr	r1, [r2, #40]	; 0x28
10002480:	4b54      	ldr	r3, [pc, #336]	; (100025d4 <detectBar_raw+0x180>)
10002482:	6818      	ldr	r0, [r3, #0]
10002484:	1a09      	subs	r1, r1, r0
10002486:	4854      	ldr	r0, [pc, #336]	; (100025d8 <detectBar_raw+0x184>)
10002488:	6001      	str	r1, [r0, #0]
1000248a:	6a92      	ldr	r2, [r2, #40]	; 0x28
1000248c:	601a      	str	r2, [r3, #0]
1000248e:	4a4f      	ldr	r2, [pc, #316]	; (100025cc <detectBar_raw+0x178>)
10002490:	6813      	ldr	r3, [r2, #0]
10002492:	4852      	ldr	r0, [pc, #328]	; (100025dc <detectBar_raw+0x188>)
10002494:	54c1      	strb	r1, [r0, r3]
10002496:	3301      	adds	r3, #1
10002498:	6013      	str	r3, [r2, #0]
1000249a:	4b4b      	ldr	r3, [pc, #300]	; (100025c8 <detectBar_raw+0x174>)
1000249c:	2201      	movs	r2, #1
1000249e:	601a      	str	r2, [r3, #0]
100024a0:	484f      	ldr	r0, [pc, #316]	; (100025e0 <detectBar_raw+0x18c>)
100024a2:	f005 f9a5 	bl	100077f0 <__wrap_printf>
100024a6:	e7e4      	b.n	10002472 <detectBar_raw+0x1e>
100024a8:	4a49      	ldr	r2, [pc, #292]	; (100025d0 <detectBar_raw+0x17c>)
100024aa:	6a91      	ldr	r1, [r2, #40]	; 0x28
100024ac:	4b49      	ldr	r3, [pc, #292]	; (100025d4 <detectBar_raw+0x180>)
100024ae:	6818      	ldr	r0, [r3, #0]
100024b0:	1a09      	subs	r1, r1, r0
100024b2:	4849      	ldr	r0, [pc, #292]	; (100025d8 <detectBar_raw+0x184>)
100024b4:	6001      	str	r1, [r0, #0]
100024b6:	6a92      	ldr	r2, [r2, #40]	; 0x28
100024b8:	601a      	str	r2, [r3, #0]
100024ba:	4a4a      	ldr	r2, [pc, #296]	; (100025e4 <detectBar_raw+0x190>)
100024bc:	6813      	ldr	r3, [r2, #0]
100024be:	484a      	ldr	r0, [pc, #296]	; (100025e8 <detectBar_raw+0x194>)
100024c0:	54c1      	strb	r1, [r0, r3]
100024c2:	3301      	adds	r3, #1
100024c4:	6013      	str	r3, [r2, #0]
100024c6:	4b40      	ldr	r3, [pc, #256]	; (100025c8 <detectBar_raw+0x174>)
100024c8:	2200      	movs	r2, #0
100024ca:	601a      	str	r2, [r3, #0]
100024cc:	4847      	ldr	r0, [pc, #284]	; (100025ec <detectBar_raw+0x198>)
100024ce:	f005 f98f 	bl	100077f0 <__wrap_printf>
100024d2:	e7ce      	b.n	10002472 <detectBar_raw+0x1e>
100024d4:	2300      	movs	r3, #0
100024d6:	4a46      	ldr	r2, [pc, #280]	; (100025f0 <detectBar_raw+0x19c>)
100024d8:	6013      	str	r3, [r2, #0]
100024da:	4a46      	ldr	r2, [pc, #280]	; (100025f4 <detectBar_raw+0x1a0>)
100024dc:	6013      	str	r3, [r2, #0]
100024de:	e009      	b.n	100024f4 <detectBar_raw+0xa0>
100024e0:	4a3e      	ldr	r2, [pc, #248]	; (100025dc <detectBar_raw+0x188>)
100024e2:	5cd2      	ldrb	r2, [r2, r3]
100024e4:	4944      	ldr	r1, [pc, #272]	; (100025f8 <detectBar_raw+0x1a4>)
100024e6:	6808      	ldr	r0, [r1, #0]
100024e8:	4684      	mov	ip, r0
100024ea:	4462      	add	r2, ip
100024ec:	600a      	str	r2, [r1, #0]
100024ee:	3301      	adds	r3, #1
100024f0:	4a40      	ldr	r2, [pc, #256]	; (100025f4 <detectBar_raw+0x1a0>)
100024f2:	6013      	str	r3, [r2, #0]
100024f4:	4b3f      	ldr	r3, [pc, #252]	; (100025f4 <detectBar_raw+0x1a0>)
100024f6:	681b      	ldr	r3, [r3, #0]
100024f8:	429c      	cmp	r4, r3
100024fa:	dcf1      	bgt.n	100024e0 <detectBar_raw+0x8c>
100024fc:	4b3e      	ldr	r3, [pc, #248]	; (100025f8 <detectBar_raw+0x1a4>)
100024fe:	6818      	ldr	r0, [r3, #0]
10002500:	210f      	movs	r1, #15
10002502:	f003 fbb1 	bl	10005c68 <__wrap___aeabi_idiv>
10002506:	4b3a      	ldr	r3, [pc, #232]	; (100025f0 <detectBar_raw+0x19c>)
10002508:	6018      	str	r0, [r3, #0]
1000250a:	4b3a      	ldr	r3, [pc, #232]	; (100025f4 <detectBar_raw+0x1a0>)
1000250c:	2200      	movs	r2, #0
1000250e:	601a      	str	r2, [r3, #0]
10002510:	e005      	b.n	1000251e <detectBar_raw+0xca>
10002512:	4a3a      	ldr	r2, [pc, #232]	; (100025fc <detectBar_raw+0x1a8>)
10002514:	2101      	movs	r1, #1
10002516:	54d1      	strb	r1, [r2, r3]
10002518:	3301      	adds	r3, #1
1000251a:	4a36      	ldr	r2, [pc, #216]	; (100025f4 <detectBar_raw+0x1a0>)
1000251c:	6013      	str	r3, [r2, #0]
1000251e:	4b35      	ldr	r3, [pc, #212]	; (100025f4 <detectBar_raw+0x1a0>)
10002520:	681b      	ldr	r3, [r3, #0]
10002522:	429c      	cmp	r4, r3
10002524:	dd07      	ble.n	10002536 <detectBar_raw+0xe2>
10002526:	4a2d      	ldr	r2, [pc, #180]	; (100025dc <detectBar_raw+0x188>)
10002528:	5cd2      	ldrb	r2, [r2, r3]
1000252a:	4290      	cmp	r0, r2
1000252c:	ddf1      	ble.n	10002512 <detectBar_raw+0xbe>
1000252e:	4a33      	ldr	r2, [pc, #204]	; (100025fc <detectBar_raw+0x1a8>)
10002530:	2100      	movs	r1, #0
10002532:	54d1      	strb	r1, [r2, r3]
10002534:	e7f0      	b.n	10002518 <detectBar_raw+0xc4>
10002536:	4b32      	ldr	r3, [pc, #200]	; (10002600 <detectBar_raw+0x1ac>)
10002538:	681a      	ldr	r2, [r3, #0]
1000253a:	4b2e      	ldr	r3, [pc, #184]	; (100025f4 <detectBar_raw+0x1a0>)
1000253c:	601a      	str	r2, [r3, #0]
1000253e:	e009      	b.n	10002554 <detectBar_raw+0x100>
10002540:	4a29      	ldr	r2, [pc, #164]	; (100025e8 <detectBar_raw+0x194>)
10002542:	5cd2      	ldrb	r2, [r2, r3]
10002544:	492f      	ldr	r1, [pc, #188]	; (10002604 <detectBar_raw+0x1b0>)
10002546:	6808      	ldr	r0, [r1, #0]
10002548:	4684      	mov	ip, r0
1000254a:	4462      	add	r2, ip
1000254c:	600a      	str	r2, [r1, #0]
1000254e:	3301      	adds	r3, #1
10002550:	4a28      	ldr	r2, [pc, #160]	; (100025f4 <detectBar_raw+0x1a0>)
10002552:	6013      	str	r3, [r2, #0]
10002554:	4b27      	ldr	r3, [pc, #156]	; (100025f4 <detectBar_raw+0x1a0>)
10002556:	681b      	ldr	r3, [r3, #0]
10002558:	4a22      	ldr	r2, [pc, #136]	; (100025e4 <detectBar_raw+0x190>)
1000255a:	6814      	ldr	r4, [r2, #0]
1000255c:	42a3      	cmp	r3, r4
1000255e:	dbef      	blt.n	10002540 <detectBar_raw+0xec>
10002560:	4b28      	ldr	r3, [pc, #160]	; (10002604 <detectBar_raw+0x1b0>)
10002562:	6818      	ldr	r0, [r3, #0]
10002564:	210e      	movs	r1, #14
10002566:	f003 fb7f 	bl	10005c68 <__wrap___aeabi_idiv>
1000256a:	4b27      	ldr	r3, [pc, #156]	; (10002608 <detectBar_raw+0x1b4>)
1000256c:	6018      	str	r0, [r3, #0]
1000256e:	4b21      	ldr	r3, [pc, #132]	; (100025f4 <detectBar_raw+0x1a0>)
10002570:	2201      	movs	r2, #1
10002572:	601a      	str	r2, [r3, #0]
10002574:	e005      	b.n	10002582 <detectBar_raw+0x12e>
10002576:	4a25      	ldr	r2, [pc, #148]	; (1000260c <detectBar_raw+0x1b8>)
10002578:	2101      	movs	r1, #1
1000257a:	54d1      	strb	r1, [r2, r3]
1000257c:	3301      	adds	r3, #1
1000257e:	4a1d      	ldr	r2, [pc, #116]	; (100025f4 <detectBar_raw+0x1a0>)
10002580:	6013      	str	r3, [r2, #0]
10002582:	4b1c      	ldr	r3, [pc, #112]	; (100025f4 <detectBar_raw+0x1a0>)
10002584:	681b      	ldr	r3, [r3, #0]
10002586:	429c      	cmp	r4, r3
10002588:	dd07      	ble.n	1000259a <detectBar_raw+0x146>
1000258a:	4a17      	ldr	r2, [pc, #92]	; (100025e8 <detectBar_raw+0x194>)
1000258c:	5cd2      	ldrb	r2, [r2, r3]
1000258e:	4290      	cmp	r0, r2
10002590:	ddf1      	ble.n	10002576 <detectBar_raw+0x122>
10002592:	4a1e      	ldr	r2, [pc, #120]	; (1000260c <detectBar_raw+0x1b8>)
10002594:	2100      	movs	r1, #0
10002596:	54d1      	strb	r1, [r2, r3]
10002598:	e7f0      	b.n	1000257c <detectBar_raw+0x128>
1000259a:	4c1d      	ldr	r4, [pc, #116]	; (10002610 <detectBar_raw+0x1bc>)
1000259c:	0022      	movs	r2, r4
1000259e:	491b      	ldr	r1, [pc, #108]	; (1000260c <detectBar_raw+0x1b8>)
100025a0:	4816      	ldr	r0, [pc, #88]	; (100025fc <detectBar_raw+0x1a8>)
100025a2:	f7ff fcb7 	bl	10001f14 <combineArray>
100025a6:	0020      	movs	r0, r4
100025a8:	f7ff fcc6 	bl	10001f38 <decipherBarcode>
100025ac:	211e      	movs	r1, #30
100025ae:	0020      	movs	r0, r4
100025b0:	f7ff fce6 	bl	10001f80 <printArray>
100025b4:	f7ff fd08 	bl	10001fc8 <decodeBarcode>
100025b8:	2300      	movs	r3, #0
100025ba:	4a04      	ldr	r2, [pc, #16]	; (100025cc <detectBar_raw+0x178>)
100025bc:	6013      	str	r3, [r2, #0]
100025be:	4a09      	ldr	r2, [pc, #36]	; (100025e4 <detectBar_raw+0x190>)
100025c0:	6013      	str	r3, [r2, #0]
100025c2:	e75a      	b.n	1000247a <detectBar_raw+0x26>
100025c4:	20000434 	.word	0x20000434
100025c8:	20000430 	.word	0x20000430
100025cc:	20000b20 	.word	0x20000b20
100025d0:	40054000 	.word	0x40054000
100025d4:	20002084 	.word	0x20002084
100025d8:	20000ca4 	.word	0x20000ca4
100025dc:	20000b10 	.word	0x20000b10
100025e0:	1000af08 	.word	0x1000af08
100025e4:	20002140 	.word	0x20002140
100025e8:	20002130 	.word	0x20002130
100025ec:	1000af14 	.word	0x1000af14
100025f0:	20000ae4 	.word	0x20000ae4
100025f4:	20001ae8 	.word	0x20001ae8
100025f8:	20002090 	.word	0x20002090
100025fc:	20000af4 	.word	0x20000af4
10002600:	20000438 	.word	0x20000438
10002604:	20002094 	.word	0x20002094
10002608:	20000aec 	.word	0x20000aec
1000260c:	20002068 	.word	0x20002068
10002610:	20000c54 	.word	0x20000c54

10002614 <barcode_sampling>:
10002614:	b510      	push	{r4, lr}
10002616:	4b27      	ldr	r3, [pc, #156]	; (100026b4 <barcode_sampling+0xa0>)
10002618:	2204      	movs	r2, #4
1000261a:	601a      	str	r2, [r3, #0]
1000261c:	4b26      	ldr	r3, [pc, #152]	; (100026b8 <barcode_sampling+0xa4>)
1000261e:	681b      	ldr	r3, [r3, #0]
10002620:	05db      	lsls	r3, r3, #23
10002622:	d5fb      	bpl.n	1000261c <barcode_sampling+0x8>
10002624:	4b24      	ldr	r3, [pc, #144]	; (100026b8 <barcode_sampling+0xa4>)
10002626:	6858      	ldr	r0, [r3, #4]
10002628:	0400      	lsls	r0, r0, #16
1000262a:	0c00      	lsrs	r0, r0, #16
1000262c:	4b23      	ldr	r3, [pc, #140]	; (100026bc <barcode_sampling+0xa8>)
1000262e:	681a      	ldr	r2, [r3, #0]
10002630:	4694      	mov	ip, r2
10002632:	4460      	add	r0, ip
10002634:	6018      	str	r0, [r3, #0]
10002636:	4a22      	ldr	r2, [pc, #136]	; (100026c0 <barcode_sampling+0xac>)
10002638:	6813      	ldr	r3, [r2, #0]
1000263a:	3301      	adds	r3, #1
1000263c:	6013      	str	r3, [r2, #0]
1000263e:	22fa      	movs	r2, #250	; 0xfa
10002640:	0092      	lsls	r2, r2, #2
10002642:	4293      	cmp	r3, r2
10002644:	d019      	beq.n	1000267a <barcode_sampling+0x66>
10002646:	2300      	movs	r3, #0
10002648:	4a1c      	ldr	r2, [pc, #112]	; (100026bc <barcode_sampling+0xa8>)
1000264a:	6013      	str	r3, [r2, #0]
1000264c:	4a1c      	ldr	r2, [pc, #112]	; (100026c0 <barcode_sampling+0xac>)
1000264e:	6013      	str	r3, [r2, #0]
10002650:	2209      	movs	r2, #9
10002652:	2100      	movs	r1, #0
10002654:	481b      	ldr	r0, [pc, #108]	; (100026c4 <barcode_sampling+0xb0>)
10002656:	f004 ff81 	bl	1000755c <__wrap_memset>
1000265a:	220f      	movs	r2, #15
1000265c:	2100      	movs	r1, #0
1000265e:	481a      	ldr	r0, [pc, #104]	; (100026c8 <barcode_sampling+0xb4>)
10002660:	f004 ff7c 	bl	1000755c <__wrap_memset>
10002664:	220f      	movs	r2, #15
10002666:	2100      	movs	r1, #0
10002668:	4818      	ldr	r0, [pc, #96]	; (100026cc <barcode_sampling+0xb8>)
1000266a:	f004 ff77 	bl	1000755c <__wrap_memset>
1000266e:	221e      	movs	r2, #30
10002670:	2100      	movs	r1, #0
10002672:	4817      	ldr	r0, [pc, #92]	; (100026d0 <barcode_sampling+0xbc>)
10002674:	f004 ff72 	bl	1000755c <__wrap_memset>
10002678:	bd10      	pop	{r4, pc}
1000267a:	4b16      	ldr	r3, [pc, #88]	; (100026d4 <barcode_sampling+0xc0>)
1000267c:	681b      	ldr	r3, [r3, #0]
1000267e:	2b00      	cmp	r3, #0
10002680:	d103      	bne.n	1000268a <barcode_sampling+0x76>
10002682:	4b15      	ldr	r3, [pc, #84]	; (100026d8 <barcode_sampling+0xc4>)
10002684:	6a9a      	ldr	r2, [r3, #40]	; 0x28
10002686:	4b13      	ldr	r3, [pc, #76]	; (100026d4 <barcode_sampling+0xc0>)
10002688:	601a      	str	r2, [r3, #0]
1000268a:	21fa      	movs	r1, #250	; 0xfa
1000268c:	0089      	lsls	r1, r1, #2
1000268e:	f003 faeb 	bl	10005c68 <__wrap___aeabi_idiv>
10002692:	0004      	movs	r4, r0
10002694:	4b11      	ldr	r3, [pc, #68]	; (100026dc <barcode_sampling+0xc8>)
10002696:	6018      	str	r0, [r3, #0]
10002698:	f003 fdfe 	bl	10006298 <__wrap___aeabi_i2d>
1000269c:	4a10      	ldr	r2, [pc, #64]	; (100026e0 <barcode_sampling+0xcc>)
1000269e:	4b11      	ldr	r3, [pc, #68]	; (100026e4 <barcode_sampling+0xd0>)
100026a0:	f003 fd89 	bl	100061b6 <__wrap___aeabi_dmul>
100026a4:	f003 fe4c 	bl	10006340 <__wrap___aeabi_d2f>
100026a8:	4b0f      	ldr	r3, [pc, #60]	; (100026e8 <barcode_sampling+0xd4>)
100026aa:	6018      	str	r0, [r3, #0]
100026ac:	0020      	movs	r0, r4
100026ae:	f7ff fed1 	bl	10002454 <detectBar_raw>
100026b2:	e7c8      	b.n	10002646 <barcode_sampling+0x32>
100026b4:	4004e000 	.word	0x4004e000
100026b8:	4004c000 	.word	0x4004c000
100026bc:	200020a8 	.word	0x200020a8
100026c0:	20000ad0 	.word	0x20000ad0
100026c4:	20000b04 	.word	0x20000b04
100026c8:	20000af4 	.word	0x20000af4
100026cc:	20002068 	.word	0x20002068
100026d0:	20000c54 	.word	0x20000c54
100026d4:	20002084 	.word	0x20002084
100026d8:	40054000 	.word	0x40054000
100026dc:	20000ae8 	.word	0x20000ae8
100026e0:	e734d9b4 	.word	0xe734d9b4
100026e4:	3f4a680c 	.word	0x3f4a680c
100026e8:	20000ca0 	.word	0x20000ca0

100026ec <barcode_IRQ>:
100026ec:	b510      	push	{r4, lr}
100026ee:	f7ff ff91 	bl	10002614 <barcode_sampling>
100026f2:	bd10      	pop	{r4, pc}

100026f4 <gpio_set_function>:
100026f4:	b510      	push	{r4, lr}
100026f6:	0083      	lsls	r3, r0, #2
100026f8:	4a08      	ldr	r2, [pc, #32]	; (1000271c <gpio_set_function+0x28>)
100026fa:	4694      	mov	ip, r2
100026fc:	4463      	add	r3, ip
100026fe:	681c      	ldr	r4, [r3, #0]
10002700:	2240      	movs	r2, #64	; 0x40
10002702:	4062      	eors	r2, r4
10002704:	24c0      	movs	r4, #192	; 0xc0
10002706:	4014      	ands	r4, r2
10002708:	2280      	movs	r2, #128	; 0x80
1000270a:	0152      	lsls	r2, r2, #5
1000270c:	4313      	orrs	r3, r2
1000270e:	601c      	str	r4, [r3, #0]
10002710:	00c0      	lsls	r0, r0, #3
10002712:	4b03      	ldr	r3, [pc, #12]	; (10002720 <gpio_set_function+0x2c>)
10002714:	469c      	mov	ip, r3
10002716:	4460      	add	r0, ip
10002718:	6041      	str	r1, [r0, #4]
1000271a:	bd10      	pop	{r4, pc}
1000271c:	4001c004 	.word	0x4001c004
10002720:	40014000 	.word	0x40014000

10002724 <gpio_set_pulls>:
10002724:	0080      	lsls	r0, r0, #2
10002726:	4b0b      	ldr	r3, [pc, #44]	; (10002754 <gpio_set_pulls+0x30>)
10002728:	469c      	mov	ip, r3
1000272a:	4460      	add	r0, ip
1000272c:	2900      	cmp	r1, #0
1000272e:	d00d      	beq.n	1000274c <gpio_set_pulls+0x28>
10002730:	2308      	movs	r3, #8
10002732:	2a00      	cmp	r2, #0
10002734:	d00c      	beq.n	10002750 <gpio_set_pulls+0x2c>
10002736:	2204      	movs	r2, #4
10002738:	4313      	orrs	r3, r2
1000273a:	6802      	ldr	r2, [r0, #0]
1000273c:	4053      	eors	r3, r2
1000273e:	220c      	movs	r2, #12
10002740:	4013      	ands	r3, r2
10002742:	2280      	movs	r2, #128	; 0x80
10002744:	0152      	lsls	r2, r2, #5
10002746:	4310      	orrs	r0, r2
10002748:	6003      	str	r3, [r0, #0]
1000274a:	4770      	bx	lr
1000274c:	2300      	movs	r3, #0
1000274e:	e7f0      	b.n	10002732 <gpio_set_pulls+0xe>
10002750:	2200      	movs	r2, #0
10002752:	e7f1      	b.n	10002738 <gpio_set_pulls+0x14>
10002754:	4001c004 	.word	0x4001c004

10002758 <gpio_set_irq_callback>:
10002758:	b570      	push	{r4, r5, r6, lr}
1000275a:	0004      	movs	r4, r0
1000275c:	23d0      	movs	r3, #208	; 0xd0
1000275e:	061b      	lsls	r3, r3, #24
10002760:	681d      	ldr	r5, [r3, #0]
10002762:	00aa      	lsls	r2, r5, #2
10002764:	4b0c      	ldr	r3, [pc, #48]	; (10002798 <gpio_set_irq_callback+0x40>)
10002766:	58d3      	ldr	r3, [r2, r3]
10002768:	2b00      	cmp	r3, #0
1000276a:	d00a      	beq.n	10002782 <gpio_set_irq_callback+0x2a>
1000276c:	2800      	cmp	r0, #0
1000276e:	d003      	beq.n	10002778 <gpio_set_irq_callback+0x20>
10002770:	00ad      	lsls	r5, r5, #2
10002772:	4b09      	ldr	r3, [pc, #36]	; (10002798 <gpio_set_irq_callback+0x40>)
10002774:	50ec      	str	r4, [r5, r3]
10002776:	bd70      	pop	{r4, r5, r6, pc}
10002778:	4908      	ldr	r1, [pc, #32]	; (1000279c <gpio_set_irq_callback+0x44>)
1000277a:	200d      	movs	r0, #13
1000277c:	f000 fb36 	bl	10002dec <irq_remove_handler>
10002780:	e7f6      	b.n	10002770 <gpio_set_irq_callback+0x18>
10002782:	2800      	cmp	r0, #0
10002784:	d0f7      	beq.n	10002776 <gpio_set_irq_callback+0x1e>
10002786:	00ad      	lsls	r5, r5, #2
10002788:	4b03      	ldr	r3, [pc, #12]	; (10002798 <gpio_set_irq_callback+0x40>)
1000278a:	50e8      	str	r0, [r5, r3]
1000278c:	2200      	movs	r2, #0
1000278e:	4903      	ldr	r1, [pc, #12]	; (1000279c <gpio_set_irq_callback+0x44>)
10002790:	200d      	movs	r0, #13
10002792:	f000 fa13 	bl	10002bbc <irq_add_shared_handler>
10002796:	e7ee      	b.n	10002776 <gpio_set_irq_callback+0x1e>
10002798:	20000c24 	.word	0x20000c24
1000279c:	1000282d 	.word	0x1000282d

100027a0 <gpio_acknowledge_irq>:
100027a0:	2307      	movs	r3, #7
100027a2:	4003      	ands	r3, r0
100027a4:	009b      	lsls	r3, r3, #2
100027a6:	08c0      	lsrs	r0, r0, #3
100027a8:	4099      	lsls	r1, r3
100027aa:	303c      	adds	r0, #60	; 0x3c
100027ac:	0080      	lsls	r0, r0, #2
100027ae:	4b01      	ldr	r3, [pc, #4]	; (100027b4 <gpio_acknowledge_irq+0x14>)
100027b0:	50c1      	str	r1, [r0, r3]
100027b2:	4770      	bx	lr
100027b4:	40014000 	.word	0x40014000

100027b8 <_gpio_set_irq_enabled>:
100027b8:	b5f8      	push	{r3, r4, r5, r6, r7, lr}
100027ba:	0007      	movs	r7, r0
100027bc:	000c      	movs	r4, r1
100027be:	0016      	movs	r6, r2
100027c0:	001d      	movs	r5, r3
100027c2:	f7ff ffed 	bl	100027a0 <gpio_acknowledge_irq>
100027c6:	08fb      	lsrs	r3, r7, #3
100027c8:	009b      	lsls	r3, r3, #2
100027ca:	18ed      	adds	r5, r5, r3
100027cc:	2007      	movs	r0, #7
100027ce:	4038      	ands	r0, r7
100027d0:	0080      	lsls	r0, r0, #2
100027d2:	4084      	lsls	r4, r0
100027d4:	2e00      	cmp	r6, #0
100027d6:	d004      	beq.n	100027e2 <_gpio_set_irq_enabled+0x2a>
100027d8:	2380      	movs	r3, #128	; 0x80
100027da:	019b      	lsls	r3, r3, #6
100027dc:	431d      	orrs	r5, r3
100027de:	602c      	str	r4, [r5, #0]
100027e0:	bdf8      	pop	{r3, r4, r5, r6, r7, pc}
100027e2:	23c0      	movs	r3, #192	; 0xc0
100027e4:	019b      	lsls	r3, r3, #6
100027e6:	431d      	orrs	r5, r3
100027e8:	602c      	str	r4, [r5, #0]
100027ea:	e7f9      	b.n	100027e0 <_gpio_set_irq_enabled+0x28>

100027ec <gpio_set_irq_enabled>:
100027ec:	b510      	push	{r4, lr}
100027ee:	23d0      	movs	r3, #208	; 0xd0
100027f0:	061b      	lsls	r3, r3, #24
100027f2:	681b      	ldr	r3, [r3, #0]
100027f4:	2b00      	cmp	r3, #0
100027f6:	d003      	beq.n	10002800 <gpio_set_irq_enabled+0x14>
100027f8:	4b02      	ldr	r3, [pc, #8]	; (10002804 <gpio_set_irq_enabled+0x18>)
100027fa:	f7ff ffdd 	bl	100027b8 <_gpio_set_irq_enabled>
100027fe:	bd10      	pop	{r4, pc}
10002800:	4b01      	ldr	r3, [pc, #4]	; (10002808 <gpio_set_irq_enabled+0x1c>)
10002802:	e7fa      	b.n	100027fa <gpio_set_irq_enabled+0xe>
10002804:	40014130 	.word	0x40014130
10002808:	40014100 	.word	0x40014100

1000280c <gpio_set_irq_enabled_with_callback>:
1000280c:	b570      	push	{r4, r5, r6, lr}
1000280e:	0014      	movs	r4, r2
10002810:	001d      	movs	r5, r3
10002812:	f7ff ffeb 	bl	100027ec <gpio_set_irq_enabled>
10002816:	0028      	movs	r0, r5
10002818:	f7ff ff9e 	bl	10002758 <gpio_set_irq_callback>
1000281c:	2c00      	cmp	r4, #0
1000281e:	d100      	bne.n	10002822 <gpio_set_irq_enabled_with_callback+0x16>
10002820:	bd70      	pop	{r4, r5, r6, pc}
10002822:	2101      	movs	r1, #1
10002824:	200d      	movs	r0, #13
10002826:	f000 f975 	bl	10002b14 <irq_set_enabled>
1000282a:	e7f9      	b.n	10002820 <gpio_set_irq_enabled_with_callback+0x14>

1000282c <gpio_default_irq_handler>:
1000282c:	b5f0      	push	{r4, r5, r6, r7, lr}
1000282e:	46d6      	mov	lr, sl
10002830:	464f      	mov	r7, r9
10002832:	4646      	mov	r6, r8
10002834:	b5c0      	push	{r6, r7, lr}
10002836:	23d0      	movs	r3, #208	; 0xd0
10002838:	061b      	lsls	r3, r3, #24
1000283a:	681f      	ldr	r7, [r3, #0]
1000283c:	00ba      	lsls	r2, r7, #2
1000283e:	4b1d      	ldr	r3, [pc, #116]	; (100028b4 <gpio_default_irq_handler+0x88>)
10002840:	58d3      	ldr	r3, [r2, r3]
10002842:	4698      	mov	r8, r3
10002844:	2f00      	cmp	r7, #0
10002846:	d003      	beq.n	10002850 <gpio_default_irq_handler+0x24>
10002848:	4b1b      	ldr	r3, [pc, #108]	; (100028b8 <gpio_default_irq_handler+0x8c>)
1000284a:	4699      	mov	r9, r3
1000284c:	2600      	movs	r6, #0
1000284e:	e023      	b.n	10002898 <gpio_default_irq_handler+0x6c>
10002850:	4b1a      	ldr	r3, [pc, #104]	; (100028bc <gpio_default_irq_handler+0x90>)
10002852:	4699      	mov	r9, r3
10002854:	e7fa      	b.n	1000284c <gpio_default_irq_handler+0x20>
10002856:	0924      	lsrs	r4, r4, #4
10002858:	3501      	adds	r5, #1
1000285a:	2c00      	cmp	r4, #0
1000285c:	d01b      	beq.n	10002896 <gpio_default_irq_handler+0x6a>
1000285e:	0033      	movs	r3, r6
10002860:	3308      	adds	r3, #8
10002862:	42ab      	cmp	r3, r5
10002864:	d917      	bls.n	10002896 <gpio_default_irq_handler+0x6a>
10002866:	230f      	movs	r3, #15
10002868:	001a      	movs	r2, r3
1000286a:	4022      	ands	r2, r4
1000286c:	4692      	mov	sl, r2
1000286e:	4223      	tst	r3, r4
10002870:	d0f1      	beq.n	10002856 <gpio_default_irq_handler+0x2a>
10002872:	00bb      	lsls	r3, r7, #2
10002874:	4a12      	ldr	r2, [pc, #72]	; (100028c0 <gpio_default_irq_handler+0x94>)
10002876:	589a      	ldr	r2, [r3, r2]
10002878:	2301      	movs	r3, #1
1000287a:	40ab      	lsls	r3, r5
1000287c:	4213      	tst	r3, r2
1000287e:	d1ea      	bne.n	10002856 <gpio_default_irq_handler+0x2a>
10002880:	4651      	mov	r1, sl
10002882:	0028      	movs	r0, r5
10002884:	f7ff ff8c 	bl	100027a0 <gpio_acknowledge_irq>
10002888:	4643      	mov	r3, r8
1000288a:	2b00      	cmp	r3, #0
1000288c:	d0e3      	beq.n	10002856 <gpio_default_irq_handler+0x2a>
1000288e:	4651      	mov	r1, sl
10002890:	0028      	movs	r0, r5
10002892:	47c0      	blx	r8
10002894:	e7df      	b.n	10002856 <gpio_default_irq_handler+0x2a>
10002896:	3608      	adds	r6, #8
10002898:	2e1d      	cmp	r6, #29
1000289a:	d806      	bhi.n	100028aa <gpio_default_irq_handler+0x7e>
1000289c:	08f3      	lsrs	r3, r6, #3
1000289e:	3308      	adds	r3, #8
100028a0:	009b      	lsls	r3, r3, #2
100028a2:	464a      	mov	r2, r9
100028a4:	589c      	ldr	r4, [r3, r2]
100028a6:	0035      	movs	r5, r6
100028a8:	e7d7      	b.n	1000285a <gpio_default_irq_handler+0x2e>
100028aa:	bce0      	pop	{r5, r6, r7}
100028ac:	46ba      	mov	sl, r7
100028ae:	46b1      	mov	r9, r6
100028b0:	46a8      	mov	r8, r5
100028b2:	bdf0      	pop	{r4, r5, r6, r7, pc}
100028b4:	20000c24 	.word	0x20000c24
100028b8:	40014130 	.word	0x40014130
100028bc:	40014100 	.word	0x40014100
100028c0:	20001e48 	.word	0x20001e48

100028c4 <gpio_set_input_enabled>:
100028c4:	2900      	cmp	r1, #0
100028c6:	d009      	beq.n	100028dc <gpio_set_input_enabled+0x18>
100028c8:	0080      	lsls	r0, r0, #2
100028ca:	4b09      	ldr	r3, [pc, #36]	; (100028f0 <gpio_set_input_enabled+0x2c>)
100028cc:	469c      	mov	ip, r3
100028ce:	4460      	add	r0, ip
100028d0:	2380      	movs	r3, #128	; 0x80
100028d2:	019b      	lsls	r3, r3, #6
100028d4:	4318      	orrs	r0, r3
100028d6:	2340      	movs	r3, #64	; 0x40
100028d8:	6003      	str	r3, [r0, #0]
100028da:	4770      	bx	lr
100028dc:	0080      	lsls	r0, r0, #2
100028de:	4b04      	ldr	r3, [pc, #16]	; (100028f0 <gpio_set_input_enabled+0x2c>)
100028e0:	469c      	mov	ip, r3
100028e2:	4460      	add	r0, ip
100028e4:	23c0      	movs	r3, #192	; 0xc0
100028e6:	019b      	lsls	r3, r3, #6
100028e8:	4318      	orrs	r0, r3
100028ea:	2340      	movs	r3, #64	; 0x40
100028ec:	6003      	str	r3, [r0, #0]
100028ee:	e7f4      	b.n	100028da <gpio_set_input_enabled+0x16>
100028f0:	4001c004 	.word	0x4001c004

100028f4 <gpio_init>:
100028f4:	b510      	push	{r4, lr}
100028f6:	2301      	movs	r3, #1
100028f8:	4083      	lsls	r3, r0
100028fa:	22d0      	movs	r2, #208	; 0xd0
100028fc:	0612      	lsls	r2, r2, #24
100028fe:	6293      	str	r3, [r2, #40]	; 0x28
10002900:	6193      	str	r3, [r2, #24]
10002902:	2105      	movs	r1, #5
10002904:	f7ff fef6 	bl	100026f4 <gpio_set_function>
10002908:	bd10      	pop	{r4, pc}
	...

1000290c <hw_claim_lock>:
1000290c:	f3ef 8010 	mrs	r0, PRIMASK
10002910:	b672      	cpsid	i
10002912:	4b03      	ldr	r3, [pc, #12]	; (10002920 <hw_claim_lock+0x14>)
10002914:	681b      	ldr	r3, [r3, #0]
10002916:	2b00      	cmp	r3, #0
10002918:	d0fb      	beq.n	10002912 <hw_claim_lock+0x6>
1000291a:	f3bf 8f5f 	dmb	sy
1000291e:	4770      	bx	lr
10002920:	d000012c 	.word	0xd000012c

10002924 <hw_claim_unlock>:
10002924:	f3bf 8f5f 	dmb	sy
10002928:	4b02      	ldr	r3, [pc, #8]	; (10002934 <hw_claim_unlock+0x10>)
1000292a:	2200      	movs	r2, #0
1000292c:	601a      	str	r2, [r3, #0]
1000292e:	f380 8810 	msr	PRIMASK, r0
10002932:	4770      	bx	lr
10002934:	d000012c 	.word	0xd000012c

10002938 <hw_claim_or_assert>:
10002938:	b5f8      	push	{r3, r4, r5, r6, r7, lr}
1000293a:	0006      	movs	r6, r0
1000293c:	000c      	movs	r4, r1
1000293e:	0015      	movs	r5, r2
10002940:	f7ff ffe4 	bl	1000290c <hw_claim_lock>
10002944:	08e3      	lsrs	r3, r4, #3
10002946:	18f7      	adds	r7, r6, r3
10002948:	5cf1      	ldrb	r1, [r6, r3]
1000294a:	2207      	movs	r2, #7
1000294c:	4022      	ands	r2, r4
1000294e:	2301      	movs	r3, #1
10002950:	4093      	lsls	r3, r2
10002952:	420b      	tst	r3, r1
10002954:	d105      	bne.n	10002962 <hw_claim_or_assert+0x2a>
10002956:	b2db      	uxtb	r3, r3
10002958:	430b      	orrs	r3, r1
1000295a:	703b      	strb	r3, [r7, #0]
1000295c:	f7ff ffe2 	bl	10002924 <hw_claim_unlock>
10002960:	bdf8      	pop	{r3, r4, r5, r6, r7, pc}
10002962:	0021      	movs	r1, r4
10002964:	0028      	movs	r0, r5
10002966:	f001 fe65 	bl	10004634 <panic>

1000296a <hw_claim_unused_from_range>:
1000296a:	b5f0      	push	{r4, r5, r6, r7, lr}
1000296c:	b083      	sub	sp, #12
1000296e:	0006      	movs	r6, r0
10002970:	9101      	str	r1, [sp, #4]
10002972:	0014      	movs	r4, r2
10002974:	001f      	movs	r7, r3
10002976:	f7ff ffc9 	bl	1000290c <hw_claim_lock>
1000297a:	e000      	b.n	1000297e <hw_claim_unused_from_range+0x14>
1000297c:	3401      	adds	r4, #1
1000297e:	42bc      	cmp	r4, r7
10002980:	d80c      	bhi.n	1000299c <hw_claim_unused_from_range+0x32>
10002982:	08e3      	lsrs	r3, r4, #3
10002984:	18f5      	adds	r5, r6, r3
10002986:	5cf3      	ldrb	r3, [r6, r3]
10002988:	2107      	movs	r1, #7
1000298a:	4021      	ands	r1, r4
1000298c:	2201      	movs	r2, #1
1000298e:	408a      	lsls	r2, r1
10002990:	421a      	tst	r2, r3
10002992:	d1f3      	bne.n	1000297c <hw_claim_unused_from_range+0x12>
10002994:	b2d2      	uxtb	r2, r2
10002996:	431a      	orrs	r2, r3
10002998:	702a      	strb	r2, [r5, #0]
1000299a:	e001      	b.n	100029a0 <hw_claim_unused_from_range+0x36>
1000299c:	2401      	movs	r4, #1
1000299e:	4264      	negs	r4, r4
100029a0:	f7ff ffc0 	bl	10002924 <hw_claim_unlock>
100029a4:	2c00      	cmp	r4, #0
100029a6:	db02      	blt.n	100029ae <hw_claim_unused_from_range+0x44>
100029a8:	0020      	movs	r0, r4
100029aa:	b003      	add	sp, #12
100029ac:	bdf0      	pop	{r4, r5, r6, r7, pc}
100029ae:	9b01      	ldr	r3, [sp, #4]
100029b0:	2b00      	cmp	r3, #0
100029b2:	d0f9      	beq.n	100029a8 <hw_claim_unused_from_range+0x3e>
100029b4:	9808      	ldr	r0, [sp, #32]
100029b6:	f001 fe3d 	bl	10004634 <panic>
	...

100029bc <running_on_fpga>:
100029bc:	4b03      	ldr	r3, [pc, #12]	; (100029cc <running_on_fpga+0x10>)
100029be:	681b      	ldr	r3, [r3, #0]
100029c0:	2002      	movs	r0, #2
100029c2:	4018      	ands	r0, r3
100029c4:	1e43      	subs	r3, r0, #1
100029c6:	4198      	sbcs	r0, r3
100029c8:	b2c0      	uxtb	r0, r0
100029ca:	4770      	bx	lr
100029cc:	4006c000 	.word	0x4006c000

100029d0 <spin_locks_reset>:
100029d0:	2300      	movs	r3, #0
100029d2:	e007      	b.n	100029e4 <spin_locks_reset+0x14>
100029d4:	4a05      	ldr	r2, [pc, #20]	; (100029ec <spin_locks_reset+0x1c>)
100029d6:	189a      	adds	r2, r3, r2
100029d8:	0092      	lsls	r2, r2, #2
100029da:	f3bf 8f5f 	dmb	sy
100029de:	2100      	movs	r1, #0
100029e0:	6011      	str	r1, [r2, #0]
100029e2:	3301      	adds	r3, #1
100029e4:	2b1f      	cmp	r3, #31
100029e6:	d9f5      	bls.n	100029d4 <spin_locks_reset+0x4>
100029e8:	4770      	bx	lr
100029ea:	46c0      	nop			; (mov r8, r8)
100029ec:	34000040 	.word	0x34000040

100029f0 <next_striped_spin_lock_num>:
100029f0:	4a05      	ldr	r2, [pc, #20]	; (10002a08 <next_striped_spin_lock_num+0x18>)
100029f2:	7810      	ldrb	r0, [r2, #0]
100029f4:	1c43      	adds	r3, r0, #1
100029f6:	b2db      	uxtb	r3, r3
100029f8:	7013      	strb	r3, [r2, #0]
100029fa:	2b17      	cmp	r3, #23
100029fc:	d902      	bls.n	10002a04 <next_striped_spin_lock_num+0x14>
100029fe:	0013      	movs	r3, r2
10002a00:	2210      	movs	r2, #16
10002a02:	701a      	strb	r2, [r3, #0]
10002a04:	4770      	bx	lr
10002a06:	46c0      	nop			; (mov r8, r8)
10002a08:	2000043c 	.word	0x2000043c

10002a0c <spin_lock_claim_unused>:
10002a0c:	b500      	push	{lr}
10002a0e:	b083      	sub	sp, #12
10002a10:	0001      	movs	r1, r0
10002a12:	4b04      	ldr	r3, [pc, #16]	; (10002a24 <spin_lock_claim_unused+0x18>)
10002a14:	9300      	str	r3, [sp, #0]
10002a16:	231f      	movs	r3, #31
10002a18:	2218      	movs	r2, #24
10002a1a:	4803      	ldr	r0, [pc, #12]	; (10002a28 <spin_lock_claim_unused+0x1c>)
10002a1c:	f7ff ffa5 	bl	1000296a <hw_claim_unused_from_range>
10002a20:	b003      	add	sp, #12
10002a22:	bd00      	pop	{pc}
10002a24:	1000b064 	.word	0x1000b064
10002a28:	20000c50 	.word	0x20000c50

10002a2c <set_raw_irq_handler_and_unlock>:
10002a2c:	4b07      	ldr	r3, [pc, #28]	; (10002a4c <set_raw_irq_handler_and_unlock+0x20>)
10002a2e:	689b      	ldr	r3, [r3, #8]
10002a30:	3010      	adds	r0, #16
10002a32:	0080      	lsls	r0, r0, #2
10002a34:	5019      	str	r1, [r3, r0]
10002a36:	f3bf 8f5f 	dmb	sy
10002a3a:	f3bf 8f5f 	dmb	sy
10002a3e:	4b04      	ldr	r3, [pc, #16]	; (10002a50 <set_raw_irq_handler_and_unlock+0x24>)
10002a40:	2100      	movs	r1, #0
10002a42:	6019      	str	r1, [r3, #0]
10002a44:	f382 8810 	msr	PRIMASK, r2
10002a48:	4770      	bx	lr
10002a4a:	46c0      	nop			; (mov r8, r8)
10002a4c:	e000ed00 	.word	0xe000ed00
10002a50:	d0000124 	.word	0xd0000124

10002a54 <make_branch>:
10002a54:	b510      	push	{r4, lr}
10002a56:	1a09      	subs	r1, r1, r0
10002a58:	1f08      	subs	r0, r1, #4
10002a5a:	4b0a      	ldr	r3, [pc, #40]	; (10002a84 <make_branch+0x30>)
10002a5c:	469c      	mov	ip, r3
10002a5e:	4461      	add	r1, ip
10002a60:	4a09      	ldr	r2, [pc, #36]	; (10002a88 <make_branch+0x34>)
10002a62:	4291      	cmp	r1, r2
10002a64:	d808      	bhi.n	10002a78 <make_branch+0x24>
10002a66:	07c3      	lsls	r3, r0, #31
10002a68:	d406      	bmi.n	10002a78 <make_branch+0x24>
10002a6a:	1040      	asrs	r0, r0, #1
10002a6c:	0540      	lsls	r0, r0, #21
10002a6e:	0d40      	lsrs	r0, r0, #21
10002a70:	4b06      	ldr	r3, [pc, #24]	; (10002a8c <make_branch+0x38>)
10002a72:	4318      	orrs	r0, r3
10002a74:	b280      	uxth	r0, r0
10002a76:	bd10      	pop	{r4, pc}
10002a78:	4b05      	ldr	r3, [pc, #20]	; (10002a90 <make_branch+0x3c>)
10002a7a:	4a06      	ldr	r2, [pc, #24]	; (10002a94 <make_branch+0x40>)
10002a7c:	2199      	movs	r1, #153	; 0x99
10002a7e:	4806      	ldr	r0, [pc, #24]	; (10002a98 <make_branch+0x44>)
10002a80:	f001 fd3e 	bl	10004500 <__assert_func>
10002a84:	000007fc 	.word	0x000007fc
10002a88:	00000ffe 	.word	0x00000ffe
10002a8c:	ffffe000 	.word	0xffffe000
10002a90:	1000b080 	.word	0x1000b080
10002a94:	1000b2e0 	.word	0x1000b2e0
10002a98:	1000b0b0 	.word	0x1000b0b0

10002a9c <insert_branch_and_link>:
10002a9c:	b510      	push	{r4, lr}
10002a9e:	1a09      	subs	r1, r1, r0
10002aa0:	3904      	subs	r1, #4
10002aa2:	084c      	lsrs	r4, r1, #1
10002aa4:	0b09      	lsrs	r1, r1, #12
10002aa6:	d108      	bne.n	10002aba <insert_branch_and_link+0x1e>
10002aa8:	0549      	lsls	r1, r1, #21
10002aaa:	0d49      	lsrs	r1, r1, #21
10002aac:	4a06      	ldr	r2, [pc, #24]	; (10002ac8 <insert_branch_and_link+0x2c>)
10002aae:	4311      	orrs	r1, r2
10002ab0:	8001      	strh	r1, [r0, #0]
10002ab2:	4b06      	ldr	r3, [pc, #24]	; (10002acc <insert_branch_and_link+0x30>)
10002ab4:	4323      	orrs	r3, r4
10002ab6:	8043      	strh	r3, [r0, #2]
10002ab8:	bd10      	pop	{r4, pc}
10002aba:	4b05      	ldr	r3, [pc, #20]	; (10002ad0 <insert_branch_and_link+0x34>)
10002abc:	4a05      	ldr	r2, [pc, #20]	; (10002ad4 <insert_branch_and_link+0x38>)
10002abe:	21a1      	movs	r1, #161	; 0xa1
10002ac0:	4805      	ldr	r0, [pc, #20]	; (10002ad8 <insert_branch_and_link+0x3c>)
10002ac2:	f001 fd1d 	bl	10004500 <__assert_func>
10002ac6:	46c0      	nop			; (mov r8, r8)
10002ac8:	fffff000 	.word	0xfffff000
10002acc:	fffff800 	.word	0xfffff800
10002ad0:	1000b0f0 	.word	0x1000b0f0
10002ad4:	1000b2b4 	.word	0x1000b2b4
10002ad8:	1000b0b0 	.word	0x1000b0b0

10002adc <irq_is_enabled>:
10002adc:	2301      	movs	r3, #1
10002ade:	4083      	lsls	r3, r0
10002ae0:	4a03      	ldr	r2, [pc, #12]	; (10002af0 <irq_is_enabled+0x14>)
10002ae2:	6810      	ldr	r0, [r2, #0]
10002ae4:	4018      	ands	r0, r3
10002ae6:	1e43      	subs	r3, r0, #1
10002ae8:	4198      	sbcs	r0, r3
10002aea:	b2c0      	uxtb	r0, r0
10002aec:	4770      	bx	lr
10002aee:	46c0      	nop			; (mov r8, r8)
10002af0:	e000e100 	.word	0xe000e100

10002af4 <irq_set_mask_enabled>:
10002af4:	2900      	cmp	r1, #0
10002af6:	d004      	beq.n	10002b02 <irq_set_mask_enabled+0xe>
10002af8:	4b03      	ldr	r3, [pc, #12]	; (10002b08 <irq_set_mask_enabled+0x14>)
10002afa:	6018      	str	r0, [r3, #0]
10002afc:	4b03      	ldr	r3, [pc, #12]	; (10002b0c <irq_set_mask_enabled+0x18>)
10002afe:	6018      	str	r0, [r3, #0]
10002b00:	4770      	bx	lr
10002b02:	4b03      	ldr	r3, [pc, #12]	; (10002b10 <irq_set_mask_enabled+0x1c>)
10002b04:	6018      	str	r0, [r3, #0]
10002b06:	e7fb      	b.n	10002b00 <irq_set_mask_enabled+0xc>
10002b08:	e000e280 	.word	0xe000e280
10002b0c:	e000e100 	.word	0xe000e100
10002b10:	e000e180 	.word	0xe000e180

10002b14 <irq_set_enabled>:
10002b14:	b510      	push	{r4, lr}
10002b16:	2301      	movs	r3, #1
10002b18:	4083      	lsls	r3, r0
10002b1a:	0018      	movs	r0, r3
10002b1c:	f7ff ffea 	bl	10002af4 <irq_set_mask_enabled>
10002b20:	bd10      	pop	{r4, pc}
	...

10002b24 <irq_set_pending>:
10002b24:	2301      	movs	r3, #1
10002b26:	4083      	lsls	r3, r0
10002b28:	4a01      	ldr	r2, [pc, #4]	; (10002b30 <irq_set_pending+0xc>)
10002b2a:	6013      	str	r3, [r2, #0]
10002b2c:	4770      	bx	lr
10002b2e:	46c0      	nop			; (mov r8, r8)
10002b30:	e000e200 	.word	0xe000e200

10002b34 <irq_get_vtable_handler>:
10002b34:	4b02      	ldr	r3, [pc, #8]	; (10002b40 <irq_get_vtable_handler+0xc>)
10002b36:	689b      	ldr	r3, [r3, #8]
10002b38:	3010      	adds	r0, #16
10002b3a:	0080      	lsls	r0, r0, #2
10002b3c:	58c0      	ldr	r0, [r0, r3]
10002b3e:	4770      	bx	lr
10002b40:	e000ed00 	.word	0xe000ed00

10002b44 <irq_has_shared_handler>:
10002b44:	b510      	push	{r4, lr}
10002b46:	f7ff fff5 	bl	10002b34 <irq_get_vtable_handler>
10002b4a:	2800      	cmp	r0, #0
10002b4c:	d005      	beq.n	10002b5a <irq_has_shared_handler+0x16>
10002b4e:	4b05      	ldr	r3, [pc, #20]	; (10002b64 <irq_has_shared_handler+0x20>)
10002b50:	1ac0      	subs	r0, r0, r3
10002b52:	282f      	cmp	r0, #47	; 0x2f
10002b54:	d803      	bhi.n	10002b5e <irq_has_shared_handler+0x1a>
10002b56:	2001      	movs	r0, #1
10002b58:	bd10      	pop	{r4, pc}
10002b5a:	2000      	movs	r0, #0
10002b5c:	e7fc      	b.n	10002b58 <irq_has_shared_handler+0x14>
10002b5e:	2000      	movs	r0, #0
10002b60:	e7fa      	b.n	10002b58 <irq_has_shared_handler+0x14>
10002b62:	46c0      	nop			; (mov r8, r8)
10002b64:	20000440 	.word	0x20000440

10002b68 <irq_set_exclusive_handler>:
10002b68:	b570      	push	{r4, r5, r6, lr}
10002b6a:	0004      	movs	r4, r0
10002b6c:	000d      	movs	r5, r1
10002b6e:	f3ef 8610 	mrs	r6, PRIMASK
10002b72:	b672      	cpsid	i
10002b74:	4b0c      	ldr	r3, [pc, #48]	; (10002ba8 <irq_set_exclusive_handler+0x40>)
10002b76:	681b      	ldr	r3, [r3, #0]
10002b78:	2b00      	cmp	r3, #0
10002b7a:	d0fb      	beq.n	10002b74 <irq_set_exclusive_handler+0xc>
10002b7c:	f3bf 8f5f 	dmb	sy
10002b80:	0020      	movs	r0, r4
10002b82:	f7ff ffd7 	bl	10002b34 <irq_get_vtable_handler>
10002b86:	4b09      	ldr	r3, [pc, #36]	; (10002bac <irq_set_exclusive_handler+0x44>)
10002b88:	4298      	cmp	r0, r3
10002b8a:	d001      	beq.n	10002b90 <irq_set_exclusive_handler+0x28>
10002b8c:	42a8      	cmp	r0, r5
10002b8e:	d105      	bne.n	10002b9c <irq_set_exclusive_handler+0x34>
10002b90:	0032      	movs	r2, r6
10002b92:	0029      	movs	r1, r5
10002b94:	0020      	movs	r0, r4
10002b96:	f7ff ff49 	bl	10002a2c <set_raw_irq_handler_and_unlock>
10002b9a:	bd70      	pop	{r4, r5, r6, pc}
10002b9c:	4b04      	ldr	r3, [pc, #16]	; (10002bb0 <irq_set_exclusive_handler+0x48>)
10002b9e:	4a05      	ldr	r2, [pc, #20]	; (10002bb4 <irq_set_exclusive_handler+0x4c>)
10002ba0:	217c      	movs	r1, #124	; 0x7c
10002ba2:	4805      	ldr	r0, [pc, #20]	; (10002bb8 <irq_set_exclusive_handler+0x50>)
10002ba4:	f001 fcac 	bl	10004500 <__assert_func>
10002ba8:	d0000124 	.word	0xd0000124
10002bac:	100001cd 	.word	0x100001cd
10002bb0:	1000b100 	.word	0x1000b100
10002bb4:	1000b314 	.word	0x1000b314
10002bb8:	1000b0b0 	.word	0x1000b0b0

10002bbc <irq_add_shared_handler>:
10002bbc:	b5f0      	push	{r4, r5, r6, r7, lr}
10002bbe:	46de      	mov	lr, fp
10002bc0:	4657      	mov	r7, sl
10002bc2:	464e      	mov	r6, r9
10002bc4:	4645      	mov	r5, r8
10002bc6:	b5e0      	push	{r5, r6, r7, lr}
10002bc8:	b089      	sub	sp, #36	; 0x24
10002bca:	4681      	mov	r9, r0
10002bcc:	9101      	str	r1, [sp, #4]
10002bce:	0015      	movs	r5, r2
10002bd0:	f3ef 8a10 	mrs	sl, PRIMASK
10002bd4:	b672      	cpsid	i
10002bd6:	4b74      	ldr	r3, [pc, #464]	; (10002da8 <irq_add_shared_handler+0x1ec>)
10002bd8:	681b      	ldr	r3, [r3, #0]
10002bda:	2b00      	cmp	r3, #0
10002bdc:	d0fb      	beq.n	10002bd6 <irq_add_shared_handler+0x1a>
10002bde:	f3bf 8f5f 	dmb	sy
10002be2:	4b72      	ldr	r3, [pc, #456]	; (10002dac <irq_add_shared_handler+0x1f0>)
10002be4:	2700      	movs	r7, #0
10002be6:	57df      	ldrsb	r7, [r3, r7]
10002be8:	2f00      	cmp	r7, #0
10002bea:	db40      	blt.n	10002c6e <irq_add_shared_handler+0xb2>
10002bec:	007c      	lsls	r4, r7, #1
10002bee:	19e4      	adds	r4, r4, r7
10002bf0:	00a4      	lsls	r4, r4, #2
10002bf2:	486f      	ldr	r0, [pc, #444]	; (10002db0 <irq_add_shared_handler+0x1f4>)
10002bf4:	1824      	adds	r4, r4, r0
10002bf6:	2206      	movs	r2, #6
10002bf8:	56a2      	ldrsb	r2, [r4, r2]
10002bfa:	4b6c      	ldr	r3, [pc, #432]	; (10002dac <irq_add_shared_handler+0x1f0>)
10002bfc:	701a      	strb	r2, [r3, #0]
10002bfe:	4b6d      	ldr	r3, [pc, #436]	; (10002db4 <irq_add_shared_handler+0x1f8>)
10002c00:	689a      	ldr	r2, [r3, #8]
10002c02:	464b      	mov	r3, r9
10002c04:	3310      	adds	r3, #16
10002c06:	009b      	lsls	r3, r3, #2
10002c08:	58d3      	ldr	r3, [r2, r3]
10002c0a:	4698      	mov	r8, r3
10002c0c:	001e      	movs	r6, r3
10002c0e:	1a1b      	subs	r3, r3, r0
10002c10:	2b2f      	cmp	r3, #47	; 0x2f
10002c12:	d938      	bls.n	10002c86 <irq_add_shared_handler+0xca>
10002c14:	4b68      	ldr	r3, [pc, #416]	; (10002db8 <irq_add_shared_handler+0x1fc>)
10002c16:	4598      	cmp	r8, r3
10002c18:	d12f      	bne.n	10002c7a <irq_add_shared_handler+0xbe>
10002c1a:	ae05      	add	r6, sp, #20
10002c1c:	4b67      	ldr	r3, [pc, #412]	; (10002dbc <irq_add_shared_handler+0x200>)
10002c1e:	8033      	strh	r3, [r6, #0]
10002c20:	007b      	lsls	r3, r7, #1
10002c22:	469b      	mov	fp, r3
10002c24:	19d8      	adds	r0, r3, r7
10002c26:	0080      	lsls	r0, r0, #2
10002c28:	4b61      	ldr	r3, [pc, #388]	; (10002db0 <irq_add_shared_handler+0x1f4>)
10002c2a:	4698      	mov	r8, r3
10002c2c:	4440      	add	r0, r8
10002c2e:	3002      	adds	r0, #2
10002c30:	4963      	ldr	r1, [pc, #396]	; (10002dc0 <irq_add_shared_handler+0x204>)
10002c32:	f7ff ff0f 	bl	10002a54 <make_branch>
10002c36:	8070      	strh	r0, [r6, #2]
10002c38:	4b62      	ldr	r3, [pc, #392]	; (10002dc4 <irq_add_shared_handler+0x208>)
10002c3a:	80b3      	strh	r3, [r6, #4]
10002c3c:	23ff      	movs	r3, #255	; 0xff
10002c3e:	71b3      	strb	r3, [r6, #6]
10002c40:	71f5      	strb	r5, [r6, #7]
10002c42:	9b01      	ldr	r3, [sp, #4]
10002c44:	9307      	str	r3, [sp, #28]
10002c46:	445f      	add	r7, fp
10002c48:	00bf      	lsls	r7, r7, #2
10002c4a:	4447      	add	r7, r8
10002c4c:	ce0e      	ldmia	r6!, {r1, r2, r3}
10002c4e:	c70e      	stmia	r7!, {r1, r2, r3}
10002c50:	2301      	movs	r3, #1
10002c52:	431c      	orrs	r4, r3
10002c54:	46a0      	mov	r8, r4
10002c56:	4652      	mov	r2, sl
10002c58:	4641      	mov	r1, r8
10002c5a:	4648      	mov	r0, r9
10002c5c:	f7ff fee6 	bl	10002a2c <set_raw_irq_handler_and_unlock>
10002c60:	b009      	add	sp, #36	; 0x24
10002c62:	bcf0      	pop	{r4, r5, r6, r7}
10002c64:	46bb      	mov	fp, r7
10002c66:	46b2      	mov	sl, r6
10002c68:	46a9      	mov	r9, r5
10002c6a:	46a0      	mov	r8, r4
10002c6c:	bdf0      	pop	{r4, r5, r6, r7, pc}
10002c6e:	4b56      	ldr	r3, [pc, #344]	; (10002dc8 <irq_add_shared_handler+0x20c>)
10002c70:	4a56      	ldr	r2, [pc, #344]	; (10002dcc <irq_add_shared_handler+0x210>)
10002c72:	21cd      	movs	r1, #205	; 0xcd
10002c74:	4856      	ldr	r0, [pc, #344]	; (10002dd0 <irq_add_shared_handler+0x214>)
10002c76:	f001 fc43 	bl	10004500 <__assert_func>
10002c7a:	4b56      	ldr	r3, [pc, #344]	; (10002dd4 <irq_add_shared_handler+0x218>)
10002c7c:	4a53      	ldr	r2, [pc, #332]	; (10002dcc <irq_add_shared_handler+0x210>)
10002c7e:	21d4      	movs	r1, #212	; 0xd4
10002c80:	4853      	ldr	r0, [pc, #332]	; (10002dd0 <irq_add_shared_handler+0x214>)
10002c82:	f001 fc3d 	bl	10004500 <__assert_func>
10002c86:	43c0      	mvns	r0, r0
10002c88:	4440      	add	r0, r8
10002c8a:	210c      	movs	r1, #12
10002c8c:	f003 f814 	bl	10005cb8 <__wrap___aeabi_uidiv>
10002c90:	2900      	cmp	r1, #0
10002c92:	d112      	bne.n	10002cba <irq_add_shared_handler+0xfe>
10002c94:	2301      	movs	r3, #1
10002c96:	439e      	bics	r6, r3
10002c98:	46b3      	mov	fp, r6
10002c9a:	0033      	movs	r3, r6
10002c9c:	2600      	movs	r6, #0
10002c9e:	79da      	ldrb	r2, [r3, #7]
10002ca0:	42aa      	cmp	r2, r5
10002ca2:	d911      	bls.n	10002cc8 <irq_add_shared_handler+0x10c>
10002ca4:	2106      	movs	r1, #6
10002ca6:	5659      	ldrsb	r1, [r3, r1]
10002ca8:	2900      	cmp	r1, #0
10002caa:	db0c      	blt.n	10002cc6 <irq_add_shared_handler+0x10a>
10002cac:	004a      	lsls	r2, r1, #1
10002cae:	1852      	adds	r2, r2, r1
10002cb0:	0092      	lsls	r2, r2, #2
10002cb2:	001e      	movs	r6, r3
10002cb4:	4b3e      	ldr	r3, [pc, #248]	; (10002db0 <irq_add_shared_handler+0x1f4>)
10002cb6:	189b      	adds	r3, r3, r2
10002cb8:	e7f1      	b.n	10002c9e <irq_add_shared_handler+0xe2>
10002cba:	4b47      	ldr	r3, [pc, #284]	; (10002dd8 <irq_add_shared_handler+0x21c>)
10002cbc:	4a43      	ldr	r2, [pc, #268]	; (10002dcc <irq_add_shared_handler+0x210>)
10002cbe:	21e0      	movs	r1, #224	; 0xe0
10002cc0:	4843      	ldr	r0, [pc, #268]	; (10002dd0 <irq_add_shared_handler+0x214>)
10002cc2:	f001 fc1d 	bl	10004500 <__assert_func>
10002cc6:	001e      	movs	r6, r3
10002cc8:	2e00      	cmp	r6, #0
10002cca:	d03b      	beq.n	10002d44 <irq_add_shared_handler+0x188>
10002ccc:	ab05      	add	r3, sp, #20
10002cce:	4a43      	ldr	r2, [pc, #268]	; (10002ddc <irq_add_shared_handler+0x220>)
10002cd0:	801a      	strh	r2, [r3, #0]
10002cd2:	3a81      	subs	r2, #129	; 0x81
10002cd4:	805a      	strh	r2, [r3, #2]
10002cd6:	2306      	movs	r3, #6
10002cd8:	56f3      	ldrsb	r3, [r6, r3]
10002cda:	9302      	str	r3, [sp, #8]
10002cdc:	2b00      	cmp	r3, #0
10002cde:	da18      	bge.n	10002d12 <irq_add_shared_handler+0x156>
10002ce0:	20bd      	movs	r0, #189	; 0xbd
10002ce2:	0200      	lsls	r0, r0, #8
10002ce4:	ab05      	add	r3, sp, #20
10002ce6:	469b      	mov	fp, r3
10002ce8:	8098      	strh	r0, [r3, #4]
10002cea:	9a02      	ldr	r2, [sp, #8]
10002cec:	719a      	strb	r2, [r3, #6]
10002cee:	71dd      	strb	r5, [r3, #7]
10002cf0:	9a01      	ldr	r2, [sp, #4]
10002cf2:	9207      	str	r2, [sp, #28]
10002cf4:	1d30      	adds	r0, r6, #4
10002cf6:	0021      	movs	r1, r4
10002cf8:	f7ff feac 	bl	10002a54 <make_branch>
10002cfc:	80b0      	strh	r0, [r6, #4]
10002cfe:	71b7      	strb	r7, [r6, #6]
10002d00:	007b      	lsls	r3, r7, #1
10002d02:	19db      	adds	r3, r3, r7
10002d04:	009b      	lsls	r3, r3, #2
10002d06:	4f2a      	ldr	r7, [pc, #168]	; (10002db0 <irq_add_shared_handler+0x1f4>)
10002d08:	18ff      	adds	r7, r7, r3
10002d0a:	465b      	mov	r3, fp
10002d0c:	cb07      	ldmia	r3!, {r0, r1, r2}
10002d0e:	c707      	stmia	r7!, {r0, r1, r2}
10002d10:	e7a1      	b.n	10002c56 <irq_add_shared_handler+0x9a>
10002d12:	0078      	lsls	r0, r7, #1
10002d14:	19c0      	adds	r0, r0, r7
10002d16:	0080      	lsls	r0, r0, #2
10002d18:	4b25      	ldr	r3, [pc, #148]	; (10002db0 <irq_add_shared_handler+0x1f4>)
10002d1a:	18c0      	adds	r0, r0, r3
10002d1c:	3004      	adds	r0, #4
10002d1e:	1d32      	adds	r2, r6, #4
10002d20:	88b3      	ldrh	r3, [r6, #4]
10002d22:	0ad9      	lsrs	r1, r3, #11
10002d24:	291c      	cmp	r1, #28
10002d26:	d107      	bne.n	10002d38 <irq_add_shared_handler+0x17c>
10002d28:	055b      	lsls	r3, r3, #21
10002d2a:	1559      	asrs	r1, r3, #21
10002d2c:	3102      	adds	r1, #2
10002d2e:	0049      	lsls	r1, r1, #1
10002d30:	1851      	adds	r1, r2, r1
10002d32:	f7ff fe8f 	bl	10002a54 <make_branch>
10002d36:	e7d5      	b.n	10002ce4 <irq_add_shared_handler+0x128>
10002d38:	4b29      	ldr	r3, [pc, #164]	; (10002de0 <irq_add_shared_handler+0x224>)
10002d3a:	4a2a      	ldr	r2, [pc, #168]	; (10002de4 <irq_add_shared_handler+0x228>)
10002d3c:	21a7      	movs	r1, #167	; 0xa7
10002d3e:	4824      	ldr	r0, [pc, #144]	; (10002dd0 <irq_add_shared_handler+0x214>)
10002d40:	f001 fbde 	bl	10004500 <__assert_func>
10002d44:	ae05      	add	r6, sp, #20
10002d46:	4b1d      	ldr	r3, [pc, #116]	; (10002dbc <irq_add_shared_handler+0x200>)
10002d48:	8033      	strh	r3, [r6, #0]
10002d4a:	007b      	lsls	r3, r7, #1
10002d4c:	9302      	str	r3, [sp, #8]
10002d4e:	19d8      	adds	r0, r3, r7
10002d50:	0080      	lsls	r0, r0, #2
10002d52:	4a17      	ldr	r2, [pc, #92]	; (10002db0 <irq_add_shared_handler+0x1f4>)
10002d54:	4690      	mov	r8, r2
10002d56:	0002      	movs	r2, r0
10002d58:	4442      	add	r2, r8
10002d5a:	9203      	str	r2, [sp, #12]
10002d5c:	1c90      	adds	r0, r2, #2
10002d5e:	4918      	ldr	r1, [pc, #96]	; (10002dc0 <irq_add_shared_handler+0x204>)
10002d60:	f7ff fe78 	bl	10002a54 <make_branch>
10002d64:	8070      	strh	r0, [r6, #2]
10002d66:	9a03      	ldr	r2, [sp, #12]
10002d68:	1d10      	adds	r0, r2, #4
10002d6a:	4659      	mov	r1, fp
10002d6c:	f7ff fe72 	bl	10002a54 <make_branch>
10002d70:	80b0      	strh	r0, [r6, #4]
10002d72:	4b1d      	ldr	r3, [pc, #116]	; (10002de8 <irq_add_shared_handler+0x22c>)
10002d74:	465a      	mov	r2, fp
10002d76:	4641      	mov	r1, r8
10002d78:	1a52      	subs	r2, r2, r1
10002d7a:	4152      	adcs	r2, r2
10002d7c:	4353      	muls	r3, r2
10002d7e:	0d1b      	lsrs	r3, r3, #20
10002d80:	71b3      	strb	r3, [r6, #6]
10002d82:	71f5      	strb	r5, [r6, #7]
10002d84:	9a01      	ldr	r2, [sp, #4]
10002d86:	9207      	str	r2, [sp, #28]
10002d88:	9b02      	ldr	r3, [sp, #8]
10002d8a:	469c      	mov	ip, r3
10002d8c:	4467      	add	r7, ip
10002d8e:	00bf      	lsls	r7, r7, #2
10002d90:	4447      	add	r7, r8
10002d92:	ce0e      	ldmia	r6!, {r1, r2, r3}
10002d94:	c70e      	stmia	r7!, {r1, r2, r3}
10002d96:	4b11      	ldr	r3, [pc, #68]	; (10002ddc <irq_add_shared_handler+0x220>)
10002d98:	465a      	mov	r2, fp
10002d9a:	8013      	strh	r3, [r2, #0]
10002d9c:	3b81      	subs	r3, #129	; 0x81
10002d9e:	8053      	strh	r3, [r2, #2]
10002da0:	2301      	movs	r3, #1
10002da2:	431c      	orrs	r4, r3
10002da4:	46a0      	mov	r8, r4
10002da6:	e756      	b.n	10002c56 <irq_add_shared_handler+0x9a>
10002da8:	d0000124 	.word	0xd0000124
10002dac:	2000214d 	.word	0x2000214d
10002db0:	20000440 	.word	0x20000440
10002db4:	e000ed00 	.word	0xe000ed00
10002db8:	100001cd 	.word	0x100001cd
10002dbc:	ffffa100 	.word	0xffffa100
10002dc0:	20000470 	.word	0x20000470
10002dc4:	ffffbd00 	.word	0xffffbd00
10002dc8:	1000b138 	.word	0x1000b138
10002dcc:	1000b2fc 	.word	0x1000b2fc
10002dd0:	1000b0b0 	.word	0x1000b0b0
10002dd4:	1000b160 	.word	0x1000b160
10002dd8:	1000b188 	.word	0x1000b188
10002ddc:	00004801 	.word	0x00004801
10002de0:	1000b1fc 	.word	0x1000b1fc
10002de4:	1000b2ec 	.word	0x1000b2ec
10002de8:	0000aaaa 	.word	0x0000aaaa

10002dec <irq_remove_handler>:
10002dec:	b5f0      	push	{r4, r5, r6, r7, lr}
10002dee:	46ce      	mov	lr, r9
10002df0:	4647      	mov	r7, r8
10002df2:	b580      	push	{r7, lr}
10002df4:	b083      	sub	sp, #12
10002df6:	0006      	movs	r6, r0
10002df8:	000d      	movs	r5, r1
10002dfa:	f3ef 8810 	mrs	r8, PRIMASK
10002dfe:	b672      	cpsid	i
10002e00:	4b56      	ldr	r3, [pc, #344]	; (10002f5c <irq_remove_handler+0x170>)
10002e02:	681b      	ldr	r3, [r3, #0]
10002e04:	2b00      	cmp	r3, #0
10002e06:	d0fb      	beq.n	10002e00 <irq_remove_handler+0x14>
10002e08:	f3bf 8f5f 	dmb	sy
10002e0c:	4b54      	ldr	r3, [pc, #336]	; (10002f60 <irq_remove_handler+0x174>)
10002e0e:	689a      	ldr	r2, [r3, #8]
10002e10:	0034      	movs	r4, r6
10002e12:	3410      	adds	r4, #16
10002e14:	00a3      	lsls	r3, r4, #2
10002e16:	58d7      	ldr	r7, [r2, r3]
10002e18:	4b52      	ldr	r3, [pc, #328]	; (10002f64 <irq_remove_handler+0x178>)
10002e1a:	429f      	cmp	r7, r3
10002e1c:	d007      	beq.n	10002e2e <irq_remove_handler+0x42>
10002e1e:	42af      	cmp	r7, r5
10002e20:	d100      	bne.n	10002e24 <irq_remove_handler+0x38>
10002e22:	e099      	b.n	10002f58 <irq_remove_handler+0x16c>
10002e24:	9701      	str	r7, [sp, #4]
10002e26:	4b50      	ldr	r3, [pc, #320]	; (10002f68 <irq_remove_handler+0x17c>)
10002e28:	1afb      	subs	r3, r7, r3
10002e2a:	2b2f      	cmp	r3, #47	; 0x2f
10002e2c:	d909      	bls.n	10002e42 <irq_remove_handler+0x56>
10002e2e:	4642      	mov	r2, r8
10002e30:	0039      	movs	r1, r7
10002e32:	0030      	movs	r0, r6
10002e34:	f7ff fdfa 	bl	10002a2c <set_raw_irq_handler_and_unlock>
10002e38:	b003      	add	sp, #12
10002e3a:	bcc0      	pop	{r6, r7}
10002e3c:	46b9      	mov	r9, r7
10002e3e:	46b0      	mov	r8, r6
10002e40:	bdf0      	pop	{r4, r5, r6, r7, pc}
10002e42:	0030      	movs	r0, r6
10002e44:	f7ff fe4a 	bl	10002adc <irq_is_enabled>
10002e48:	4681      	mov	r9, r0
10002e4a:	2100      	movs	r1, #0
10002e4c:	0030      	movs	r0, r6
10002e4e:	f7ff fe61 	bl	10002b14 <irq_set_enabled>
10002e52:	f3bf 8f5f 	dmb	sy
10002e56:	f7fd fa06 	bl	10000266 <__get_current_exception>
10002e5a:	2800      	cmp	r0, #0
10002e5c:	d001      	beq.n	10002e62 <irq_remove_handler+0x76>
10002e5e:	4284      	cmp	r4, r0
10002e60:	d111      	bne.n	10002e86 <irq_remove_handler+0x9a>
10002e62:	2301      	movs	r3, #1
10002e64:	9c01      	ldr	r4, [sp, #4]
10002e66:	439c      	bics	r4, r3
10002e68:	2200      	movs	r2, #0
10002e6a:	68a3      	ldr	r3, [r4, #8]
10002e6c:	42ab      	cmp	r3, r5
10002e6e:	d012      	beq.n	10002e96 <irq_remove_handler+0xaa>
10002e70:	2206      	movs	r2, #6
10002e72:	56a2      	ldrsb	r2, [r4, r2]
10002e74:	2a00      	cmp	r2, #0
10002e76:	db0d      	blt.n	10002e94 <irq_remove_handler+0xa8>
10002e78:	0053      	lsls	r3, r2, #1
10002e7a:	189b      	adds	r3, r3, r2
10002e7c:	009b      	lsls	r3, r3, #2
10002e7e:	0022      	movs	r2, r4
10002e80:	4c39      	ldr	r4, [pc, #228]	; (10002f68 <irq_remove_handler+0x17c>)
10002e82:	18e4      	adds	r4, r4, r3
10002e84:	e7f1      	b.n	10002e6a <irq_remove_handler+0x7e>
10002e86:	212c      	movs	r1, #44	; 0x2c
10002e88:	4b38      	ldr	r3, [pc, #224]	; (10002f6c <irq_remove_handler+0x180>)
10002e8a:	4a39      	ldr	r2, [pc, #228]	; (10002f70 <irq_remove_handler+0x184>)
10002e8c:	31ff      	adds	r1, #255	; 0xff
10002e8e:	4839      	ldr	r0, [pc, #228]	; (10002f74 <irq_remove_handler+0x188>)
10002e90:	f001 fb36 	bl	10004500 <__assert_func>
10002e94:	0022      	movs	r2, r4
10002e96:	42ab      	cmp	r3, r5
10002e98:	d157      	bne.n	10002f4a <irq_remove_handler+0x15e>
10002e9a:	2506      	movs	r5, #6
10002e9c:	5765      	ldrsb	r5, [r4, r5]
10002e9e:	2d00      	cmp	r5, #0
10002ea0:	db39      	blt.n	10002f16 <irq_remove_handler+0x12a>
10002ea2:	006b      	lsls	r3, r5, #1
10002ea4:	195b      	adds	r3, r3, r5
10002ea6:	009a      	lsls	r2, r3, #2
10002ea8:	4b2f      	ldr	r3, [pc, #188]	; (10002f68 <irq_remove_handler+0x17c>)
10002eaa:	189b      	adds	r3, r3, r2
10002eac:	689a      	ldr	r2, [r3, #8]
10002eae:	60a2      	str	r2, [r4, #8]
10002eb0:	79da      	ldrb	r2, [r3, #7]
10002eb2:	71e2      	strb	r2, [r4, #7]
10002eb4:	2206      	movs	r2, #6
10002eb6:	569a      	ldrsb	r2, [r3, r2]
10002eb8:	71a2      	strb	r2, [r4, #6]
10002eba:	799b      	ldrb	r3, [r3, #6]
10002ebc:	b25b      	sxtb	r3, r3
10002ebe:	2b00      	cmp	r3, #0
10002ec0:	da10      	bge.n	10002ee4 <irq_remove_handler+0xf8>
10002ec2:	20bd      	movs	r0, #189	; 0xbd
10002ec4:	0200      	lsls	r0, r0, #8
10002ec6:	80a0      	strh	r0, [r4, #4]
10002ec8:	006b      	lsls	r3, r5, #1
10002eca:	195b      	adds	r3, r3, r5
10002ecc:	009b      	lsls	r3, r3, #2
10002ece:	4a26      	ldr	r2, [pc, #152]	; (10002f68 <irq_remove_handler+0x17c>)
10002ed0:	18d3      	adds	r3, r2, r3
10002ed2:	4a29      	ldr	r2, [pc, #164]	; (10002f78 <irq_remove_handler+0x18c>)
10002ed4:	7811      	ldrb	r1, [r2, #0]
10002ed6:	7199      	strb	r1, [r3, #6]
10002ed8:	7015      	strb	r5, [r2, #0]
10002eda:	4649      	mov	r1, r9
10002edc:	0030      	movs	r0, r6
10002ede:	f7ff fe19 	bl	10002b14 <irq_set_enabled>
10002ee2:	e7a4      	b.n	10002e2e <irq_remove_handler+0x42>
10002ee4:	1d20      	adds	r0, r4, #4
10002ee6:	006b      	lsls	r3, r5, #1
10002ee8:	195b      	adds	r3, r3, r5
10002eea:	009b      	lsls	r3, r3, #2
10002eec:	4a1e      	ldr	r2, [pc, #120]	; (10002f68 <irq_remove_handler+0x17c>)
10002eee:	189b      	adds	r3, r3, r2
10002ef0:	1d1a      	adds	r2, r3, #4
10002ef2:	889b      	ldrh	r3, [r3, #4]
10002ef4:	0ad9      	lsrs	r1, r3, #11
10002ef6:	291c      	cmp	r1, #28
10002ef8:	d107      	bne.n	10002f0a <irq_remove_handler+0x11e>
10002efa:	055b      	lsls	r3, r3, #21
10002efc:	155b      	asrs	r3, r3, #21
10002efe:	3302      	adds	r3, #2
10002f00:	0059      	lsls	r1, r3, #1
10002f02:	1851      	adds	r1, r2, r1
10002f04:	f7ff fda6 	bl	10002a54 <make_branch>
10002f08:	e7dd      	b.n	10002ec6 <irq_remove_handler+0xda>
10002f0a:	4b1c      	ldr	r3, [pc, #112]	; (10002f7c <irq_remove_handler+0x190>)
10002f0c:	4a1c      	ldr	r2, [pc, #112]	; (10002f80 <irq_remove_handler+0x194>)
10002f0e:	21a7      	movs	r1, #167	; 0xa7
10002f10:	4818      	ldr	r0, [pc, #96]	; (10002f74 <irq_remove_handler+0x188>)
10002f12:	f001 faf5 	bl	10004500 <__assert_func>
10002f16:	2800      	cmp	r0, #0
10002f18:	d112      	bne.n	10002f40 <irq_remove_handler+0x154>
10002f1a:	2a00      	cmp	r2, #0
10002f1c:	d00e      	beq.n	10002f3c <irq_remove_handler+0x150>
10002f1e:	23ff      	movs	r3, #255	; 0xff
10002f20:	7193      	strb	r3, [r2, #6]
10002f22:	4b18      	ldr	r3, [pc, #96]	; (10002f84 <irq_remove_handler+0x198>)
10002f24:	8093      	strh	r3, [r2, #4]
10002f26:	4a14      	ldr	r2, [pc, #80]	; (10002f78 <irq_remove_handler+0x18c>)
10002f28:	7813      	ldrb	r3, [r2, #0]
10002f2a:	71a3      	strb	r3, [r4, #6]
10002f2c:	4b16      	ldr	r3, [pc, #88]	; (10002f88 <irq_remove_handler+0x19c>)
10002f2e:	490e      	ldr	r1, [pc, #56]	; (10002f68 <irq_remove_handler+0x17c>)
10002f30:	1a64      	subs	r4, r4, r1
10002f32:	4164      	adcs	r4, r4
10002f34:	4363      	muls	r3, r4
10002f36:	0d1b      	lsrs	r3, r3, #20
10002f38:	7013      	strb	r3, [r2, #0]
10002f3a:	e7ce      	b.n	10002eda <irq_remove_handler+0xee>
10002f3c:	4f09      	ldr	r7, [pc, #36]	; (10002f64 <irq_remove_handler+0x178>)
10002f3e:	e7f2      	b.n	10002f26 <irq_remove_handler+0x13a>
10002f40:	1d20      	adds	r0, r4, #4
10002f42:	4912      	ldr	r1, [pc, #72]	; (10002f8c <irq_remove_handler+0x1a0>)
10002f44:	f7ff fdaa 	bl	10002a9c <insert_branch_and_link>
10002f48:	e7c7      	b.n	10002eda <irq_remove_handler+0xee>
10002f4a:	2160      	movs	r1, #96	; 0x60
10002f4c:	4b10      	ldr	r3, [pc, #64]	; (10002f90 <irq_remove_handler+0x1a4>)
10002f4e:	4a08      	ldr	r2, [pc, #32]	; (10002f70 <irq_remove_handler+0x184>)
10002f50:	31ff      	adds	r1, #255	; 0xff
10002f52:	4808      	ldr	r0, [pc, #32]	; (10002f74 <irq_remove_handler+0x188>)
10002f54:	f001 fad4 	bl	10004500 <__assert_func>
10002f58:	4f02      	ldr	r7, [pc, #8]	; (10002f64 <irq_remove_handler+0x178>)
10002f5a:	e768      	b.n	10002e2e <irq_remove_handler+0x42>
10002f5c:	d0000124 	.word	0xd0000124
10002f60:	e000ed00 	.word	0xe000ed00
10002f64:	100001cd 	.word	0x100001cd
10002f68:	20000440 	.word	0x20000440
10002f6c:	1000b214 	.word	0x1000b214
10002f70:	1000b2cc 	.word	0x1000b2cc
10002f74:	1000b0b0 	.word	0x1000b0b0
10002f78:	2000214d 	.word	0x2000214d
10002f7c:	1000b1fc 	.word	0x1000b1fc
10002f80:	1000b2ec 	.word	0x1000b2ec
10002f84:	ffffbd00 	.word	0xffffbd00
10002f88:	0000aaaa 	.word	0x0000aaaa
10002f8c:	2000047a 	.word	0x2000047a
10002f90:	1000b238 	.word	0x1000b238

10002f94 <irq_add_tail_to_free_list>:
10002f94:	b570      	push	{r4, r5, r6, lr}
10002f96:	0004      	movs	r4, r0
10002f98:	2601      	movs	r6, #1
10002f9a:	4306      	orrs	r6, r0
10002f9c:	4b2d      	ldr	r3, [pc, #180]	; (10003054 <irq_add_tail_to_free_list+0xc0>)
10002f9e:	1af3      	subs	r3, r6, r3
10002fa0:	2b2f      	cmp	r3, #47	; 0x2f
10002fa2:	d828      	bhi.n	10002ff6 <irq_add_tail_to_free_list+0x62>
10002fa4:	f7fd f95f 	bl	10000266 <__get_current_exception>
10002fa8:	2800      	cmp	r0, #0
10002faa:	d02b      	beq.n	10003004 <irq_add_tail_to_free_list+0x70>
10002fac:	f3ef 8c10 	mrs	ip, PRIMASK
10002fb0:	b672      	cpsid	i
10002fb2:	4b29      	ldr	r3, [pc, #164]	; (10003058 <irq_add_tail_to_free_list+0xc4>)
10002fb4:	681b      	ldr	r3, [r3, #0]
10002fb6:	2b00      	cmp	r3, #0
10002fb8:	d0fb      	beq.n	10002fb2 <irq_add_tail_to_free_list+0x1e>
10002fba:	f3bf 8f5f 	dmb	sy
10002fbe:	4d27      	ldr	r5, [pc, #156]	; (1000305c <irq_add_tail_to_free_list+0xc8>)
10002fc0:	0022      	movs	r2, r4
10002fc2:	4924      	ldr	r1, [pc, #144]	; (10003054 <irq_add_tail_to_free_list+0xc0>)
10002fc4:	1a52      	subs	r2, r2, r1
10002fc6:	4152      	adcs	r2, r2
10002fc8:	4355      	muls	r5, r2
10002fca:	0d2d      	lsrs	r5, r5, #20
10002fcc:	b26d      	sxtb	r5, r5
10002fce:	4b24      	ldr	r3, [pc, #144]	; (10003060 <irq_add_tail_to_free_list+0xcc>)
10002fd0:	689b      	ldr	r3, [r3, #8]
10002fd2:	0080      	lsls	r0, r0, #2
10002fd4:	581b      	ldr	r3, [r3, r0]
10002fd6:	42b3      	cmp	r3, r6
10002fd8:	d01b      	beq.n	10003012 <irq_add_tail_to_free_list+0x7e>
10002fda:	2200      	movs	r2, #0
10002fdc:	2a03      	cmp	r2, #3
10002fde:	d832      	bhi.n	10003046 <irq_add_tail_to_free_list+0xb2>
10002fe0:	0053      	lsls	r3, r2, #1
10002fe2:	189b      	adds	r3, r3, r2
10002fe4:	009b      	lsls	r3, r3, #2
10002fe6:	491b      	ldr	r1, [pc, #108]	; (10003054 <irq_add_tail_to_free_list+0xc0>)
10002fe8:	18cb      	adds	r3, r1, r3
10002fea:	799b      	ldrb	r3, [r3, #6]
10002fec:	b25b      	sxtb	r3, r3
10002fee:	42ab      	cmp	r3, r5
10002ff0:	d01f      	beq.n	10003032 <irq_add_tail_to_free_list+0x9e>
10002ff2:	3201      	adds	r2, #1
10002ff4:	e7f2      	b.n	10002fdc <irq_add_tail_to_free_list+0x48>
10002ff6:	21c2      	movs	r1, #194	; 0xc2
10002ff8:	4b1a      	ldr	r3, [pc, #104]	; (10003064 <irq_add_tail_to_free_list+0xd0>)
10002ffa:	4a1b      	ldr	r2, [pc, #108]	; (10003068 <irq_add_tail_to_free_list+0xd4>)
10002ffc:	0049      	lsls	r1, r1, #1
10002ffe:	481b      	ldr	r0, [pc, #108]	; (1000306c <irq_add_tail_to_free_list+0xd8>)
10003000:	f001 fa7e 	bl	10004500 <__assert_func>
10003004:	2188      	movs	r1, #136	; 0x88
10003006:	4b1a      	ldr	r3, [pc, #104]	; (10003070 <irq_add_tail_to_free_list+0xdc>)
10003008:	4a17      	ldr	r2, [pc, #92]	; (10003068 <irq_add_tail_to_free_list+0xd4>)
1000300a:	31ff      	adds	r1, #255	; 0xff
1000300c:	4817      	ldr	r0, [pc, #92]	; (1000306c <irq_add_tail_to_free_list+0xd8>)
1000300e:	f001 fa77 	bl	10004500 <__assert_func>
10003012:	4b13      	ldr	r3, [pc, #76]	; (10003060 <irq_add_tail_to_free_list+0xcc>)
10003014:	689b      	ldr	r3, [r3, #8]
10003016:	4a17      	ldr	r2, [pc, #92]	; (10003074 <irq_add_tail_to_free_list+0xe0>)
10003018:	501a      	str	r2, [r3, r0]
1000301a:	4b17      	ldr	r3, [pc, #92]	; (10003078 <irq_add_tail_to_free_list+0xe4>)
1000301c:	781a      	ldrb	r2, [r3, #0]
1000301e:	71a2      	strb	r2, [r4, #6]
10003020:	701d      	strb	r5, [r3, #0]
10003022:	f3bf 8f5f 	dmb	sy
10003026:	4b0c      	ldr	r3, [pc, #48]	; (10003058 <irq_add_tail_to_free_list+0xc4>)
10003028:	2200      	movs	r2, #0
1000302a:	601a      	str	r2, [r3, #0]
1000302c:	f38c 8810 	msr	PRIMASK, ip
10003030:	bd70      	pop	{r4, r5, r6, pc}
10003032:	0008      	movs	r0, r1
10003034:	0053      	lsls	r3, r2, #1
10003036:	1899      	adds	r1, r3, r2
10003038:	0089      	lsls	r1, r1, #2
1000303a:	1841      	adds	r1, r0, r1
1000303c:	26ff      	movs	r6, #255	; 0xff
1000303e:	718e      	strb	r6, [r1, #6]
10003040:	4a0e      	ldr	r2, [pc, #56]	; (1000307c <irq_add_tail_to_free_list+0xe8>)
10003042:	808a      	strh	r2, [r1, #4]
10003044:	e7e9      	b.n	1000301a <irq_add_tail_to_free_list+0x86>
10003046:	21cc      	movs	r1, #204	; 0xcc
10003048:	4b0d      	ldr	r3, [pc, #52]	; (10003080 <irq_add_tail_to_free_list+0xec>)
1000304a:	4a07      	ldr	r2, [pc, #28]	; (10003068 <irq_add_tail_to_free_list+0xd4>)
1000304c:	0049      	lsls	r1, r1, #1
1000304e:	4807      	ldr	r0, [pc, #28]	; (1000306c <irq_add_tail_to_free_list+0xd8>)
10003050:	f001 fa56 	bl	10004500 <__assert_func>
10003054:	20000440 	.word	0x20000440
10003058:	d0000124 	.word	0xd0000124
1000305c:	0000aaaa 	.word	0x0000aaaa
10003060:	e000ed00 	.word	0xe000ed00
10003064:	1000b240 	.word	0x1000b240
10003068:	1000b298 	.word	0x1000b298
1000306c:	1000b0b0 	.word	0x1000b0b0
10003070:	1000b268 	.word	0x1000b268
10003074:	100001cd 	.word	0x100001cd
10003078:	2000214d 	.word	0x2000214d
1000307c:	ffffbd00 	.word	0xffffbd00
10003080:	1000b274 	.word	0x1000b274

10003084 <irq_init_priorities>:
10003084:	2200      	movs	r2, #0
10003086:	4b04      	ldr	r3, [pc, #16]	; (10003098 <irq_init_priorities+0x14>)
10003088:	e002      	b.n	10003090 <irq_init_priorities+0xc>
1000308a:	4904      	ldr	r1, [pc, #16]	; (1000309c <irq_init_priorities+0x18>)
1000308c:	c302      	stmia	r3!, {r1}
1000308e:	3201      	adds	r2, #1
10003090:	2a07      	cmp	r2, #7
10003092:	d9fa      	bls.n	1000308a <irq_init_priorities+0x6>
10003094:	4770      	bx	lr
10003096:	46c0      	nop			; (mov r8, r8)
10003098:	e000e400 	.word	0xe000e400
1000309c:	80808080 	.word	0x80808080

100030a0 <user_irq_claim_unused>:
100030a0:	b500      	push	{lr}
100030a2:	b083      	sub	sp, #12
100030a4:	0001      	movs	r1, r0
100030a6:	23d0      	movs	r3, #208	; 0xd0
100030a8:	061b      	lsls	r3, r3, #24
100030aa:	681b      	ldr	r3, [r3, #0]
100030ac:	4806      	ldr	r0, [pc, #24]	; (100030c8 <user_irq_claim_unused+0x28>)
100030ae:	18c0      	adds	r0, r0, r3
100030b0:	4b06      	ldr	r3, [pc, #24]	; (100030cc <user_irq_claim_unused+0x2c>)
100030b2:	9300      	str	r3, [sp, #0]
100030b4:	2305      	movs	r3, #5
100030b6:	2200      	movs	r2, #0
100030b8:	f7ff fc57 	bl	1000296a <hw_claim_unused_from_range>
100030bc:	2800      	cmp	r0, #0
100030be:	db01      	blt.n	100030c4 <user_irq_claim_unused+0x24>
100030c0:	231f      	movs	r3, #31
100030c2:	1a18      	subs	r0, r3, r0
100030c4:	b003      	add	sp, #12
100030c6:	bd00      	pop	{pc}
100030c8:	200020c8 	.word	0x200020c8
100030cc:	1000b27c 	.word	0x1000b27c

100030d0 <lock_init>:
100030d0:	4b02      	ldr	r3, [pc, #8]	; (100030dc <lock_init+0xc>)
100030d2:	469c      	mov	ip, r3
100030d4:	4461      	add	r1, ip
100030d6:	0089      	lsls	r1, r1, #2
100030d8:	6001      	str	r1, [r0, #0]
100030da:	4770      	bx	lr
100030dc:	34000040 	.word	0x34000040

100030e0 <repeating_timer_callback>:
100030e0:	b510      	push	{r4, lr}
100030e2:	000c      	movs	r4, r1
100030e4:	68cb      	ldr	r3, [r1, #12]
100030e6:	4283      	cmp	r3, r0
100030e8:	d107      	bne.n	100030fa <repeating_timer_callback+0x1a>
100030ea:	0008      	movs	r0, r1
100030ec:	690b      	ldr	r3, [r1, #16]
100030ee:	4798      	blx	r3
100030f0:	2800      	cmp	r0, #0
100030f2:	d009      	beq.n	10003108 <repeating_timer_callback+0x28>
100030f4:	6820      	ldr	r0, [r4, #0]
100030f6:	6861      	ldr	r1, [r4, #4]
100030f8:	bd10      	pop	{r4, pc}
100030fa:	2196      	movs	r1, #150	; 0x96
100030fc:	4b05      	ldr	r3, [pc, #20]	; (10003114 <repeating_timer_callback+0x34>)
100030fe:	4a06      	ldr	r2, [pc, #24]	; (10003118 <repeating_timer_callback+0x38>)
10003100:	0049      	lsls	r1, r1, #1
10003102:	4806      	ldr	r0, [pc, #24]	; (1000311c <repeating_timer_callback+0x3c>)
10003104:	f001 f9fc 	bl	10004500 <__assert_func>
10003108:	2300      	movs	r3, #0
1000310a:	60e3      	str	r3, [r4, #12]
1000310c:	2000      	movs	r0, #0
1000310e:	2100      	movs	r1, #0
10003110:	e7f2      	b.n	100030f8 <repeating_timer_callback+0x18>
10003112:	46c0      	nop			; (mov r8, r8)
10003114:	1000b330 	.word	0x1000b330
10003118:	1000b590 	.word	0x1000b590
1000311c:	1000b344 	.word	0x1000b344

10003120 <alarm_pool_post_alloc_init>:
10003120:	b570      	push	{r4, r5, r6, lr}
10003122:	0005      	movs	r5, r0
10003124:	000c      	movs	r4, r1
10003126:	0008      	movs	r0, r1
10003128:	f000 fe1a 	bl	10003d60 <hardware_alarm_claim>
1000312c:	0020      	movs	r0, r4
1000312e:	f000 feff 	bl	10003f30 <hardware_alarm_cancel>
10003132:	4908      	ldr	r1, [pc, #32]	; (10003154 <alarm_pool_post_alloc_init+0x34>)
10003134:	0020      	movs	r0, r4
10003136:	f000 fe3f 	bl	10003db8 <hardware_alarm_set_callback>
1000313a:	f7ff fc59 	bl	100029f0 <next_striped_spin_lock_num>
1000313e:	4b06      	ldr	r3, [pc, #24]	; (10003158 <alarm_pool_post_alloc_init+0x38>)
10003140:	469c      	mov	ip, r3
10003142:	4460      	add	r0, ip
10003144:	0080      	lsls	r0, r0, #2
10003146:	6068      	str	r0, [r5, #4]
10003148:	752c      	strb	r4, [r5, #20]
1000314a:	00a4      	lsls	r4, r4, #2
1000314c:	4b03      	ldr	r3, [pc, #12]	; (1000315c <alarm_pool_post_alloc_init+0x3c>)
1000314e:	50e5      	str	r5, [r4, r3]
10003150:	bd70      	pop	{r4, r5, r6, pc}
10003152:	46c0      	nop			; (mov r8, r8)
10003154:	10003465 	.word	0x10003465
10003158:	34000040 	.word	0x34000040
1000315c:	20001e38 	.word	0x20001e38

10003160 <sleep_until_callback>:
10003160:	4b0a      	ldr	r3, [pc, #40]	; (1000318c <sleep_until_callback+0x2c>)
10003162:	681a      	ldr	r2, [r3, #0]
10003164:	f3ef 8110 	mrs	r1, PRIMASK
10003168:	b672      	cpsid	i
1000316a:	6813      	ldr	r3, [r2, #0]
1000316c:	2b00      	cmp	r3, #0
1000316e:	d0fc      	beq.n	1000316a <sleep_until_callback+0xa>
10003170:	f3bf 8f5f 	dmb	sy
10003174:	4b05      	ldr	r3, [pc, #20]	; (1000318c <sleep_until_callback+0x2c>)
10003176:	681b      	ldr	r3, [r3, #0]
10003178:	f3bf 8f5f 	dmb	sy
1000317c:	2200      	movs	r2, #0
1000317e:	601a      	str	r2, [r3, #0]
10003180:	f381 8810 	msr	PRIMASK, r1
10003184:	bf40      	sev
10003186:	2000      	movs	r0, #0
10003188:	2100      	movs	r1, #0
1000318a:	4770      	bx	lr
1000318c:	20002064 	.word	0x20002064

10003190 <timer_pool_entry_comparator>:
10003190:	b510      	push	{r4, lr}
10003192:	2900      	cmp	r1, #0
10003194:	d022      	beq.n	100031dc <timer_pool_entry_comparator+0x4c>
10003196:	6803      	ldr	r3, [r0, #0]
10003198:	7b1b      	ldrb	r3, [r3, #12]
1000319a:	4299      	cmp	r1, r3
1000319c:	d81e      	bhi.n	100031dc <timer_pool_entry_comparator+0x4c>
1000319e:	4b17      	ldr	r3, [pc, #92]	; (100031fc <timer_pool_entry_comparator+0x6c>)
100031a0:	469c      	mov	ip, r3
100031a2:	4461      	add	r1, ip
100031a4:	0109      	lsls	r1, r1, #4
100031a6:	6883      	ldr	r3, [r0, #8]
100031a8:	469c      	mov	ip, r3
100031aa:	4461      	add	r1, ip
100031ac:	680c      	ldr	r4, [r1, #0]
100031ae:	6849      	ldr	r1, [r1, #4]
100031b0:	2a00      	cmp	r2, #0
100031b2:	d019      	beq.n	100031e8 <timer_pool_entry_comparator+0x58>
100031b4:	6803      	ldr	r3, [r0, #0]
100031b6:	7b1b      	ldrb	r3, [r3, #12]
100031b8:	429a      	cmp	r2, r3
100031ba:	d815      	bhi.n	100031e8 <timer_pool_entry_comparator+0x58>
100031bc:	6883      	ldr	r3, [r0, #8]
100031be:	480f      	ldr	r0, [pc, #60]	; (100031fc <timer_pool_entry_comparator+0x6c>)
100031c0:	4684      	mov	ip, r0
100031c2:	4462      	add	r2, ip
100031c4:	0112      	lsls	r2, r2, #4
100031c6:	189a      	adds	r2, r3, r2
100031c8:	6810      	ldr	r0, [r2, #0]
100031ca:	6853      	ldr	r3, [r2, #4]
100031cc:	0002      	movs	r2, r0
100031ce:	2001      	movs	r0, #1
100031d0:	428b      	cmp	r3, r1
100031d2:	d801      	bhi.n	100031d8 <timer_pool_entry_comparator+0x48>
100031d4:	d00e      	beq.n	100031f4 <timer_pool_entry_comparator+0x64>
100031d6:	2000      	movs	r0, #0
100031d8:	b2c0      	uxtb	r0, r0
100031da:	bd10      	pop	{r4, pc}
100031dc:	4b08      	ldr	r3, [pc, #32]	; (10003200 <timer_pool_entry_comparator+0x70>)
100031de:	4a09      	ldr	r2, [pc, #36]	; (10003204 <timer_pool_entry_comparator+0x74>)
100031e0:	213b      	movs	r1, #59	; 0x3b
100031e2:	4809      	ldr	r0, [pc, #36]	; (10003208 <timer_pool_entry_comparator+0x78>)
100031e4:	f001 f98c 	bl	10004500 <__assert_func>
100031e8:	4b05      	ldr	r3, [pc, #20]	; (10003200 <timer_pool_entry_comparator+0x70>)
100031ea:	4a06      	ldr	r2, [pc, #24]	; (10003204 <timer_pool_entry_comparator+0x74>)
100031ec:	213b      	movs	r1, #59	; 0x3b
100031ee:	4806      	ldr	r0, [pc, #24]	; (10003208 <timer_pool_entry_comparator+0x78>)
100031f0:	f001 f986 	bl	10004500 <__assert_func>
100031f4:	42a2      	cmp	r2, r4
100031f6:	d8ef      	bhi.n	100031d8 <timer_pool_entry_comparator+0x48>
100031f8:	e7ed      	b.n	100031d6 <timer_pool_entry_comparator+0x46>
100031fa:	46c0      	nop			; (mov r8, r8)
100031fc:	0fffffff 	.word	0x0fffffff
10003200:	1000b37c 	.word	0x1000b37c
10003204:	1000b5f8 	.word	0x1000b5f8
10003208:	1000b344 	.word	0x1000b344

1000320c <ph_add_child_node>:
1000320c:	b510      	push	{r4, lr}
1000320e:	2900      	cmp	r1, #0
10003210:	d01e      	beq.n	10003250 <ph_add_child_node+0x44>
10003212:	7b03      	ldrb	r3, [r0, #12]
10003214:	4299      	cmp	r1, r3
10003216:	d81b      	bhi.n	10003250 <ph_add_child_node+0x44>
10003218:	004b      	lsls	r3, r1, #1
1000321a:	185b      	adds	r3, r3, r1
1000321c:	3b03      	subs	r3, #3
1000321e:	6804      	ldr	r4, [r0, #0]
10003220:	46a4      	mov	ip, r4
10003222:	4463      	add	r3, ip
10003224:	2900      	cmp	r1, #0
10003226:	d019      	beq.n	1000325c <ph_add_child_node+0x50>
10003228:	2a00      	cmp	r2, #0
1000322a:	d01d      	beq.n	10003268 <ph_add_child_node+0x5c>
1000322c:	4291      	cmp	r1, r2
1000322e:	d021      	beq.n	10003274 <ph_add_child_node+0x68>
10003230:	2a00      	cmp	r2, #0
10003232:	d025      	beq.n	10003280 <ph_add_child_node+0x74>
10003234:	7b04      	ldrb	r4, [r0, #12]
10003236:	42a2      	cmp	r2, r4
10003238:	d822      	bhi.n	10003280 <ph_add_child_node+0x74>
1000323a:	6804      	ldr	r4, [r0, #0]
1000323c:	0050      	lsls	r0, r2, #1
1000323e:	1880      	adds	r0, r0, r2
10003240:	3803      	subs	r0, #3
10003242:	1820      	adds	r0, r4, r0
10003244:	7081      	strb	r1, [r0, #2]
10003246:	7819      	ldrb	r1, [r3, #0]
10003248:	2900      	cmp	r1, #0
1000324a:	d11f      	bne.n	1000328c <ph_add_child_node+0x80>
1000324c:	701a      	strb	r2, [r3, #0]
1000324e:	bd10      	pop	{r4, pc}
10003250:	4b10      	ldr	r3, [pc, #64]	; (10003294 <ph_add_child_node+0x88>)
10003252:	4a11      	ldr	r2, [pc, #68]	; (10003298 <ph_add_child_node+0x8c>)
10003254:	2168      	movs	r1, #104	; 0x68
10003256:	4811      	ldr	r0, [pc, #68]	; (1000329c <ph_add_child_node+0x90>)
10003258:	f001 f952 	bl	10004500 <__assert_func>
1000325c:	4b10      	ldr	r3, [pc, #64]	; (100032a0 <ph_add_child_node+0x94>)
1000325e:	4a11      	ldr	r2, [pc, #68]	; (100032a4 <ph_add_child_node+0x98>)
10003260:	316f      	adds	r1, #111	; 0x6f
10003262:	480e      	ldr	r0, [pc, #56]	; (1000329c <ph_add_child_node+0x90>)
10003264:	f001 f94c 	bl	10004500 <__assert_func>
10003268:	4b0f      	ldr	r3, [pc, #60]	; (100032a8 <ph_add_child_node+0x9c>)
1000326a:	4a0e      	ldr	r2, [pc, #56]	; (100032a4 <ph_add_child_node+0x98>)
1000326c:	2170      	movs	r1, #112	; 0x70
1000326e:	480b      	ldr	r0, [pc, #44]	; (1000329c <ph_add_child_node+0x90>)
10003270:	f001 f946 	bl	10004500 <__assert_func>
10003274:	4b0d      	ldr	r3, [pc, #52]	; (100032ac <ph_add_child_node+0xa0>)
10003276:	4a0b      	ldr	r2, [pc, #44]	; (100032a4 <ph_add_child_node+0x98>)
10003278:	2171      	movs	r1, #113	; 0x71
1000327a:	4808      	ldr	r0, [pc, #32]	; (1000329c <ph_add_child_node+0x90>)
1000327c:	f001 f940 	bl	10004500 <__assert_func>
10003280:	4b04      	ldr	r3, [pc, #16]	; (10003294 <ph_add_child_node+0x88>)
10003282:	4a05      	ldr	r2, [pc, #20]	; (10003298 <ph_add_child_node+0x8c>)
10003284:	2168      	movs	r1, #104	; 0x68
10003286:	4805      	ldr	r0, [pc, #20]	; (1000329c <ph_add_child_node+0x90>)
10003288:	f001 f93a 	bl	10004500 <__assert_func>
1000328c:	7041      	strb	r1, [r0, #1]
1000328e:	701a      	strb	r2, [r3, #0]
10003290:	e7dd      	b.n	1000324e <ph_add_child_node+0x42>
10003292:	46c0      	nop			; (mov r8, r8)
10003294:	1000b3b0 	.word	0x1000b3b0
10003298:	1000b664 	.word	0x1000b664
1000329c:	1000b3cc 	.word	0x1000b3cc
100032a0:	1000b418 	.word	0x1000b418
100032a4:	1000b640 	.word	0x1000b640
100032a8:	1000b424 	.word	0x1000b424
100032ac:	1000b430 	.word	0x1000b430

100032b0 <ph_merge_nodes>:
100032b0:	b570      	push	{r4, r5, r6, lr}
100032b2:	0006      	movs	r6, r0
100032b4:	000d      	movs	r5, r1
100032b6:	0014      	movs	r4, r2
100032b8:	2900      	cmp	r1, #0
100032ba:	d014      	beq.n	100032e6 <ph_merge_nodes+0x36>
100032bc:	2a00      	cmp	r2, #0
100032be:	d014      	beq.n	100032ea <ph_merge_nodes+0x3a>
100032c0:	6880      	ldr	r0, [r0, #8]
100032c2:	6873      	ldr	r3, [r6, #4]
100032c4:	4798      	blx	r3
100032c6:	2800      	cmp	r0, #0
100032c8:	d006      	beq.n	100032d8 <ph_merge_nodes+0x28>
100032ca:	0022      	movs	r2, r4
100032cc:	0029      	movs	r1, r5
100032ce:	0030      	movs	r0, r6
100032d0:	f7ff ff9c 	bl	1000320c <ph_add_child_node>
100032d4:	0028      	movs	r0, r5
100032d6:	e007      	b.n	100032e8 <ph_merge_nodes+0x38>
100032d8:	002a      	movs	r2, r5
100032da:	0021      	movs	r1, r4
100032dc:	0030      	movs	r0, r6
100032de:	f7ff ff95 	bl	1000320c <ph_add_child_node>
100032e2:	0020      	movs	r0, r4
100032e4:	e000      	b.n	100032e8 <ph_merge_nodes+0x38>
100032e6:	0010      	movs	r0, r2
100032e8:	bd70      	pop	{r4, r5, r6, pc}
100032ea:	0008      	movs	r0, r1
100032ec:	e7fc      	b.n	100032e8 <ph_merge_nodes+0x38>
	...

100032f0 <add_alarm_under_lock>:
100032f0:	b5f0      	push	{r4, r5, r6, r7, lr}
100032f2:	b083      	sub	sp, #12
100032f4:	0005      	movs	r5, r0
100032f6:	9200      	str	r2, [sp, #0]
100032f8:	9301      	str	r3, [sp, #4]
100032fa:	ab0a      	add	r3, sp, #40	; 0x28
100032fc:	781c      	ldrb	r4, [r3, #0]
100032fe:	ab0b      	add	r3, sp, #44	; 0x2c
10003300:	781f      	ldrb	r7, [r3, #0]
10003302:	2c00      	cmp	r4, #0
10003304:	d026      	beq.n	10003354 <add_alarm_under_lock+0x64>
10003306:	6803      	ldr	r3, [r0, #0]
10003308:	7b5a      	ldrb	r2, [r3, #13]
1000330a:	4294      	cmp	r4, r2
1000330c:	d107      	bne.n	1000331e <add_alarm_under_lock+0x2e>
1000330e:	2301      	movs	r3, #1
10003310:	2b00      	cmp	r3, #0
10003312:	d119      	bne.n	10003348 <add_alarm_under_lock+0x58>
10003314:	2c00      	cmp	r4, #0
10003316:	d13b      	bne.n	10003390 <add_alarm_under_lock+0xa0>
10003318:	0020      	movs	r0, r4
1000331a:	b003      	add	sp, #12
1000331c:	bdf0      	pop	{r4, r5, r6, r7, pc}
1000331e:	2c00      	cmp	r4, #0
10003320:	d00c      	beq.n	1000333c <add_alarm_under_lock+0x4c>
10003322:	7b1a      	ldrb	r2, [r3, #12]
10003324:	4294      	cmp	r4, r2
10003326:	d809      	bhi.n	1000333c <add_alarm_under_lock+0x4c>
10003328:	681a      	ldr	r2, [r3, #0]
1000332a:	0063      	lsls	r3, r4, #1
1000332c:	191b      	adds	r3, r3, r4
1000332e:	3b03      	subs	r3, #3
10003330:	18d3      	adds	r3, r2, r3
10003332:	789b      	ldrb	r3, [r3, #2]
10003334:	2b00      	cmp	r3, #0
10003336:	d0eb      	beq.n	10003310 <add_alarm_under_lock+0x20>
10003338:	2301      	movs	r3, #1
1000333a:	e7e9      	b.n	10003310 <add_alarm_under_lock+0x20>
1000333c:	4b3e      	ldr	r3, [pc, #248]	; (10003438 <add_alarm_under_lock+0x148>)
1000333e:	4a3f      	ldr	r2, [pc, #252]	; (1000343c <add_alarm_under_lock+0x14c>)
10003340:	2168      	movs	r1, #104	; 0x68
10003342:	483f      	ldr	r0, [pc, #252]	; (10003440 <add_alarm_under_lock+0x150>)
10003344:	f001 f8dc 	bl	10004500 <__assert_func>
10003348:	4b3e      	ldr	r3, [pc, #248]	; (10003444 <add_alarm_under_lock+0x154>)
1000334a:	4a3f      	ldr	r2, [pc, #252]	; (10003448 <add_alarm_under_lock+0x158>)
1000334c:	2165      	movs	r1, #101	; 0x65
1000334e:	483f      	ldr	r0, [pc, #252]	; (1000344c <add_alarm_under_lock+0x15c>)
10003350:	f001 f8d6 	bl	10004500 <__assert_func>
10003354:	6803      	ldr	r3, [r0, #0]
10003356:	7b9c      	ldrb	r4, [r3, #14]
10003358:	2c00      	cmp	r4, #0
1000335a:	d0db      	beq.n	10003314 <add_alarm_under_lock+0x24>
1000335c:	d012      	beq.n	10003384 <add_alarm_under_lock+0x94>
1000335e:	7b1a      	ldrb	r2, [r3, #12]
10003360:	4294      	cmp	r4, r2
10003362:	d80f      	bhi.n	10003384 <add_alarm_under_lock+0x94>
10003364:	0062      	lsls	r2, r4, #1
10003366:	1912      	adds	r2, r2, r4
10003368:	3a03      	subs	r2, #3
1000336a:	6819      	ldr	r1, [r3, #0]
1000336c:	468c      	mov	ip, r1
1000336e:	4462      	add	r2, ip
10003370:	7851      	ldrb	r1, [r2, #1]
10003372:	7399      	strb	r1, [r3, #14]
10003374:	2900      	cmp	r1, #0
10003376:	d100      	bne.n	1000337a <add_alarm_under_lock+0x8a>
10003378:	73d9      	strb	r1, [r3, #15]
1000337a:	2300      	movs	r3, #0
1000337c:	7093      	strb	r3, [r2, #2]
1000337e:	7053      	strb	r3, [r2, #1]
10003380:	7013      	strb	r3, [r2, #0]
10003382:	e7c7      	b.n	10003314 <add_alarm_under_lock+0x24>
10003384:	4b2c      	ldr	r3, [pc, #176]	; (10003438 <add_alarm_under_lock+0x148>)
10003386:	4a2d      	ldr	r2, [pc, #180]	; (1000343c <add_alarm_under_lock+0x14c>)
10003388:	2168      	movs	r1, #104	; 0x68
1000338a:	482d      	ldr	r0, [pc, #180]	; (10003440 <add_alarm_under_lock+0x150>)
1000338c:	f001 f8b8 	bl	10004500 <__assert_func>
10003390:	2c00      	cmp	r4, #0
10003392:	d03a      	beq.n	1000340a <add_alarm_under_lock+0x11a>
10003394:	682b      	ldr	r3, [r5, #0]
10003396:	7b1b      	ldrb	r3, [r3, #12]
10003398:	429c      	cmp	r4, r3
1000339a:	d836      	bhi.n	1000340a <add_alarm_under_lock+0x11a>
1000339c:	4b2c      	ldr	r3, [pc, #176]	; (10003450 <add_alarm_under_lock+0x160>)
1000339e:	18e3      	adds	r3, r4, r3
100033a0:	011b      	lsls	r3, r3, #4
100033a2:	68aa      	ldr	r2, [r5, #8]
100033a4:	4694      	mov	ip, r2
100033a6:	4463      	add	r3, ip
100033a8:	9a00      	ldr	r2, [sp, #0]
100033aa:	601a      	str	r2, [r3, #0]
100033ac:	9a01      	ldr	r2, [sp, #4]
100033ae:	605a      	str	r2, [r3, #4]
100033b0:	9a08      	ldr	r2, [sp, #32]
100033b2:	609a      	str	r2, [r3, #8]
100033b4:	9a09      	ldr	r2, [sp, #36]	; 0x24
100033b6:	60da      	str	r2, [r3, #12]
100033b8:	682e      	ldr	r6, [r5, #0]
100033ba:	2c00      	cmp	r4, #0
100033bc:	d02b      	beq.n	10003416 <add_alarm_under_lock+0x126>
100033be:	d030      	beq.n	10003422 <add_alarm_under_lock+0x132>
100033c0:	7b33      	ldrb	r3, [r6, #12]
100033c2:	429c      	cmp	r4, r3
100033c4:	d82d      	bhi.n	10003422 <add_alarm_under_lock+0x132>
100033c6:	0063      	lsls	r3, r4, #1
100033c8:	191b      	adds	r3, r3, r4
100033ca:	3b03      	subs	r3, #3
100033cc:	6832      	ldr	r2, [r6, #0]
100033ce:	4694      	mov	ip, r2
100033d0:	4463      	add	r3, ip
100033d2:	2200      	movs	r2, #0
100033d4:	709a      	strb	r2, [r3, #2]
100033d6:	705a      	strb	r2, [r3, #1]
100033d8:	701a      	strb	r2, [r3, #0]
100033da:	7b71      	ldrb	r1, [r6, #13]
100033dc:	0022      	movs	r2, r4
100033de:	0030      	movs	r0, r6
100033e0:	f7ff ff66 	bl	100032b0 <ph_merge_nodes>
100033e4:	7370      	strb	r0, [r6, #13]
100033e6:	4284      	cmp	r4, r0
100033e8:	d000      	beq.n	100033ec <add_alarm_under_lock+0xfc>
100033ea:	e795      	b.n	10003318 <add_alarm_under_lock+0x28>
100033ec:	7d28      	ldrb	r0, [r5, #20]
100033ee:	9a00      	ldr	r2, [sp, #0]
100033f0:	9b01      	ldr	r3, [sp, #4]
100033f2:	f000 fd29 	bl	10003e48 <hardware_alarm_set_target>
100033f6:	1e06      	subs	r6, r0, #0
100033f8:	d001      	beq.n	100033fe <add_alarm_under_lock+0x10e>
100033fa:	2f00      	cmp	r7, #0
100033fc:	d017      	beq.n	1000342e <add_alarm_under_lock+0x13e>
100033fe:	9b0c      	ldr	r3, [sp, #48]	; 0x30
10003400:	2b00      	cmp	r3, #0
10003402:	d100      	bne.n	10003406 <add_alarm_under_lock+0x116>
10003404:	e788      	b.n	10003318 <add_alarm_under_lock+0x28>
10003406:	701e      	strb	r6, [r3, #0]
10003408:	e786      	b.n	10003318 <add_alarm_under_lock+0x28>
1000340a:	4b12      	ldr	r3, [pc, #72]	; (10003454 <add_alarm_under_lock+0x164>)
1000340c:	4a12      	ldr	r2, [pc, #72]	; (10003458 <add_alarm_under_lock+0x168>)
1000340e:	213b      	movs	r1, #59	; 0x3b
10003410:	480e      	ldr	r0, [pc, #56]	; (1000344c <add_alarm_under_lock+0x15c>)
10003412:	f001 f875 	bl	10004500 <__assert_func>
10003416:	4b11      	ldr	r3, [pc, #68]	; (1000345c <add_alarm_under_lock+0x16c>)
10003418:	4a11      	ldr	r2, [pc, #68]	; (10003460 <add_alarm_under_lock+0x170>)
1000341a:	21a5      	movs	r1, #165	; 0xa5
1000341c:	4808      	ldr	r0, [pc, #32]	; (10003440 <add_alarm_under_lock+0x150>)
1000341e:	f001 f86f 	bl	10004500 <__assert_func>
10003422:	4b05      	ldr	r3, [pc, #20]	; (10003438 <add_alarm_under_lock+0x148>)
10003424:	4a05      	ldr	r2, [pc, #20]	; (1000343c <add_alarm_under_lock+0x14c>)
10003426:	2168      	movs	r1, #104	; 0x68
10003428:	4805      	ldr	r0, [pc, #20]	; (10003440 <add_alarm_under_lock+0x150>)
1000342a:	f001 f869 	bl	10004500 <__assert_func>
1000342e:	6828      	ldr	r0, [r5, #0]
10003430:	0021      	movs	r1, r4
10003432:	f000 ff31 	bl	10004298 <ph_remove_and_free_node>
10003436:	e7e2      	b.n	100033fe <add_alarm_under_lock+0x10e>
10003438:	1000b3b0 	.word	0x1000b3b0
1000343c:	1000b664 	.word	0x1000b664
10003440:	1000b3cc 	.word	0x1000b3cc
10003444:	1000b448 	.word	0x1000b448
10003448:	1000b670 	.word	0x1000b670
1000344c:	1000b344 	.word	0x1000b344
10003450:	0fffffff 	.word	0x0fffffff
10003454:	1000b37c 	.word	0x1000b37c
10003458:	1000b5f8 	.word	0x1000b5f8
1000345c:	1000b340 	.word	0x1000b340
10003460:	1000b654 	.word	0x1000b654

10003464 <alarm_pool_alarm_callback>:
10003464:	b5f0      	push	{r4, r5, r6, r7, lr}
10003466:	46de      	mov	lr, fp
10003468:	4657      	mov	r7, sl
1000346a:	464e      	mov	r6, r9
1000346c:	4645      	mov	r5, r8
1000346e:	b5e0      	push	{r5, r6, r7, lr}
10003470:	b08b      	sub	sp, #44	; 0x2c
10003472:	9009      	str	r0, [sp, #36]	; 0x24
10003474:	2300      	movs	r3, #0
10003476:	9308      	str	r3, [sp, #32]
10003478:	0082      	lsls	r2, r0, #2
1000347a:	4bb2      	ldr	r3, [pc, #712]	; (10003744 <alarm_pool_alarm_callback+0x2e0>)
1000347c:	58d6      	ldr	r6, [r2, r3]
1000347e:	0037      	movs	r7, r6
10003480:	e032      	b.n	100034e8 <alarm_pool_alarm_callback+0x84>
10003482:	4bb1      	ldr	r3, [pc, #708]	; (10003748 <alarm_pool_alarm_callback+0x2e4>)
10003484:	4ab1      	ldr	r2, [pc, #708]	; (1000374c <alarm_pool_alarm_callback+0x2e8>)
10003486:	213f      	movs	r1, #63	; 0x3f
10003488:	48b1      	ldr	r0, [pc, #708]	; (10003750 <alarm_pool_alarm_callback+0x2ec>)
1000348a:	f001 f839 	bl	10004500 <__assert_func>
1000348e:	4bb1      	ldr	r3, [pc, #708]	; (10003754 <alarm_pool_alarm_callback+0x2f0>)
10003490:	4ab1      	ldr	r2, [pc, #708]	; (10003758 <alarm_pool_alarm_callback+0x2f4>)
10003492:	213b      	movs	r1, #59	; 0x3b
10003494:	48b1      	ldr	r0, [pc, #708]	; (1000375c <alarm_pool_alarm_callback+0x2f8>)
10003496:	f001 f833 	bl	10004500 <__assert_func>
1000349a:	4bb1      	ldr	r3, [pc, #708]	; (10003760 <alarm_pool_alarm_callback+0x2fc>)
1000349c:	4ab1      	ldr	r2, [pc, #708]	; (10003764 <alarm_pool_alarm_callback+0x300>)
1000349e:	218c      	movs	r1, #140	; 0x8c
100034a0:	48ae      	ldr	r0, [pc, #696]	; (1000375c <alarm_pool_alarm_callback+0x2f8>)
100034a2:	f001 f82d 	bl	10004500 <__assert_func>
100034a6:	4bb0      	ldr	r3, [pc, #704]	; (10003768 <alarm_pool_alarm_callback+0x304>)
100034a8:	4aae      	ldr	r2, [pc, #696]	; (10003764 <alarm_pool_alarm_callback+0x300>)
100034aa:	2190      	movs	r1, #144	; 0x90
100034ac:	48ab      	ldr	r0, [pc, #684]	; (1000375c <alarm_pool_alarm_callback+0x2f8>)
100034ae:	f001 f827 	bl	10004500 <__assert_func>
100034b2:	4ba8      	ldr	r3, [pc, #672]	; (10003754 <alarm_pool_alarm_callback+0x2f0>)
100034b4:	4aad      	ldr	r2, [pc, #692]	; (1000376c <alarm_pool_alarm_callback+0x308>)
100034b6:	2140      	movs	r1, #64	; 0x40
100034b8:	48a8      	ldr	r0, [pc, #672]	; (1000375c <alarm_pool_alarm_callback+0x2f8>)
100034ba:	f001 f821 	bl	10004500 <__assert_func>
100034be:	682a      	ldr	r2, [r5, #0]
100034c0:	686b      	ldr	r3, [r5, #4]
100034c2:	9809      	ldr	r0, [sp, #36]	; 0x24
100034c4:	f000 fcc0 	bl	10003e48 <hardware_alarm_set_target>
100034c8:	2300      	movs	r3, #0
100034ca:	469a      	mov	sl, r3
100034cc:	4698      	mov	r8, r3
100034ce:	687b      	ldr	r3, [r7, #4]
100034d0:	f3bf 8f5f 	dmb	sy
100034d4:	2200      	movs	r2, #0
100034d6:	601a      	str	r2, [r3, #0]
100034d8:	f386 8810 	msr	PRIMASK, r6
100034dc:	4643      	mov	r3, r8
100034de:	2b00      	cmp	r3, #0
100034e0:	d151      	bne.n	10003586 <alarm_pool_alarm_callback+0x122>
100034e2:	2800      	cmp	r0, #0
100034e4:	d100      	bne.n	100034e8 <alarm_pool_alarm_callback+0x84>
100034e6:	e126      	b.n	10003736 <alarm_pool_alarm_callback+0x2d2>
100034e8:	f000 fc46 	bl	10003d78 <time_us_64>
100034ec:	0002      	movs	r2, r0
100034ee:	1e0b      	subs	r3, r1, #0
100034f0:	dbc7      	blt.n	10003482 <alarm_pool_alarm_callback+0x1e>
100034f2:	2000      	movs	r0, #0
100034f4:	2100      	movs	r1, #0
100034f6:	9006      	str	r0, [sp, #24]
100034f8:	9107      	str	r1, [sp, #28]
100034fa:	6878      	ldr	r0, [r7, #4]
100034fc:	f3ef 8610 	mrs	r6, PRIMASK
10003500:	b672      	cpsid	i
10003502:	6801      	ldr	r1, [r0, #0]
10003504:	2900      	cmp	r1, #0
10003506:	d0fc      	beq.n	10003502 <alarm_pool_alarm_callback+0x9e>
10003508:	f3bf 8f5f 	dmb	sy
1000350c:	6839      	ldr	r1, [r7, #0]
1000350e:	4688      	mov	r8, r1
10003510:	7b4c      	ldrb	r4, [r1, #13]
10003512:	2c00      	cmp	r4, #0
10003514:	d032      	beq.n	1000357c <alarm_pool_alarm_callback+0x118>
10003516:	d0ba      	beq.n	1000348e <alarm_pool_alarm_callback+0x2a>
10003518:	7b09      	ldrb	r1, [r1, #12]
1000351a:	428c      	cmp	r4, r1
1000351c:	d8b7      	bhi.n	1000348e <alarm_pool_alarm_callback+0x2a>
1000351e:	4994      	ldr	r1, [pc, #592]	; (10003770 <alarm_pool_alarm_callback+0x30c>)
10003520:	1865      	adds	r5, r4, r1
10003522:	012d      	lsls	r5, r5, #4
10003524:	68b9      	ldr	r1, [r7, #8]
10003526:	468c      	mov	ip, r1
10003528:	4465      	add	r5, ip
1000352a:	6828      	ldr	r0, [r5, #0]
1000352c:	6869      	ldr	r1, [r5, #4]
1000352e:	1a80      	subs	r0, r0, r2
10003530:	4199      	sbcs	r1, r3
10003532:	2900      	cmp	r1, #0
10003534:	dcc3      	bgt.n	100034be <alarm_pool_alarm_callback+0x5a>
10003536:	d101      	bne.n	1000353c <alarm_pool_alarm_callback+0xd8>
10003538:	2800      	cmp	r0, #0
1000353a:	d1c0      	bne.n	100034be <alarm_pool_alarm_callback+0x5a>
1000353c:	2100      	movs	r1, #0
1000353e:	4640      	mov	r0, r8
10003540:	f000 fea0 	bl	10004284 <ph_remove_head>
10003544:	42a0      	cmp	r0, r4
10003546:	d1a8      	bne.n	1000349a <alarm_pool_alarm_callback+0x36>
10003548:	682a      	ldr	r2, [r5, #0]
1000354a:	686b      	ldr	r3, [r5, #4]
1000354c:	9206      	str	r2, [sp, #24]
1000354e:	9307      	str	r3, [sp, #28]
10003550:	68ab      	ldr	r3, [r5, #8]
10003552:	4698      	mov	r8, r3
10003554:	68eb      	ldr	r3, [r5, #12]
10003556:	469a      	mov	sl, r3
10003558:	4643      	mov	r3, r8
1000355a:	2b00      	cmp	r3, #0
1000355c:	d0a3      	beq.n	100034a6 <alarm_pool_alarm_callback+0x42>
1000355e:	2c00      	cmp	r4, #0
10003560:	d0a7      	beq.n	100034b2 <alarm_pool_alarm_callback+0x4e>
10003562:	683b      	ldr	r3, [r7, #0]
10003564:	7b1b      	ldrb	r3, [r3, #12]
10003566:	429c      	cmp	r4, r3
10003568:	d8a3      	bhi.n	100034b2 <alarm_pool_alarm_callback+0x4e>
1000356a:	1e63      	subs	r3, r4, #1
1000356c:	68fa      	ldr	r2, [r7, #12]
1000356e:	5cd3      	ldrb	r3, [r2, r3]
10003570:	9308      	str	r3, [sp, #32]
10003572:	021b      	lsls	r3, r3, #8
10003574:	4318      	orrs	r0, r3
10003576:	6138      	str	r0, [r7, #16]
10003578:	2000      	movs	r0, #0
1000357a:	e7a8      	b.n	100034ce <alarm_pool_alarm_callback+0x6a>
1000357c:	2300      	movs	r3, #0
1000357e:	469a      	mov	sl, r3
10003580:	4698      	mov	r8, r3
10003582:	2000      	movs	r0, #0
10003584:	e7a3      	b.n	100034ce <alarm_pool_alarm_callback+0x6a>
10003586:	9b08      	ldr	r3, [sp, #32]
10003588:	021b      	lsls	r3, r3, #8
1000358a:	4323      	orrs	r3, r4
1000358c:	4699      	mov	r9, r3
1000358e:	4651      	mov	r1, sl
10003590:	0018      	movs	r0, r3
10003592:	47c0      	blx	r8
10003594:	0005      	movs	r5, r0
10003596:	000e      	movs	r6, r1
10003598:	687a      	ldr	r2, [r7, #4]
1000359a:	f3ef 8b10 	mrs	fp, PRIMASK
1000359e:	b672      	cpsid	i
100035a0:	6813      	ldr	r3, [r2, #0]
100035a2:	4259      	negs	r1, r3
100035a4:	414b      	adcs	r3, r1
100035a6:	b2d9      	uxtb	r1, r3
100035a8:	2b00      	cmp	r3, #0
100035aa:	d1f9      	bne.n	100035a0 <alarm_pool_alarm_callback+0x13c>
100035ac:	f3bf 8f5f 	dmb	sy
100035b0:	2e00      	cmp	r6, #0
100035b2:	db26      	blt.n	10003602 <alarm_pool_alarm_callback+0x19e>
100035b4:	2e00      	cmp	r6, #0
100035b6:	dd52      	ble.n	1000365e <alarm_pool_alarm_callback+0x1fa>
100035b8:	693b      	ldr	r3, [r7, #16]
100035ba:	2b00      	cmp	r3, #0
100035bc:	d053      	beq.n	10003666 <alarm_pool_alarm_callback+0x202>
100035be:	454b      	cmp	r3, r9
100035c0:	d172      	bne.n	100036a8 <alarm_pool_alarm_callback+0x244>
100035c2:	f000 fbd9 	bl	10003d78 <time_us_64>
100035c6:	0002      	movs	r2, r0
100035c8:	1e0b      	subs	r3, r1, #0
100035ca:	db73      	blt.n	100036b4 <alarm_pool_alarm_callback+0x250>
100035cc:	0001      	movs	r1, r0
100035ce:	0018      	movs	r0, r3
100035d0:	1952      	adds	r2, r2, r5
100035d2:	4173      	adcs	r3, r6
100035d4:	4298      	cmp	r0, r3
100035d6:	d802      	bhi.n	100035de <alarm_pool_alarm_callback+0x17a>
100035d8:	d104      	bne.n	100035e4 <alarm_pool_alarm_callback+0x180>
100035da:	4291      	cmp	r1, r2
100035dc:	d902      	bls.n	100035e4 <alarm_pool_alarm_callback+0x180>
100035de:	2201      	movs	r2, #1
100035e0:	4252      	negs	r2, r2
100035e2:	17d3      	asrs	r3, r2, #31
100035e4:	2b00      	cmp	r3, #0
100035e6:	db6b      	blt.n	100036c0 <alarm_pool_alarm_callback+0x25c>
100035e8:	2100      	movs	r1, #0
100035ea:	9104      	str	r1, [sp, #16]
100035ec:	3101      	adds	r1, #1
100035ee:	9103      	str	r1, [sp, #12]
100035f0:	9402      	str	r4, [sp, #8]
100035f2:	4651      	mov	r1, sl
100035f4:	9101      	str	r1, [sp, #4]
100035f6:	4641      	mov	r1, r8
100035f8:	9100      	str	r1, [sp, #0]
100035fa:	0038      	movs	r0, r7
100035fc:	f7ff fe78 	bl	100032f0 <add_alarm_under_lock>
10003600:	e049      	b.n	10003696 <alarm_pool_alarm_callback+0x232>
10003602:	693b      	ldr	r3, [r7, #16]
10003604:	2b00      	cmp	r3, #0
10003606:	d0d5      	beq.n	100035b4 <alarm_pool_alarm_callback+0x150>
10003608:	454b      	cmp	r3, r9
1000360a:	d11c      	bne.n	10003646 <alarm_pool_alarm_callback+0x1e2>
1000360c:	9a06      	ldr	r2, [sp, #24]
1000360e:	9b07      	ldr	r3, [sp, #28]
10003610:	0010      	movs	r0, r2
10003612:	0019      	movs	r1, r3
10003614:	1b52      	subs	r2, r2, r5
10003616:	41b3      	sbcs	r3, r6
10003618:	4299      	cmp	r1, r3
1000361a:	d802      	bhi.n	10003622 <alarm_pool_alarm_callback+0x1be>
1000361c:	d104      	bne.n	10003628 <alarm_pool_alarm_callback+0x1c4>
1000361e:	4290      	cmp	r0, r2
10003620:	d902      	bls.n	10003628 <alarm_pool_alarm_callback+0x1c4>
10003622:	2201      	movs	r2, #1
10003624:	4252      	negs	r2, r2
10003626:	17d3      	asrs	r3, r2, #31
10003628:	2b00      	cmp	r3, #0
1000362a:	db12      	blt.n	10003652 <alarm_pool_alarm_callback+0x1ee>
1000362c:	2100      	movs	r1, #0
1000362e:	9104      	str	r1, [sp, #16]
10003630:	3101      	adds	r1, #1
10003632:	9103      	str	r1, [sp, #12]
10003634:	9402      	str	r4, [sp, #8]
10003636:	4651      	mov	r1, sl
10003638:	9101      	str	r1, [sp, #4]
1000363a:	4641      	mov	r1, r8
1000363c:	9100      	str	r1, [sp, #0]
1000363e:	0038      	movs	r0, r7
10003640:	f7ff fe56 	bl	100032f0 <add_alarm_under_lock>
10003644:	e027      	b.n	10003696 <alarm_pool_alarm_callback+0x232>
10003646:	4b4b      	ldr	r3, [pc, #300]	; (10003774 <alarm_pool_alarm_callback+0x310>)
10003648:	4a46      	ldr	r2, [pc, #280]	; (10003764 <alarm_pool_alarm_callback+0x300>)
1000364a:	219f      	movs	r1, #159	; 0x9f
1000364c:	4843      	ldr	r0, [pc, #268]	; (1000375c <alarm_pool_alarm_callback+0x2f8>)
1000364e:	f000 ff57 	bl	10004500 <__assert_func>
10003652:	4b3d      	ldr	r3, [pc, #244]	; (10003748 <alarm_pool_alarm_callback+0x2e4>)
10003654:	4a3d      	ldr	r2, [pc, #244]	; (1000374c <alarm_pool_alarm_callback+0x2e8>)
10003656:	213f      	movs	r1, #63	; 0x3f
10003658:	483d      	ldr	r0, [pc, #244]	; (10003750 <alarm_pool_alarm_callback+0x2ec>)
1000365a:	f000 ff51 	bl	10004500 <__assert_func>
1000365e:	2e00      	cmp	r6, #0
10003660:	d101      	bne.n	10003666 <alarm_pool_alarm_callback+0x202>
10003662:	2d00      	cmp	r5, #0
10003664:	d1a8      	bne.n	100035b8 <alarm_pool_alarm_callback+0x154>
10003666:	683a      	ldr	r2, [r7, #0]
10003668:	2c00      	cmp	r4, #0
1000366a:	d045      	beq.n	100036f8 <alarm_pool_alarm_callback+0x294>
1000366c:	7b53      	ldrb	r3, [r2, #13]
1000366e:	429c      	cmp	r4, r3
10003670:	d12c      	bne.n	100036cc <alarm_pool_alarm_callback+0x268>
10003672:	2101      	movs	r1, #1
10003674:	2900      	cmp	r1, #0
10003676:	d13f      	bne.n	100036f8 <alarm_pool_alarm_callback+0x294>
10003678:	7bd3      	ldrb	r3, [r2, #15]
1000367a:	2b00      	cmp	r3, #0
1000367c:	d142      	bne.n	10003704 <alarm_pool_alarm_callback+0x2a0>
1000367e:	73d4      	strb	r4, [r2, #15]
10003680:	2c00      	cmp	r4, #0
10003682:	d052      	beq.n	1000372a <alarm_pool_alarm_callback+0x2c6>
10003684:	683b      	ldr	r3, [r7, #0]
10003686:	7b1b      	ldrb	r3, [r3, #12]
10003688:	429c      	cmp	r4, r3
1000368a:	d84e      	bhi.n	1000372a <alarm_pool_alarm_callback+0x2c6>
1000368c:	68fa      	ldr	r2, [r7, #12]
1000368e:	3c01      	subs	r4, #1
10003690:	5d13      	ldrb	r3, [r2, r4]
10003692:	3301      	adds	r3, #1
10003694:	5513      	strb	r3, [r2, r4]
10003696:	2300      	movs	r3, #0
10003698:	613b      	str	r3, [r7, #16]
1000369a:	687a      	ldr	r2, [r7, #4]
1000369c:	f3bf 8f5f 	dmb	sy
100036a0:	6013      	str	r3, [r2, #0]
100036a2:	f38b 8810 	msr	PRIMASK, fp
100036a6:	e71f      	b.n	100034e8 <alarm_pool_alarm_callback+0x84>
100036a8:	4b32      	ldr	r3, [pc, #200]	; (10003774 <alarm_pool_alarm_callback+0x310>)
100036aa:	4a2e      	ldr	r2, [pc, #184]	; (10003764 <alarm_pool_alarm_callback+0x300>)
100036ac:	21a2      	movs	r1, #162	; 0xa2
100036ae:	482b      	ldr	r0, [pc, #172]	; (1000375c <alarm_pool_alarm_callback+0x2f8>)
100036b0:	f000 ff26 	bl	10004500 <__assert_func>
100036b4:	4b24      	ldr	r3, [pc, #144]	; (10003748 <alarm_pool_alarm_callback+0x2e4>)
100036b6:	4a25      	ldr	r2, [pc, #148]	; (1000374c <alarm_pool_alarm_callback+0x2e8>)
100036b8:	213f      	movs	r1, #63	; 0x3f
100036ba:	4825      	ldr	r0, [pc, #148]	; (10003750 <alarm_pool_alarm_callback+0x2ec>)
100036bc:	f000 ff20 	bl	10004500 <__assert_func>
100036c0:	4b21      	ldr	r3, [pc, #132]	; (10003748 <alarm_pool_alarm_callback+0x2e4>)
100036c2:	4a22      	ldr	r2, [pc, #136]	; (1000374c <alarm_pool_alarm_callback+0x2e8>)
100036c4:	213f      	movs	r1, #63	; 0x3f
100036c6:	4822      	ldr	r0, [pc, #136]	; (10003750 <alarm_pool_alarm_callback+0x2ec>)
100036c8:	f000 ff1a 	bl	10004500 <__assert_func>
100036cc:	2c00      	cmp	r4, #0
100036ce:	d00d      	beq.n	100036ec <alarm_pool_alarm_callback+0x288>
100036d0:	7b13      	ldrb	r3, [r2, #12]
100036d2:	429c      	cmp	r4, r3
100036d4:	d80a      	bhi.n	100036ec <alarm_pool_alarm_callback+0x288>
100036d6:	0063      	lsls	r3, r4, #1
100036d8:	191b      	adds	r3, r3, r4
100036da:	3b03      	subs	r3, #3
100036dc:	6810      	ldr	r0, [r2, #0]
100036de:	4684      	mov	ip, r0
100036e0:	4463      	add	r3, ip
100036e2:	789b      	ldrb	r3, [r3, #2]
100036e4:	2b00      	cmp	r3, #0
100036e6:	d0c5      	beq.n	10003674 <alarm_pool_alarm_callback+0x210>
100036e8:	2101      	movs	r1, #1
100036ea:	e7c3      	b.n	10003674 <alarm_pool_alarm_callback+0x210>
100036ec:	4b22      	ldr	r3, [pc, #136]	; (10003778 <alarm_pool_alarm_callback+0x314>)
100036ee:	4a23      	ldr	r2, [pc, #140]	; (1000377c <alarm_pool_alarm_callback+0x318>)
100036f0:	2168      	movs	r1, #104	; 0x68
100036f2:	4823      	ldr	r0, [pc, #140]	; (10003780 <alarm_pool_alarm_callback+0x31c>)
100036f4:	f000 ff04 	bl	10004500 <__assert_func>
100036f8:	4b22      	ldr	r3, [pc, #136]	; (10003784 <alarm_pool_alarm_callback+0x320>)
100036fa:	4a23      	ldr	r2, [pc, #140]	; (10003788 <alarm_pool_alarm_callback+0x324>)
100036fc:	21f6      	movs	r1, #246	; 0xf6
100036fe:	4820      	ldr	r0, [pc, #128]	; (10003780 <alarm_pool_alarm_callback+0x31c>)
10003700:	f000 fefe 	bl	10004500 <__assert_func>
10003704:	2b00      	cmp	r3, #0
10003706:	d00a      	beq.n	1000371e <alarm_pool_alarm_callback+0x2ba>
10003708:	7b11      	ldrb	r1, [r2, #12]
1000370a:	428b      	cmp	r3, r1
1000370c:	d807      	bhi.n	1000371e <alarm_pool_alarm_callback+0x2ba>
1000370e:	0059      	lsls	r1, r3, #1
10003710:	18cb      	adds	r3, r1, r3
10003712:	3b03      	subs	r3, #3
10003714:	6811      	ldr	r1, [r2, #0]
10003716:	468c      	mov	ip, r1
10003718:	4463      	add	r3, ip
1000371a:	705c      	strb	r4, [r3, #1]
1000371c:	e7af      	b.n	1000367e <alarm_pool_alarm_callback+0x21a>
1000371e:	4b16      	ldr	r3, [pc, #88]	; (10003778 <alarm_pool_alarm_callback+0x314>)
10003720:	4a16      	ldr	r2, [pc, #88]	; (1000377c <alarm_pool_alarm_callback+0x318>)
10003722:	2168      	movs	r1, #104	; 0x68
10003724:	4816      	ldr	r0, [pc, #88]	; (10003780 <alarm_pool_alarm_callback+0x31c>)
10003726:	f000 feeb 	bl	10004500 <__assert_func>
1000372a:	4b0a      	ldr	r3, [pc, #40]	; (10003754 <alarm_pool_alarm_callback+0x2f0>)
1000372c:	4a0f      	ldr	r2, [pc, #60]	; (1000376c <alarm_pool_alarm_callback+0x308>)
1000372e:	2140      	movs	r1, #64	; 0x40
10003730:	480a      	ldr	r0, [pc, #40]	; (1000375c <alarm_pool_alarm_callback+0x2f8>)
10003732:	f000 fee5 	bl	10004500 <__assert_func>
10003736:	b00b      	add	sp, #44	; 0x2c
10003738:	bcf0      	pop	{r4, r5, r6, r7}
1000373a:	46bb      	mov	fp, r7
1000373c:	46b2      	mov	sl, r6
1000373e:	46a9      	mov	r9, r5
10003740:	46a0      	mov	r8, r4
10003742:	bdf0      	pop	{r4, r5, r6, r7, pc}
10003744:	20001e38 	.word	0x20001e38
10003748:	1000ab18 	.word	0x1000ab18
1000374c:	1000b5c4 	.word	0x1000b5c4
10003750:	1000ab34 	.word	0x1000ab34
10003754:	1000b37c 	.word	0x1000b37c
10003758:	1000b5f8 	.word	0x1000b5f8
1000375c:	1000b344 	.word	0x1000b344
10003760:	1000b470 	.word	0x1000b470
10003764:	1000b5dc 	.word	0x1000b5dc
10003768:	1000b488 	.word	0x1000b488
1000376c:	1000b61c 	.word	0x1000b61c
10003770:	0fffffff 	.word	0x0fffffff
10003774:	1000b494 	.word	0x1000b494
10003778:	1000b3b0 	.word	0x1000b3b0
1000377c:	1000b664 	.word	0x1000b664
10003780:	1000b3cc 	.word	0x1000b3cc
10003784:	1000b4d0 	.word	0x1000b4d0
10003788:	1000b630 	.word	0x1000b630

1000378c <alarm_pool_init_default>:
1000378c:	b510      	push	{r4, lr}
1000378e:	4b0a      	ldr	r3, [pc, #40]	; (100037b8 <alarm_pool_init_default+0x2c>)
10003790:	685b      	ldr	r3, [r3, #4]
10003792:	2b00      	cmp	r3, #0
10003794:	d004      	beq.n	100037a0 <alarm_pool_init_default+0x14>
10003796:	210a      	movs	r1, #10
10003798:	4808      	ldr	r0, [pc, #32]	; (100037bc <alarm_pool_init_default+0x30>)
1000379a:	f7ff fc99 	bl	100030d0 <lock_init>
1000379e:	bd10      	pop	{r4, pc}
100037a0:	4c05      	ldr	r4, [pc, #20]	; (100037b8 <alarm_pool_init_default+0x2c>)
100037a2:	0023      	movs	r3, r4
100037a4:	4a06      	ldr	r2, [pc, #24]	; (100037c0 <alarm_pool_init_default+0x34>)
100037a6:	2110      	movs	r1, #16
100037a8:	6820      	ldr	r0, [r4, #0]
100037aa:	f000 fc8b 	bl	100040c4 <ph_post_alloc_init>
100037ae:	2103      	movs	r1, #3
100037b0:	0020      	movs	r0, r4
100037b2:	f7ff fcb5 	bl	10003120 <alarm_pool_post_alloc_init>
100037b6:	e7ee      	b.n	10003796 <alarm_pool_init_default+0xa>
100037b8:	20000488 	.word	0x20000488
100037bc:	20002064 	.word	0x20002064
100037c0:	10003191 	.word	0x10003191

100037c4 <alarm_pool_get_default>:
100037c4:	b510      	push	{r4, lr}
100037c6:	4b06      	ldr	r3, [pc, #24]	; (100037e0 <alarm_pool_get_default+0x1c>)
100037c8:	685b      	ldr	r3, [r3, #4]
100037ca:	2b00      	cmp	r3, #0
100037cc:	d001      	beq.n	100037d2 <alarm_pool_get_default+0xe>
100037ce:	4804      	ldr	r0, [pc, #16]	; (100037e0 <alarm_pool_get_default+0x1c>)
100037d0:	bd10      	pop	{r4, pc}
100037d2:	4b04      	ldr	r3, [pc, #16]	; (100037e4 <alarm_pool_get_default+0x20>)
100037d4:	4a04      	ldr	r2, [pc, #16]	; (100037e8 <alarm_pool_get_default+0x24>)
100037d6:	215c      	movs	r1, #92	; 0x5c
100037d8:	4804      	ldr	r0, [pc, #16]	; (100037ec <alarm_pool_get_default+0x28>)
100037da:	f000 fe91 	bl	10004500 <__assert_func>
100037de:	46c0      	nop			; (mov r8, r8)
100037e0:	20000488 	.word	0x20000488
100037e4:	1000b4f4 	.word	0x1000b4f4
100037e8:	1000b604 	.word	0x1000b604
100037ec:	1000b344 	.word	0x1000b344

100037f0 <alarm_pool_add_alarm_at>:
100037f0:	b5f0      	push	{r4, r5, r6, r7, lr}
100037f2:	46de      	mov	lr, fp
100037f4:	4657      	mov	r7, sl
100037f6:	464e      	mov	r6, r9
100037f8:	4645      	mov	r5, r8
100037fa:	b5e0      	push	{r5, r6, r7, lr}
100037fc:	b08b      	sub	sp, #44	; 0x2c
100037fe:	4680      	mov	r8, r0
10003800:	0016      	movs	r6, r2
10003802:	001f      	movs	r7, r3
10003804:	9b14      	ldr	r3, [sp, #80]	; 0x50
10003806:	469a      	mov	sl, r3
10003808:	9b15      	ldr	r3, [sp, #84]	; 0x54
1000380a:	4699      	mov	r9, r3
1000380c:	ab16      	add	r3, sp, #88	; 0x58
1000380e:	781b      	ldrb	r3, [r3, #0]
10003810:	469b      	mov	fp, r3
10003812:	231f      	movs	r3, #31
10003814:	aa02      	add	r2, sp, #8
10003816:	4694      	mov	ip, r2
10003818:	4463      	add	r3, ip
1000381a:	2200      	movs	r2, #0
1000381c:	701a      	strb	r2, [r3, #0]
1000381e:	e032      	b.n	10003886 <alarm_pool_add_alarm_at+0x96>
10003820:	2800      	cmp	r0, #0
10003822:	d009      	beq.n	10003838 <alarm_pool_add_alarm_at+0x48>
10003824:	4642      	mov	r2, r8
10003826:	6812      	ldr	r2, [r2, #0]
10003828:	7b12      	ldrb	r2, [r2, #12]
1000382a:	4290      	cmp	r0, r2
1000382c:	d804      	bhi.n	10003838 <alarm_pool_add_alarm_at+0x48>
1000382e:	1e42      	subs	r2, r0, #1
10003830:	4641      	mov	r1, r8
10003832:	68c9      	ldr	r1, [r1, #12]
10003834:	5c8a      	ldrb	r2, [r1, r2]
10003836:	e048      	b.n	100038ca <alarm_pool_add_alarm_at+0xda>
10003838:	4b43      	ldr	r3, [pc, #268]	; (10003948 <alarm_pool_add_alarm_at+0x158>)
1000383a:	4a44      	ldr	r2, [pc, #272]	; (1000394c <alarm_pool_add_alarm_at+0x15c>)
1000383c:	2140      	movs	r1, #64	; 0x40
1000383e:	4844      	ldr	r0, [pc, #272]	; (10003950 <alarm_pool_add_alarm_at+0x160>)
10003840:	f000 fe5e 	bl	10004500 <__assert_func>
10003844:	9807      	ldr	r0, [sp, #28]
10003846:	2b00      	cmp	r3, #0
10003848:	d075      	beq.n	10003936 <alarm_pool_add_alarm_at+0x146>
1000384a:	465b      	mov	r3, fp
1000384c:	2b00      	cmp	r3, #0
1000384e:	d072      	beq.n	10003936 <alarm_pool_add_alarm_at+0x146>
10003850:	4649      	mov	r1, r9
10003852:	47d0      	blx	sl
10003854:	0004      	movs	r4, r0
10003856:	000d      	movs	r5, r1
10003858:	0003      	movs	r3, r0
1000385a:	430b      	orrs	r3, r1
1000385c:	d100      	bne.n	10003860 <alarm_pool_add_alarm_at+0x70>
1000385e:	e071      	b.n	10003944 <alarm_pool_add_alarm_at+0x154>
10003860:	2900      	cmp	r1, #0
10003862:	db46      	blt.n	100038f2 <alarm_pool_add_alarm_at+0x102>
10003864:	f000 fa88 	bl	10003d78 <time_us_64>
10003868:	0006      	movs	r6, r0
1000386a:	1e0f      	subs	r7, r1, #0
1000386c:	db55      	blt.n	1000391a <alarm_pool_add_alarm_at+0x12a>
1000386e:	1936      	adds	r6, r6, r4
10003870:	416f      	adcs	r7, r5
10003872:	42b9      	cmp	r1, r7
10003874:	d802      	bhi.n	1000387c <alarm_pool_add_alarm_at+0x8c>
10003876:	d104      	bne.n	10003882 <alarm_pool_add_alarm_at+0x92>
10003878:	42b0      	cmp	r0, r6
1000387a:	d902      	bls.n	10003882 <alarm_pool_add_alarm_at+0x92>
1000387c:	2601      	movs	r6, #1
1000387e:	4276      	negs	r6, r6
10003880:	17f7      	asrs	r7, r6, #31
10003882:	2f00      	cmp	r7, #0
10003884:	db4f      	blt.n	10003926 <alarm_pool_add_alarm_at+0x136>
10003886:	4643      	mov	r3, r8
10003888:	685a      	ldr	r2, [r3, #4]
1000388a:	f3ef 8410 	mrs	r4, PRIMASK
1000388e:	b672      	cpsid	i
10003890:	6813      	ldr	r3, [r2, #0]
10003892:	4259      	negs	r1, r3
10003894:	414b      	adcs	r3, r1
10003896:	b2d9      	uxtb	r1, r3
10003898:	9107      	str	r1, [sp, #28]
1000389a:	2b00      	cmp	r3, #0
1000389c:	d1f8      	bne.n	10003890 <alarm_pool_add_alarm_at+0xa0>
1000389e:	f3bf 8f5f 	dmb	sy
100038a2:	331f      	adds	r3, #31
100038a4:	aa02      	add	r2, sp, #8
100038a6:	4694      	mov	ip, r2
100038a8:	4463      	add	r3, ip
100038aa:	9304      	str	r3, [sp, #16]
100038ac:	2300      	movs	r3, #0
100038ae:	9303      	str	r3, [sp, #12]
100038b0:	9302      	str	r3, [sp, #8]
100038b2:	464b      	mov	r3, r9
100038b4:	9301      	str	r3, [sp, #4]
100038b6:	4653      	mov	r3, sl
100038b8:	9300      	str	r3, [sp, #0]
100038ba:	0032      	movs	r2, r6
100038bc:	003b      	movs	r3, r7
100038be:	4640      	mov	r0, r8
100038c0:	f7ff fd16 	bl	100032f0 <add_alarm_under_lock>
100038c4:	1e03      	subs	r3, r0, #0
100038c6:	d1ab      	bne.n	10003820 <alarm_pool_add_alarm_at+0x30>
100038c8:	0002      	movs	r2, r0
100038ca:	4641      	mov	r1, r8
100038cc:	6849      	ldr	r1, [r1, #4]
100038ce:	f3bf 8f5f 	dmb	sy
100038d2:	2500      	movs	r5, #0
100038d4:	600d      	str	r5, [r1, #0]
100038d6:	f384 8810 	msr	PRIMASK, r4
100038da:	2b00      	cmp	r3, #0
100038dc:	d029      	beq.n	10003932 <alarm_pool_add_alarm_at+0x142>
100038de:	231f      	movs	r3, #31
100038e0:	a902      	add	r1, sp, #8
100038e2:	468c      	mov	ip, r1
100038e4:	4463      	add	r3, ip
100038e6:	781b      	ldrb	r3, [r3, #0]
100038e8:	2b00      	cmp	r3, #0
100038ea:	d1ab      	bne.n	10003844 <alarm_pool_add_alarm_at+0x54>
100038ec:	0212      	lsls	r2, r2, #8
100038ee:	4310      	orrs	r0, r2
100038f0:	e7a9      	b.n	10003846 <alarm_pool_add_alarm_at+0x56>
100038f2:	0032      	movs	r2, r6
100038f4:	003b      	movs	r3, r7
100038f6:	1b36      	subs	r6, r6, r4
100038f8:	41af      	sbcs	r7, r5
100038fa:	42bb      	cmp	r3, r7
100038fc:	d802      	bhi.n	10003904 <alarm_pool_add_alarm_at+0x114>
100038fe:	d104      	bne.n	1000390a <alarm_pool_add_alarm_at+0x11a>
10003900:	42b2      	cmp	r2, r6
10003902:	d902      	bls.n	1000390a <alarm_pool_add_alarm_at+0x11a>
10003904:	2601      	movs	r6, #1
10003906:	4276      	negs	r6, r6
10003908:	17f7      	asrs	r7, r6, #31
1000390a:	2f00      	cmp	r7, #0
1000390c:	dabb      	bge.n	10003886 <alarm_pool_add_alarm_at+0x96>
1000390e:	4b11      	ldr	r3, [pc, #68]	; (10003954 <alarm_pool_add_alarm_at+0x164>)
10003910:	4a11      	ldr	r2, [pc, #68]	; (10003958 <alarm_pool_add_alarm_at+0x168>)
10003912:	213f      	movs	r1, #63	; 0x3f
10003914:	4811      	ldr	r0, [pc, #68]	; (1000395c <alarm_pool_add_alarm_at+0x16c>)
10003916:	f000 fdf3 	bl	10004500 <__assert_func>
1000391a:	4b0e      	ldr	r3, [pc, #56]	; (10003954 <alarm_pool_add_alarm_at+0x164>)
1000391c:	4a0e      	ldr	r2, [pc, #56]	; (10003958 <alarm_pool_add_alarm_at+0x168>)
1000391e:	213f      	movs	r1, #63	; 0x3f
10003920:	480e      	ldr	r0, [pc, #56]	; (1000395c <alarm_pool_add_alarm_at+0x16c>)
10003922:	f000 fded 	bl	10004500 <__assert_func>
10003926:	4b0b      	ldr	r3, [pc, #44]	; (10003954 <alarm_pool_add_alarm_at+0x164>)
10003928:	4a0b      	ldr	r2, [pc, #44]	; (10003958 <alarm_pool_add_alarm_at+0x168>)
1000392a:	213f      	movs	r1, #63	; 0x3f
1000392c:	480b      	ldr	r0, [pc, #44]	; (1000395c <alarm_pool_add_alarm_at+0x16c>)
1000392e:	f000 fde7 	bl	10004500 <__assert_func>
10003932:	2001      	movs	r0, #1
10003934:	4240      	negs	r0, r0
10003936:	b00b      	add	sp, #44	; 0x2c
10003938:	bcf0      	pop	{r4, r5, r6, r7}
1000393a:	46bb      	mov	fp, r7
1000393c:	46b2      	mov	sl, r6
1000393e:	46a9      	mov	r9, r5
10003940:	46a0      	mov	r8, r4
10003942:	bdf0      	pop	{r4, r5, r6, r7, pc}
10003944:	9807      	ldr	r0, [sp, #28]
10003946:	e7f6      	b.n	10003936 <alarm_pool_add_alarm_at+0x146>
10003948:	1000b37c 	.word	0x1000b37c
1000394c:	1000b61c 	.word	0x1000b61c
10003950:	1000b344 	.word	0x1000b344
10003954:	1000ab18 	.word	0x1000ab18
10003958:	1000b5c4 	.word	0x1000b5c4
1000395c:	1000ab34 	.word	0x1000ab34

10003960 <alarm_pool_cancel_alarm>:
10003960:	b5f8      	push	{r3, r4, r5, r6, r7, lr}
10003962:	0004      	movs	r4, r0
10003964:	6842      	ldr	r2, [r0, #4]
10003966:	f3ef 8510 	mrs	r5, PRIMASK
1000396a:	b672      	cpsid	i
1000396c:	6813      	ldr	r3, [r2, #0]
1000396e:	4258      	negs	r0, r3
10003970:	4143      	adcs	r3, r0
10003972:	b2d8      	uxtb	r0, r3
10003974:	2b00      	cmp	r3, #0
10003976:	d1f9      	bne.n	1000396c <alarm_pool_cancel_alarm+0xc>
10003978:	f3bf 8f5f 	dmb	sy
1000397c:	b2cb      	uxtb	r3, r1
1000397e:	6822      	ldr	r2, [r4, #0]
10003980:	7b56      	ldrb	r6, [r2, #13]
10003982:	42b3      	cmp	r3, r6
10003984:	d11b      	bne.n	100039be <alarm_pool_cancel_alarm+0x5e>
10003986:	2001      	movs	r0, #1
10003988:	2800      	cmp	r0, #0
1000398a:	d048      	beq.n	10003a1e <alarm_pool_cancel_alarm+0xbe>
1000398c:	6920      	ldr	r0, [r4, #16]
1000398e:	4288      	cmp	r0, r1
10003990:	d02b      	beq.n	100039ea <alarm_pool_cancel_alarm+0x8a>
10003992:	0a09      	lsrs	r1, r1, #8
10003994:	b2c9      	uxtb	r1, r1
10003996:	2b00      	cmp	r3, #0
10003998:	d02e      	beq.n	100039f8 <alarm_pool_cancel_alarm+0x98>
1000399a:	6820      	ldr	r0, [r4, #0]
1000399c:	7b00      	ldrb	r0, [r0, #12]
1000399e:	4283      	cmp	r3, r0
100039a0:	d82a      	bhi.n	100039f8 <alarm_pool_cancel_alarm+0x98>
100039a2:	1e58      	subs	r0, r3, #1
100039a4:	68e6      	ldr	r6, [r4, #12]
100039a6:	5c30      	ldrb	r0, [r6, r0]
100039a8:	4288      	cmp	r0, r1
100039aa:	d02b      	beq.n	10003a04 <alarm_pool_cancel_alarm+0xa4>
100039ac:	2000      	movs	r0, #0
100039ae:	6863      	ldr	r3, [r4, #4]
100039b0:	f3bf 8f5f 	dmb	sy
100039b4:	2200      	movs	r2, #0
100039b6:	601a      	str	r2, [r3, #0]
100039b8:	f385 8810 	msr	PRIMASK, r5
100039bc:	bdf8      	pop	{r3, r4, r5, r6, r7, pc}
100039be:	2b00      	cmp	r3, #0
100039c0:	d00d      	beq.n	100039de <alarm_pool_cancel_alarm+0x7e>
100039c2:	7b16      	ldrb	r6, [r2, #12]
100039c4:	42b3      	cmp	r3, r6
100039c6:	d80a      	bhi.n	100039de <alarm_pool_cancel_alarm+0x7e>
100039c8:	005e      	lsls	r6, r3, #1
100039ca:	18f6      	adds	r6, r6, r3
100039cc:	3e03      	subs	r6, #3
100039ce:	6817      	ldr	r7, [r2, #0]
100039d0:	46bc      	mov	ip, r7
100039d2:	4466      	add	r6, ip
100039d4:	78b6      	ldrb	r6, [r6, #2]
100039d6:	2e00      	cmp	r6, #0
100039d8:	d0d6      	beq.n	10003988 <alarm_pool_cancel_alarm+0x28>
100039da:	2001      	movs	r0, #1
100039dc:	e7d4      	b.n	10003988 <alarm_pool_cancel_alarm+0x28>
100039de:	4b13      	ldr	r3, [pc, #76]	; (10003a2c <alarm_pool_cancel_alarm+0xcc>)
100039e0:	4a13      	ldr	r2, [pc, #76]	; (10003a30 <alarm_pool_cancel_alarm+0xd0>)
100039e2:	2168      	movs	r1, #104	; 0x68
100039e4:	4813      	ldr	r0, [pc, #76]	; (10003a34 <alarm_pool_cancel_alarm+0xd4>)
100039e6:	f000 fd8b 	bl	10004500 <__assert_func>
100039ea:	2185      	movs	r1, #133	; 0x85
100039ec:	4b12      	ldr	r3, [pc, #72]	; (10003a38 <alarm_pool_cancel_alarm+0xd8>)
100039ee:	4a13      	ldr	r2, [pc, #76]	; (10003a3c <alarm_pool_cancel_alarm+0xdc>)
100039f0:	0049      	lsls	r1, r1, #1
100039f2:	4813      	ldr	r0, [pc, #76]	; (10003a40 <alarm_pool_cancel_alarm+0xe0>)
100039f4:	f000 fd84 	bl	10004500 <__assert_func>
100039f8:	4b12      	ldr	r3, [pc, #72]	; (10003a44 <alarm_pool_cancel_alarm+0xe4>)
100039fa:	4a13      	ldr	r2, [pc, #76]	; (10003a48 <alarm_pool_cancel_alarm+0xe8>)
100039fc:	2140      	movs	r1, #64	; 0x40
100039fe:	4810      	ldr	r0, [pc, #64]	; (10003a40 <alarm_pool_cancel_alarm+0xe0>)
10003a00:	f000 fd7e 	bl	10004500 <__assert_func>
10003a04:	0019      	movs	r1, r3
10003a06:	0010      	movs	r0, r2
10003a08:	f000 fc46 	bl	10004298 <ph_remove_and_free_node>
10003a0c:	2800      	cmp	r0, #0
10003a0e:	d1ce      	bne.n	100039ae <alarm_pool_cancel_alarm+0x4e>
10003a10:	2112      	movs	r1, #18
10003a12:	4b0e      	ldr	r3, [pc, #56]	; (10003a4c <alarm_pool_cancel_alarm+0xec>)
10003a14:	4a09      	ldr	r2, [pc, #36]	; (10003a3c <alarm_pool_cancel_alarm+0xdc>)
10003a16:	31ff      	adds	r1, #255	; 0xff
10003a18:	4809      	ldr	r0, [pc, #36]	; (10003a40 <alarm_pool_cancel_alarm+0xe0>)
10003a1a:	f000 fd71 	bl	10004500 <__assert_func>
10003a1e:	6923      	ldr	r3, [r4, #16]
10003a20:	428b      	cmp	r3, r1
10003a22:	d1c4      	bne.n	100039ae <alarm_pool_cancel_alarm+0x4e>
10003a24:	2300      	movs	r3, #0
10003a26:	6123      	str	r3, [r4, #16]
10003a28:	e7c1      	b.n	100039ae <alarm_pool_cancel_alarm+0x4e>
10003a2a:	46c0      	nop			; (mov r8, r8)
10003a2c:	1000b3b0 	.word	0x1000b3b0
10003a30:	1000b664 	.word	0x1000b664
10003a34:	1000b3cc 	.word	0x1000b3cc
10003a38:	1000b518 	.word	0x1000b518
10003a3c:	1000b5ac 	.word	0x1000b5ac
10003a40:	1000b344 	.word	0x1000b344
10003a44:	1000b37c 	.word	0x1000b37c
10003a48:	1000b61c 	.word	0x1000b61c
10003a4c:	1000b53c 	.word	0x1000b53c

10003a50 <alarm_pool_add_repeating_timer_us>:
10003a50:	b5f0      	push	{r4, r5, r6, r7, lr}
10003a52:	b085      	sub	sp, #20
10003a54:	0007      	movs	r7, r0
10003a56:	0010      	movs	r0, r2
10003a58:	0019      	movs	r1, r3
10003a5a:	9e0c      	ldr	r6, [sp, #48]	; 0x30
10003a5c:	0013      	movs	r3, r2
10003a5e:	430b      	orrs	r3, r1
10003a60:	d101      	bne.n	10003a66 <alarm_pool_add_repeating_timer_us+0x16>
10003a62:	2001      	movs	r0, #1
10003a64:	2100      	movs	r1, #0
10003a66:	60b7      	str	r7, [r6, #8]
10003a68:	9b0a      	ldr	r3, [sp, #40]	; 0x28
10003a6a:	6133      	str	r3, [r6, #16]
10003a6c:	6030      	str	r0, [r6, #0]
10003a6e:	6071      	str	r1, [r6, #4]
10003a70:	9b0b      	ldr	r3, [sp, #44]	; 0x2c
10003a72:	6173      	str	r3, [r6, #20]
10003a74:	17ca      	asrs	r2, r1, #31
10003a76:	0013      	movs	r3, r2
10003a78:	4050      	eors	r0, r2
10003a7a:	0004      	movs	r4, r0
10003a7c:	4051      	eors	r1, r2
10003a7e:	000d      	movs	r5, r1
10003a80:	1aa4      	subs	r4, r4, r2
10003a82:	419d      	sbcs	r5, r3
10003a84:	f000 f978 	bl	10003d78 <time_us_64>
10003a88:	0002      	movs	r2, r0
10003a8a:	1e0b      	subs	r3, r1, #0
10003a8c:	db1a      	blt.n	10003ac4 <alarm_pool_add_repeating_timer_us+0x74>
10003a8e:	0001      	movs	r1, r0
10003a90:	0018      	movs	r0, r3
10003a92:	1912      	adds	r2, r2, r4
10003a94:	416b      	adcs	r3, r5
10003a96:	4298      	cmp	r0, r3
10003a98:	d802      	bhi.n	10003aa0 <alarm_pool_add_repeating_timer_us+0x50>
10003a9a:	d104      	bne.n	10003aa6 <alarm_pool_add_repeating_timer_us+0x56>
10003a9c:	4291      	cmp	r1, r2
10003a9e:	d902      	bls.n	10003aa6 <alarm_pool_add_repeating_timer_us+0x56>
10003aa0:	2201      	movs	r2, #1
10003aa2:	4252      	negs	r2, r2
10003aa4:	17d3      	asrs	r3, r2, #31
10003aa6:	2b00      	cmp	r3, #0
10003aa8:	db12      	blt.n	10003ad0 <alarm_pool_add_repeating_timer_us+0x80>
10003aaa:	2101      	movs	r1, #1
10003aac:	9102      	str	r1, [sp, #8]
10003aae:	9601      	str	r6, [sp, #4]
10003ab0:	490a      	ldr	r1, [pc, #40]	; (10003adc <alarm_pool_add_repeating_timer_us+0x8c>)
10003ab2:	9100      	str	r1, [sp, #0]
10003ab4:	0038      	movs	r0, r7
10003ab6:	f7ff fe9b 	bl	100037f0 <alarm_pool_add_alarm_at>
10003aba:	60f0      	str	r0, [r6, #12]
10003abc:	43c0      	mvns	r0, r0
10003abe:	0fc0      	lsrs	r0, r0, #31
10003ac0:	b005      	add	sp, #20
10003ac2:	bdf0      	pop	{r4, r5, r6, r7, pc}
10003ac4:	4b06      	ldr	r3, [pc, #24]	; (10003ae0 <alarm_pool_add_repeating_timer_us+0x90>)
10003ac6:	4a07      	ldr	r2, [pc, #28]	; (10003ae4 <alarm_pool_add_repeating_timer_us+0x94>)
10003ac8:	213f      	movs	r1, #63	; 0x3f
10003aca:	4807      	ldr	r0, [pc, #28]	; (10003ae8 <alarm_pool_add_repeating_timer_us+0x98>)
10003acc:	f000 fd18 	bl	10004500 <__assert_func>
10003ad0:	4b03      	ldr	r3, [pc, #12]	; (10003ae0 <alarm_pool_add_repeating_timer_us+0x90>)
10003ad2:	4a04      	ldr	r2, [pc, #16]	; (10003ae4 <alarm_pool_add_repeating_timer_us+0x94>)
10003ad4:	213f      	movs	r1, #63	; 0x3f
10003ad6:	4804      	ldr	r0, [pc, #16]	; (10003ae8 <alarm_pool_add_repeating_timer_us+0x98>)
10003ad8:	f000 fd12 	bl	10004500 <__assert_func>
10003adc:	100030e1 	.word	0x100030e1
10003ae0:	1000ab18 	.word	0x1000ab18
10003ae4:	1000b5c4 	.word	0x1000b5c4
10003ae8:	1000ab34 	.word	0x1000ab34

10003aec <sleep_until>:
10003aec:	b5f0      	push	{r4, r5, r6, r7, lr}
10003aee:	b087      	sub	sp, #28
10003af0:	0006      	movs	r6, r0
10003af2:	000f      	movs	r7, r1
10003af4:	f7fc fbb7 	bl	10000266 <__get_current_exception>
10003af8:	2800      	cmp	r0, #0
10003afa:	d11f      	bne.n	10003b3c <sleep_until+0x50>
10003afc:	2406      	movs	r4, #6
10003afe:	4264      	negs	r4, r4
10003b00:	17e5      	asrs	r5, r4, #31
10003b02:	19a4      	adds	r4, r4, r6
10003b04:	417d      	adcs	r5, r7
10003b06:	42bd      	cmp	r5, r7
10003b08:	d802      	bhi.n	10003b10 <sleep_until+0x24>
10003b0a:	d103      	bne.n	10003b14 <sleep_until+0x28>
10003b0c:	42b4      	cmp	r4, r6
10003b0e:	d901      	bls.n	10003b14 <sleep_until+0x28>
10003b10:	2400      	movs	r4, #0
10003b12:	2500      	movs	r5, #0
10003b14:	2d00      	cmp	r5, #0
10003b16:	db14      	blt.n	10003b42 <sleep_until+0x56>
10003b18:	9404      	str	r4, [sp, #16]
10003b1a:	9505      	str	r5, [sp, #20]
10003b1c:	f000 f92c 	bl	10003d78 <time_us_64>
10003b20:	0002      	movs	r2, r0
10003b22:	1e0b      	subs	r3, r1, #0
10003b24:	db13      	blt.n	10003b4e <sleep_until+0x62>
10003b26:	1aa4      	subs	r4, r4, r2
10003b28:	419d      	sbcs	r5, r3
10003b2a:	2d00      	cmp	r5, #0
10003b2c:	dc17      	bgt.n	10003b5e <sleep_until+0x72>
10003b2e:	d014      	beq.n	10003b5a <sleep_until+0x6e>
10003b30:	0030      	movs	r0, r6
10003b32:	0039      	movs	r1, r7
10003b34:	f000 f92c 	bl	10003d90 <busy_wait_until>
10003b38:	b007      	add	sp, #28
10003b3a:	bdf0      	pop	{r4, r5, r6, r7, pc}
10003b3c:	4823      	ldr	r0, [pc, #140]	; (10003bcc <sleep_until+0xe0>)
10003b3e:	f000 fd79 	bl	10004634 <panic>
10003b42:	4b23      	ldr	r3, [pc, #140]	; (10003bd0 <sleep_until+0xe4>)
10003b44:	4a23      	ldr	r2, [pc, #140]	; (10003bd4 <sleep_until+0xe8>)
10003b46:	213f      	movs	r1, #63	; 0x3f
10003b48:	4823      	ldr	r0, [pc, #140]	; (10003bd8 <sleep_until+0xec>)
10003b4a:	f000 fcd9 	bl	10004500 <__assert_func>
10003b4e:	4b20      	ldr	r3, [pc, #128]	; (10003bd0 <sleep_until+0xe4>)
10003b50:	4a20      	ldr	r2, [pc, #128]	; (10003bd4 <sleep_until+0xe8>)
10003b52:	213f      	movs	r1, #63	; 0x3f
10003b54:	4820      	ldr	r0, [pc, #128]	; (10003bd8 <sleep_until+0xec>)
10003b56:	f000 fcd3 	bl	10004500 <__assert_func>
10003b5a:	2c00      	cmp	r4, #0
10003b5c:	d0e8      	beq.n	10003b30 <sleep_until+0x44>
10003b5e:	f7ff fe31 	bl	100037c4 <alarm_pool_get_default>
10003b62:	2300      	movs	r3, #0
10003b64:	9302      	str	r3, [sp, #8]
10003b66:	9301      	str	r3, [sp, #4]
10003b68:	4b1c      	ldr	r3, [pc, #112]	; (10003bdc <sleep_until+0xf0>)
10003b6a:	9300      	str	r3, [sp, #0]
10003b6c:	9a04      	ldr	r2, [sp, #16]
10003b6e:	9b05      	ldr	r3, [sp, #20]
10003b70:	f7ff fe3e 	bl	100037f0 <alarm_pool_add_alarm_at>
10003b74:	2800      	cmp	r0, #0
10003b76:	da18      	bge.n	10003baa <sleep_until+0xbe>
10003b78:	e7da      	b.n	10003b30 <sleep_until+0x44>
10003b7a:	2300      	movs	r3, #0
10003b7c:	e000      	b.n	10003b80 <sleep_until+0x94>
10003b7e:	2300      	movs	r3, #0
10003b80:	2b00      	cmp	r3, #0
10003b82:	d1d5      	bne.n	10003b30 <sleep_until+0x44>
10003b84:	4b16      	ldr	r3, [pc, #88]	; (10003be0 <sleep_until+0xf4>)
10003b86:	681a      	ldr	r2, [r3, #0]
10003b88:	f3ef 8110 	mrs	r1, PRIMASK
10003b8c:	b672      	cpsid	i
10003b8e:	6813      	ldr	r3, [r2, #0]
10003b90:	2b00      	cmp	r3, #0
10003b92:	d0fc      	beq.n	10003b8e <sleep_until+0xa2>
10003b94:	f3bf 8f5f 	dmb	sy
10003b98:	4b11      	ldr	r3, [pc, #68]	; (10003be0 <sleep_until+0xf4>)
10003b9a:	681b      	ldr	r3, [r3, #0]
10003b9c:	f3bf 8f5f 	dmb	sy
10003ba0:	2200      	movs	r2, #0
10003ba2:	601a      	str	r2, [r3, #0]
10003ba4:	f381 8810 	msr	PRIMASK, r1
10003ba8:	bf20      	wfe
10003baa:	9904      	ldr	r1, [sp, #16]
10003bac:	9a05      	ldr	r2, [sp, #20]
10003bae:	4b0d      	ldr	r3, [pc, #52]	; (10003be4 <sleep_until+0xf8>)
10003bb0:	6a5b      	ldr	r3, [r3, #36]	; 0x24
10003bb2:	429a      	cmp	r2, r3
10003bb4:	d8e3      	bhi.n	10003b7e <sleep_until+0x92>
10003bb6:	480b      	ldr	r0, [pc, #44]	; (10003be4 <sleep_until+0xf8>)
10003bb8:	6a80      	ldr	r0, [r0, #40]	; 0x28
10003bba:	4288      	cmp	r0, r1
10003bbc:	d203      	bcs.n	10003bc6 <sleep_until+0xda>
10003bbe:	429a      	cmp	r2, r3
10003bc0:	d0db      	beq.n	10003b7a <sleep_until+0x8e>
10003bc2:	2301      	movs	r3, #1
10003bc4:	e7dc      	b.n	10003b80 <sleep_until+0x94>
10003bc6:	2301      	movs	r3, #1
10003bc8:	e7da      	b.n	10003b80 <sleep_until+0x94>
10003bca:	46c0      	nop			; (mov r8, r8)
10003bcc:	1000b540 	.word	0x1000b540
10003bd0:	1000ab18 	.word	0x1000ab18
10003bd4:	1000b5c4 	.word	0x1000b5c4
10003bd8:	1000ab34 	.word	0x1000ab34
10003bdc:	10003161 	.word	0x10003161
10003be0:	20002064 	.word	0x20002064
10003be4:	40054000 	.word	0x40054000

10003be8 <sleep_us>:
10003be8:	b5f8      	push	{r3, r4, r5, r6, r7, lr}
10003bea:	0004      	movs	r4, r0
10003bec:	000d      	movs	r5, r1
10003bee:	f000 f8c3 	bl	10003d78 <time_us_64>
10003bf2:	0002      	movs	r2, r0
10003bf4:	1e0b      	subs	r3, r1, #0
10003bf6:	db10      	blt.n	10003c1a <sleep_us+0x32>
10003bf8:	0020      	movs	r0, r4
10003bfa:	0029      	movs	r1, r5
10003bfc:	1880      	adds	r0, r0, r2
10003bfe:	4159      	adcs	r1, r3
10003c00:	428b      	cmp	r3, r1
10003c02:	d802      	bhi.n	10003c0a <sleep_us+0x22>
10003c04:	d104      	bne.n	10003c10 <sleep_us+0x28>
10003c06:	4282      	cmp	r2, r0
10003c08:	d902      	bls.n	10003c10 <sleep_us+0x28>
10003c0a:	2001      	movs	r0, #1
10003c0c:	4240      	negs	r0, r0
10003c0e:	17c1      	asrs	r1, r0, #31
10003c10:	2900      	cmp	r1, #0
10003c12:	db08      	blt.n	10003c26 <sleep_us+0x3e>
10003c14:	f7ff ff6a 	bl	10003aec <sleep_until>
10003c18:	bdf8      	pop	{r3, r4, r5, r6, r7, pc}
10003c1a:	4b06      	ldr	r3, [pc, #24]	; (10003c34 <sleep_us+0x4c>)
10003c1c:	4a06      	ldr	r2, [pc, #24]	; (10003c38 <sleep_us+0x50>)
10003c1e:	213f      	movs	r1, #63	; 0x3f
10003c20:	4806      	ldr	r0, [pc, #24]	; (10003c3c <sleep_us+0x54>)
10003c22:	f000 fc6d 	bl	10004500 <__assert_func>
10003c26:	4b03      	ldr	r3, [pc, #12]	; (10003c34 <sleep_us+0x4c>)
10003c28:	4a03      	ldr	r2, [pc, #12]	; (10003c38 <sleep_us+0x50>)
10003c2a:	213f      	movs	r1, #63	; 0x3f
10003c2c:	4803      	ldr	r0, [pc, #12]	; (10003c3c <sleep_us+0x54>)
10003c2e:	f000 fc67 	bl	10004500 <__assert_func>
10003c32:	46c0      	nop			; (mov r8, r8)
10003c34:	1000ab18 	.word	0x1000ab18
10003c38:	1000b5c4 	.word	0x1000b5c4
10003c3c:	1000ab34 	.word	0x1000ab34

10003c40 <sleep_ms>:
10003c40:	b510      	push	{r4, lr}
10003c42:	22fa      	movs	r2, #250	; 0xfa
10003c44:	0092      	lsls	r2, r2, #2
10003c46:	2300      	movs	r3, #0
10003c48:	2100      	movs	r1, #0
10003c4a:	f003 faad 	bl	100071a8 <__wrap___aeabi_lmul>
10003c4e:	f7ff ffcb 	bl	10003be8 <sleep_us>
10003c52:	bd10      	pop	{r4, pc}

10003c54 <best_effort_wfe_or_timeout>:
10003c54:	b570      	push	{r4, r5, r6, lr}
10003c56:	b084      	sub	sp, #16
10003c58:	0006      	movs	r6, r0
10003c5a:	000c      	movs	r4, r1
10003c5c:	f7ff fdb2 	bl	100037c4 <alarm_pool_get_default>
10003c60:	2300      	movs	r3, #0
10003c62:	9302      	str	r3, [sp, #8]
10003c64:	9301      	str	r3, [sp, #4]
10003c66:	4b19      	ldr	r3, [pc, #100]	; (10003ccc <best_effort_wfe_or_timeout+0x78>)
10003c68:	9300      	str	r3, [sp, #0]
10003c6a:	0032      	movs	r2, r6
10003c6c:	0023      	movs	r3, r4
10003c6e:	f7ff fdbf 	bl	100037f0 <alarm_pool_add_alarm_at>
10003c72:	1e05      	subs	r5, r0, #0
10003c74:	dd11      	ble.n	10003c9a <best_effort_wfe_or_timeout+0x46>
10003c76:	bf20      	wfe
10003c78:	f7ff fda4 	bl	100037c4 <alarm_pool_get_default>
10003c7c:	0029      	movs	r1, r5
10003c7e:	f7ff fe6f 	bl	10003960 <alarm_pool_cancel_alarm>
10003c82:	4b13      	ldr	r3, [pc, #76]	; (10003cd0 <best_effort_wfe_or_timeout+0x7c>)
10003c84:	6a5b      	ldr	r3, [r3, #36]	; 0x24
10003c86:	429c      	cmp	r4, r3
10003c88:	d81b      	bhi.n	10003cc2 <best_effort_wfe_or_timeout+0x6e>
10003c8a:	4a11      	ldr	r2, [pc, #68]	; (10003cd0 <best_effort_wfe_or_timeout+0x7c>)
10003c8c:	6a92      	ldr	r2, [r2, #40]	; 0x28
10003c8e:	42b2      	cmp	r2, r6
10003c90:	d21a      	bcs.n	10003cc8 <best_effort_wfe_or_timeout+0x74>
10003c92:	429c      	cmp	r4, r3
10003c94:	d013      	beq.n	10003cbe <best_effort_wfe_or_timeout+0x6a>
10003c96:	2001      	movs	r0, #1
10003c98:	e014      	b.n	10003cc4 <best_effort_wfe_or_timeout+0x70>
10003c9a:	4b0d      	ldr	r3, [pc, #52]	; (10003cd0 <best_effort_wfe_or_timeout+0x7c>)
10003c9c:	6a5b      	ldr	r3, [r3, #36]	; 0x24
10003c9e:	429c      	cmp	r4, r3
10003ca0:	d809      	bhi.n	10003cb6 <best_effort_wfe_or_timeout+0x62>
10003ca2:	4a0b      	ldr	r2, [pc, #44]	; (10003cd0 <best_effort_wfe_or_timeout+0x7c>)
10003ca4:	6a92      	ldr	r2, [r2, #40]	; 0x28
10003ca6:	42b2      	cmp	r2, r6
10003ca8:	d207      	bcs.n	10003cba <best_effort_wfe_or_timeout+0x66>
10003caa:	429c      	cmp	r4, r3
10003cac:	d001      	beq.n	10003cb2 <best_effort_wfe_or_timeout+0x5e>
10003cae:	2001      	movs	r0, #1
10003cb0:	e008      	b.n	10003cc4 <best_effort_wfe_or_timeout+0x70>
10003cb2:	2000      	movs	r0, #0
10003cb4:	e006      	b.n	10003cc4 <best_effort_wfe_or_timeout+0x70>
10003cb6:	2000      	movs	r0, #0
10003cb8:	e004      	b.n	10003cc4 <best_effort_wfe_or_timeout+0x70>
10003cba:	2001      	movs	r0, #1
10003cbc:	e002      	b.n	10003cc4 <best_effort_wfe_or_timeout+0x70>
10003cbe:	2000      	movs	r0, #0
10003cc0:	e000      	b.n	10003cc4 <best_effort_wfe_or_timeout+0x70>
10003cc2:	2000      	movs	r0, #0
10003cc4:	b004      	add	sp, #16
10003cc6:	bd70      	pop	{r4, r5, r6, pc}
10003cc8:	2001      	movs	r0, #1
10003cca:	e7fb      	b.n	10003cc4 <best_effort_wfe_or_timeout+0x70>
10003ccc:	10003161 	.word	0x10003161
10003cd0:	40054000 	.word	0x40054000

10003cd4 <hardware_alarm_irq_handler>:
10003cd4:	b570      	push	{r4, r5, r6, lr}
10003cd6:	f3ef 8305 	mrs	r3, IPSR
10003cda:	203f      	movs	r0, #63	; 0x3f
10003cdc:	4018      	ands	r0, r3
10003cde:	3810      	subs	r0, #16
10003ce0:	f3ef 8c10 	mrs	ip, PRIMASK
10003ce4:	b672      	cpsid	i
10003ce6:	4b19      	ldr	r3, [pc, #100]	; (10003d4c <hardware_alarm_irq_handler+0x78>)
10003ce8:	681b      	ldr	r3, [r3, #0]
10003cea:	2b00      	cmp	r3, #0
10003cec:	d0fb      	beq.n	10003ce6 <hardware_alarm_irq_handler+0x12>
10003cee:	f3bf 8f5f 	dmb	sy
10003cf2:	2301      	movs	r3, #1
10003cf4:	0019      	movs	r1, r3
10003cf6:	4081      	lsls	r1, r0
10003cf8:	4a15      	ldr	r2, [pc, #84]	; (10003d50 <hardware_alarm_irq_handler+0x7c>)
10003cfa:	6351      	str	r1, [r2, #52]	; 0x34
10003cfc:	4a15      	ldr	r2, [pc, #84]	; (10003d54 <hardware_alarm_irq_handler+0x80>)
10003cfe:	7812      	ldrb	r2, [r2, #0]
10003d00:	0014      	movs	r4, r2
10003d02:	40c4      	lsrs	r4, r0
10003d04:	4223      	tst	r3, r4
10003d06:	d014      	beq.n	10003d32 <hardware_alarm_irq_handler+0x5e>
10003d08:	4b11      	ldr	r3, [pc, #68]	; (10003d50 <hardware_alarm_irq_handler+0x7c>)
10003d0a:	6a5c      	ldr	r4, [r3, #36]	; 0x24
10003d0c:	0083      	lsls	r3, r0, #2
10003d0e:	4d12      	ldr	r5, [pc, #72]	; (10003d58 <hardware_alarm_irq_handler+0x84>)
10003d10:	595b      	ldr	r3, [r3, r5]
10003d12:	429c      	cmp	r4, r3
10003d14:	d306      	bcc.n	10003d24 <hardware_alarm_irq_handler+0x50>
10003d16:	0083      	lsls	r3, r0, #2
10003d18:	4c10      	ldr	r4, [pc, #64]	; (10003d5c <hardware_alarm_irq_handler+0x88>)
10003d1a:	591b      	ldr	r3, [r3, r4]
10003d1c:	438a      	bics	r2, r1
10003d1e:	490d      	ldr	r1, [pc, #52]	; (10003d54 <hardware_alarm_irq_handler+0x80>)
10003d20:	700a      	strb	r2, [r1, #0]
10003d22:	e007      	b.n	10003d34 <hardware_alarm_irq_handler+0x60>
10003d24:	4a0a      	ldr	r2, [pc, #40]	; (10003d50 <hardware_alarm_irq_handler+0x7c>)
10003d26:	1d03      	adds	r3, r0, #4
10003d28:	009b      	lsls	r3, r3, #2
10003d2a:	5899      	ldr	r1, [r3, r2]
10003d2c:	5099      	str	r1, [r3, r2]
10003d2e:	2300      	movs	r3, #0
10003d30:	e000      	b.n	10003d34 <hardware_alarm_irq_handler+0x60>
10003d32:	2300      	movs	r3, #0
10003d34:	f3bf 8f5f 	dmb	sy
10003d38:	4a04      	ldr	r2, [pc, #16]	; (10003d4c <hardware_alarm_irq_handler+0x78>)
10003d3a:	2100      	movs	r1, #0
10003d3c:	6011      	str	r1, [r2, #0]
10003d3e:	f38c 8810 	msr	PRIMASK, ip
10003d42:	2b00      	cmp	r3, #0
10003d44:	d000      	beq.n	10003d48 <hardware_alarm_irq_handler+0x74>
10003d46:	4798      	blx	r3
10003d48:	bd70      	pop	{r4, r5, r6, pc}
10003d4a:	46c0      	nop			; (mov r8, r8)
10003d4c:	d0000128 	.word	0xd0000128
10003d50:	40054000 	.word	0x40054000
10003d54:	20002151 	.word	0x20002151
10003d58:	20002098 	.word	0x20002098
10003d5c:	20000ad4 	.word	0x20000ad4

10003d60 <hardware_alarm_claim>:
10003d60:	b510      	push	{r4, lr}
10003d62:	0001      	movs	r1, r0
10003d64:	4a02      	ldr	r2, [pc, #8]	; (10003d70 <hardware_alarm_claim+0x10>)
10003d66:	4803      	ldr	r0, [pc, #12]	; (10003d74 <hardware_alarm_claim+0x14>)
10003d68:	f7fe fde6 	bl	10002938 <hw_claim_or_assert>
10003d6c:	bd10      	pop	{r4, pc}
10003d6e:	46c0      	nop			; (mov r8, r8)
10003d70:	1000b688 	.word	0x1000b688
10003d74:	2000214a 	.word	0x2000214a

10003d78 <time_us_64>:
10003d78:	4b04      	ldr	r3, [pc, #16]	; (10003d8c <time_us_64+0x14>)
10003d7a:	6a5b      	ldr	r3, [r3, #36]	; 0x24
10003d7c:	4a03      	ldr	r2, [pc, #12]	; (10003d8c <time_us_64+0x14>)
10003d7e:	6a90      	ldr	r0, [r2, #40]	; 0x28
10003d80:	0019      	movs	r1, r3
10003d82:	6a53      	ldr	r3, [r2, #36]	; 0x24
10003d84:	4299      	cmp	r1, r3
10003d86:	d1f9      	bne.n	10003d7c <time_us_64+0x4>
10003d88:	4770      	bx	lr
10003d8a:	46c0      	nop			; (mov r8, r8)
10003d8c:	40054000 	.word	0x40054000

10003d90 <busy_wait_until>:
10003d90:	4b08      	ldr	r3, [pc, #32]	; (10003db4 <busy_wait_until+0x24>)
10003d92:	6a5b      	ldr	r3, [r3, #36]	; 0x24
10003d94:	e001      	b.n	10003d9a <busy_wait_until+0xa>
10003d96:	4b07      	ldr	r3, [pc, #28]	; (10003db4 <busy_wait_until+0x24>)
10003d98:	6a5b      	ldr	r3, [r3, #36]	; 0x24
10003d9a:	428b      	cmp	r3, r1
10003d9c:	d3fb      	bcc.n	10003d96 <busy_wait_until+0x6>
10003d9e:	e001      	b.n	10003da4 <busy_wait_until+0x14>
10003da0:	4b04      	ldr	r3, [pc, #16]	; (10003db4 <busy_wait_until+0x24>)
10003da2:	6a5b      	ldr	r3, [r3, #36]	; 0x24
10003da4:	428b      	cmp	r3, r1
10003da6:	d103      	bne.n	10003db0 <busy_wait_until+0x20>
10003da8:	4b02      	ldr	r3, [pc, #8]	; (10003db4 <busy_wait_until+0x24>)
10003daa:	6a9b      	ldr	r3, [r3, #40]	; 0x28
10003dac:	4283      	cmp	r3, r0
10003dae:	d3f7      	bcc.n	10003da0 <busy_wait_until+0x10>
10003db0:	4770      	bx	lr
10003db2:	46c0      	nop			; (mov r8, r8)
10003db4:	40054000 	.word	0x40054000

10003db8 <hardware_alarm_set_callback>:
10003db8:	b570      	push	{r4, r5, r6, lr}
10003dba:	0004      	movs	r4, r0
10003dbc:	000d      	movs	r5, r1
10003dbe:	f3ef 8610 	mrs	r6, PRIMASK
10003dc2:	b672      	cpsid	i
10003dc4:	4b1b      	ldr	r3, [pc, #108]	; (10003e34 <hardware_alarm_set_callback+0x7c>)
10003dc6:	681b      	ldr	r3, [r3, #0]
10003dc8:	2b00      	cmp	r3, #0
10003dca:	d0fb      	beq.n	10003dc4 <hardware_alarm_set_callback+0xc>
10003dcc:	f3bf 8f5f 	dmb	sy
10003dd0:	2d00      	cmp	r5, #0
10003dd2:	d01c      	beq.n	10003e0e <hardware_alarm_set_callback+0x56>
10003dd4:	0020      	movs	r0, r4
10003dd6:	f7fe fead 	bl	10002b34 <irq_get_vtable_handler>
10003dda:	4b17      	ldr	r3, [pc, #92]	; (10003e38 <hardware_alarm_set_callback+0x80>)
10003ddc:	4283      	cmp	r3, r0
10003dde:	d00b      	beq.n	10003df8 <hardware_alarm_set_callback+0x40>
10003de0:	0019      	movs	r1, r3
10003de2:	0020      	movs	r0, r4
10003de4:	f7fe fec0 	bl	10002b68 <irq_set_exclusive_handler>
10003de8:	2101      	movs	r1, #1
10003dea:	0020      	movs	r0, r4
10003dec:	f7fe fe92 	bl	10002b14 <irq_set_enabled>
10003df0:	2301      	movs	r3, #1
10003df2:	40a3      	lsls	r3, r4
10003df4:	4a11      	ldr	r2, [pc, #68]	; (10003e3c <hardware_alarm_set_callback+0x84>)
10003df6:	6013      	str	r3, [r2, #0]
10003df8:	00a4      	lsls	r4, r4, #2
10003dfa:	4b11      	ldr	r3, [pc, #68]	; (10003e40 <hardware_alarm_set_callback+0x88>)
10003dfc:	50e5      	str	r5, [r4, r3]
10003dfe:	f3bf 8f5f 	dmb	sy
10003e02:	4b0c      	ldr	r3, [pc, #48]	; (10003e34 <hardware_alarm_set_callback+0x7c>)
10003e04:	2200      	movs	r2, #0
10003e06:	601a      	str	r2, [r3, #0]
10003e08:	f386 8810 	msr	PRIMASK, r6
10003e0c:	bd70      	pop	{r4, r5, r6, pc}
10003e0e:	00a2      	lsls	r2, r4, #2
10003e10:	4b0b      	ldr	r3, [pc, #44]	; (10003e40 <hardware_alarm_set_callback+0x88>)
10003e12:	2100      	movs	r1, #0
10003e14:	50d1      	str	r1, [r2, r3]
10003e16:	2201      	movs	r2, #1
10003e18:	40a2      	lsls	r2, r4
10003e1a:	490a      	ldr	r1, [pc, #40]	; (10003e44 <hardware_alarm_set_callback+0x8c>)
10003e1c:	780b      	ldrb	r3, [r1, #0]
10003e1e:	4393      	bics	r3, r2
10003e20:	700b      	strb	r3, [r1, #0]
10003e22:	4905      	ldr	r1, [pc, #20]	; (10003e38 <hardware_alarm_set_callback+0x80>)
10003e24:	0020      	movs	r0, r4
10003e26:	f7fe ffe1 	bl	10002dec <irq_remove_handler>
10003e2a:	2100      	movs	r1, #0
10003e2c:	0020      	movs	r0, r4
10003e2e:	f7fe fe71 	bl	10002b14 <irq_set_enabled>
10003e32:	e7e4      	b.n	10003dfe <hardware_alarm_set_callback+0x46>
10003e34:	d0000128 	.word	0xd0000128
10003e38:	10003cd5 	.word	0x10003cd5
10003e3c:	40056038 	.word	0x40056038
10003e40:	20000ad4 	.word	0x20000ad4
10003e44:	20002151 	.word	0x20002151

10003e48 <hardware_alarm_set_target>:
10003e48:	b5f0      	push	{r4, r5, r6, r7, lr}
10003e4a:	46de      	mov	lr, fp
10003e4c:	b500      	push	{lr}
10003e4e:	b084      	sub	sp, #16
10003e50:	0004      	movs	r4, r0
10003e52:	0015      	movs	r5, r2
10003e54:	9201      	str	r2, [sp, #4]
10003e56:	001e      	movs	r6, r3
10003e58:	9302      	str	r3, [sp, #8]
10003e5a:	f7ff ff8d 	bl	10003d78 <time_us_64>
10003e5e:	9503      	str	r5, [sp, #12]
10003e60:	428e      	cmp	r6, r1
10003e62:	d802      	bhi.n	10003e6a <hardware_alarm_set_target+0x22>
10003e64:	d14e      	bne.n	10003f04 <hardware_alarm_set_target+0xbc>
10003e66:	4285      	cmp	r5, r0
10003e68:	d94c      	bls.n	10003f04 <hardware_alarm_set_target+0xbc>
10003e6a:	f3ef 8b10 	mrs	fp, PRIMASK
10003e6e:	b672      	cpsid	i
10003e70:	4b27      	ldr	r3, [pc, #156]	; (10003f10 <hardware_alarm_set_target+0xc8>)
10003e72:	681b      	ldr	r3, [r3, #0]
10003e74:	2b00      	cmp	r3, #0
10003e76:	d0fb      	beq.n	10003e70 <hardware_alarm_set_target+0x28>
10003e78:	f3bf 8f5f 	dmb	sy
10003e7c:	4a25      	ldr	r2, [pc, #148]	; (10003f14 <hardware_alarm_set_target+0xcc>)
10003e7e:	7817      	ldrb	r7, [r2, #0]
10003e80:	2501      	movs	r5, #1
10003e82:	40a5      	lsls	r5, r4
10003e84:	b2eb      	uxtb	r3, r5
10003e86:	433b      	orrs	r3, r7
10003e88:	7013      	strb	r3, [r2, #0]
10003e8a:	4b23      	ldr	r3, [pc, #140]	; (10003f18 <hardware_alarm_set_target+0xd0>)
10003e8c:	635d      	str	r5, [r3, #52]	; 0x34
10003e8e:	1d22      	adds	r2, r4, #4
10003e90:	0092      	lsls	r2, r2, #2
10003e92:	9901      	ldr	r1, [sp, #4]
10003e94:	50d1      	str	r1, [r2, r3]
10003e96:	00a2      	lsls	r2, r4, #2
10003e98:	4920      	ldr	r1, [pc, #128]	; (10003f1c <hardware_alarm_set_target+0xd4>)
10003e9a:	9802      	ldr	r0, [sp, #8]
10003e9c:	5050      	str	r0, [r2, r1]
10003e9e:	6a1b      	ldr	r3, [r3, #32]
10003ea0:	422b      	tst	r3, r5
10003ea2:	d112      	bne.n	10003eca <hardware_alarm_set_target+0x82>
10003ea4:	4b1c      	ldr	r3, [pc, #112]	; (10003f18 <hardware_alarm_set_target+0xd0>)
10003ea6:	6c1b      	ldr	r3, [r3, #64]	; 0x40
10003ea8:	422b      	tst	r3, r5
10003eaa:	d008      	beq.n	10003ebe <hardware_alarm_set_target+0x76>
10003eac:	2000      	movs	r0, #0
10003eae:	f3bf 8f5f 	dmb	sy
10003eb2:	4b17      	ldr	r3, [pc, #92]	; (10003f10 <hardware_alarm_set_target+0xc8>)
10003eb4:	2200      	movs	r2, #0
10003eb6:	601a      	str	r2, [r3, #0]
10003eb8:	f38b 8810 	msr	PRIMASK, fp
10003ebc:	e023      	b.n	10003f06 <hardware_alarm_set_target+0xbe>
10003ebe:	4b18      	ldr	r3, [pc, #96]	; (10003f20 <hardware_alarm_set_target+0xd8>)
10003ec0:	4a18      	ldr	r2, [pc, #96]	; (10003f24 <hardware_alarm_set_target+0xdc>)
10003ec2:	21c1      	movs	r1, #193	; 0xc1
10003ec4:	4818      	ldr	r0, [pc, #96]	; (10003f28 <hardware_alarm_set_target+0xe0>)
10003ec6:	f000 fb1b 	bl	10004500 <__assert_func>
10003eca:	f7ff ff55 	bl	10003d78 <time_us_64>
10003ece:	428e      	cmp	r6, r1
10003ed0:	d814      	bhi.n	10003efc <hardware_alarm_set_target+0xb4>
10003ed2:	d102      	bne.n	10003eda <hardware_alarm_set_target+0x92>
10003ed4:	9b03      	ldr	r3, [sp, #12]
10003ed6:	4283      	cmp	r3, r0
10003ed8:	d810      	bhi.n	10003efc <hardware_alarm_set_target+0xb4>
10003eda:	4b0e      	ldr	r3, [pc, #56]	; (10003f14 <hardware_alarm_set_target+0xcc>)
10003edc:	781b      	ldrb	r3, [r3, #0]
10003ede:	42bb      	cmp	r3, r7
10003ee0:	d00e      	beq.n	10003f00 <hardware_alarm_set_target+0xb8>
10003ee2:	4b0d      	ldr	r3, [pc, #52]	; (10003f18 <hardware_alarm_set_target+0xd0>)
10003ee4:	621d      	str	r5, [r3, #32]
10003ee6:	635d      	str	r5, [r3, #52]	; 0x34
10003ee8:	201f      	movs	r0, #31
10003eea:	4004      	ands	r4, r0
10003eec:	2301      	movs	r3, #1
10003eee:	40a3      	lsls	r3, r4
10003ef0:	4a0e      	ldr	r2, [pc, #56]	; (10003f2c <hardware_alarm_set_target+0xe4>)
10003ef2:	6013      	str	r3, [r2, #0]
10003ef4:	4b07      	ldr	r3, [pc, #28]	; (10003f14 <hardware_alarm_set_target+0xcc>)
10003ef6:	701f      	strb	r7, [r3, #0]
10003ef8:	381e      	subs	r0, #30
10003efa:	e7d8      	b.n	10003eae <hardware_alarm_set_target+0x66>
10003efc:	2000      	movs	r0, #0
10003efe:	e7d6      	b.n	10003eae <hardware_alarm_set_target+0x66>
10003f00:	2001      	movs	r0, #1
10003f02:	e7d4      	b.n	10003eae <hardware_alarm_set_target+0x66>
10003f04:	2001      	movs	r0, #1
10003f06:	b004      	add	sp, #16
10003f08:	bc80      	pop	{r7}
10003f0a:	46bb      	mov	fp, r7
10003f0c:	bdf0      	pop	{r4, r5, r6, r7, pc}
10003f0e:	46c0      	nop			; (mov r8, r8)
10003f10:	d0000128 	.word	0xd0000128
10003f14:	20002151 	.word	0x20002151
10003f18:	40054000 	.word	0x40054000
10003f1c:	20002098 	.word	0x20002098
10003f20:	1000b6ac 	.word	0x1000b6ac
10003f24:	1000b714 	.word	0x1000b714
10003f28:	1000b6d0 	.word	0x1000b6d0
10003f2c:	e000e280 	.word	0xe000e280

10003f30 <hardware_alarm_cancel>:
10003f30:	f3ef 8c10 	mrs	ip, PRIMASK
10003f34:	b672      	cpsid	i
10003f36:	4b0b      	ldr	r3, [pc, #44]	; (10003f64 <hardware_alarm_cancel+0x34>)
10003f38:	681b      	ldr	r3, [r3, #0]
10003f3a:	2b00      	cmp	r3, #0
10003f3c:	d0fb      	beq.n	10003f36 <hardware_alarm_cancel+0x6>
10003f3e:	f3bf 8f5f 	dmb	sy
10003f42:	2301      	movs	r3, #1
10003f44:	4083      	lsls	r3, r0
10003f46:	4a08      	ldr	r2, [pc, #32]	; (10003f68 <hardware_alarm_cancel+0x38>)
10003f48:	6213      	str	r3, [r2, #32]
10003f4a:	4908      	ldr	r1, [pc, #32]	; (10003f6c <hardware_alarm_cancel+0x3c>)
10003f4c:	780a      	ldrb	r2, [r1, #0]
10003f4e:	439a      	bics	r2, r3
10003f50:	700a      	strb	r2, [r1, #0]
10003f52:	f3bf 8f5f 	dmb	sy
10003f56:	4b03      	ldr	r3, [pc, #12]	; (10003f64 <hardware_alarm_cancel+0x34>)
10003f58:	2200      	movs	r2, #0
10003f5a:	601a      	str	r2, [r3, #0]
10003f5c:	f38c 8810 	msr	PRIMASK, ip
10003f60:	4770      	bx	lr
10003f62:	46c0      	nop			; (mov r8, r8)
10003f64:	d0000128 	.word	0xd0000128
10003f68:	40054000 	.word	0x40054000
10003f6c:	20002151 	.word	0x20002151

10003f70 <ph_add_child_node>:
10003f70:	b510      	push	{r4, lr}
10003f72:	2900      	cmp	r1, #0
10003f74:	d01e      	beq.n	10003fb4 <ph_add_child_node+0x44>
10003f76:	7b03      	ldrb	r3, [r0, #12]
10003f78:	4299      	cmp	r1, r3
10003f7a:	d81b      	bhi.n	10003fb4 <ph_add_child_node+0x44>
10003f7c:	004b      	lsls	r3, r1, #1
10003f7e:	185b      	adds	r3, r3, r1
10003f80:	3b03      	subs	r3, #3
10003f82:	6804      	ldr	r4, [r0, #0]
10003f84:	46a4      	mov	ip, r4
10003f86:	4463      	add	r3, ip
10003f88:	2900      	cmp	r1, #0
10003f8a:	d019      	beq.n	10003fc0 <ph_add_child_node+0x50>
10003f8c:	2a00      	cmp	r2, #0
10003f8e:	d01d      	beq.n	10003fcc <ph_add_child_node+0x5c>
10003f90:	4291      	cmp	r1, r2
10003f92:	d021      	beq.n	10003fd8 <ph_add_child_node+0x68>
10003f94:	2a00      	cmp	r2, #0
10003f96:	d025      	beq.n	10003fe4 <ph_add_child_node+0x74>
10003f98:	7b04      	ldrb	r4, [r0, #12]
10003f9a:	42a2      	cmp	r2, r4
10003f9c:	d822      	bhi.n	10003fe4 <ph_add_child_node+0x74>
10003f9e:	6804      	ldr	r4, [r0, #0]
10003fa0:	0050      	lsls	r0, r2, #1
10003fa2:	1880      	adds	r0, r0, r2
10003fa4:	3803      	subs	r0, #3
10003fa6:	1820      	adds	r0, r4, r0
10003fa8:	7081      	strb	r1, [r0, #2]
10003faa:	7819      	ldrb	r1, [r3, #0]
10003fac:	2900      	cmp	r1, #0
10003fae:	d11f      	bne.n	10003ff0 <ph_add_child_node+0x80>
10003fb0:	701a      	strb	r2, [r3, #0]
10003fb2:	bd10      	pop	{r4, pc}
10003fb4:	4b10      	ldr	r3, [pc, #64]	; (10003ff8 <ph_add_child_node+0x88>)
10003fb6:	4a11      	ldr	r2, [pc, #68]	; (10003ffc <ph_add_child_node+0x8c>)
10003fb8:	2168      	movs	r1, #104	; 0x68
10003fba:	4811      	ldr	r0, [pc, #68]	; (10004000 <ph_add_child_node+0x90>)
10003fbc:	f000 faa0 	bl	10004500 <__assert_func>
10003fc0:	4b10      	ldr	r3, [pc, #64]	; (10004004 <ph_add_child_node+0x94>)
10003fc2:	4a11      	ldr	r2, [pc, #68]	; (10004008 <ph_add_child_node+0x98>)
10003fc4:	316f      	adds	r1, #111	; 0x6f
10003fc6:	480e      	ldr	r0, [pc, #56]	; (10004000 <ph_add_child_node+0x90>)
10003fc8:	f000 fa9a 	bl	10004500 <__assert_func>
10003fcc:	4b0f      	ldr	r3, [pc, #60]	; (1000400c <ph_add_child_node+0x9c>)
10003fce:	4a0e      	ldr	r2, [pc, #56]	; (10004008 <ph_add_child_node+0x98>)
10003fd0:	2170      	movs	r1, #112	; 0x70
10003fd2:	480b      	ldr	r0, [pc, #44]	; (10004000 <ph_add_child_node+0x90>)
10003fd4:	f000 fa94 	bl	10004500 <__assert_func>
10003fd8:	4b0d      	ldr	r3, [pc, #52]	; (10004010 <ph_add_child_node+0xa0>)
10003fda:	4a0b      	ldr	r2, [pc, #44]	; (10004008 <ph_add_child_node+0x98>)
10003fdc:	2171      	movs	r1, #113	; 0x71
10003fde:	4808      	ldr	r0, [pc, #32]	; (10004000 <ph_add_child_node+0x90>)
10003fe0:	f000 fa8e 	bl	10004500 <__assert_func>
10003fe4:	4b04      	ldr	r3, [pc, #16]	; (10003ff8 <ph_add_child_node+0x88>)
10003fe6:	4a05      	ldr	r2, [pc, #20]	; (10003ffc <ph_add_child_node+0x8c>)
10003fe8:	2168      	movs	r1, #104	; 0x68
10003fea:	4805      	ldr	r0, [pc, #20]	; (10004000 <ph_add_child_node+0x90>)
10003fec:	f000 fa88 	bl	10004500 <__assert_func>
10003ff0:	7041      	strb	r1, [r0, #1]
10003ff2:	701a      	strb	r2, [r3, #0]
10003ff4:	e7dd      	b.n	10003fb2 <ph_add_child_node+0x42>
10003ff6:	46c0      	nop			; (mov r8, r8)
10003ff8:	1000b3b0 	.word	0x1000b3b0
10003ffc:	1000b81c 	.word	0x1000b81c
10004000:	1000b3cc 	.word	0x1000b3cc
10004004:	1000b418 	.word	0x1000b418
10004008:	1000b808 	.word	0x1000b808
1000400c:	1000b424 	.word	0x1000b424
10004010:	1000b430 	.word	0x1000b430

10004014 <ph_merge_nodes>:
10004014:	b570      	push	{r4, r5, r6, lr}
10004016:	0006      	movs	r6, r0
10004018:	000d      	movs	r5, r1
1000401a:	0014      	movs	r4, r2
1000401c:	2900      	cmp	r1, #0
1000401e:	d014      	beq.n	1000404a <ph_merge_nodes+0x36>
10004020:	2a00      	cmp	r2, #0
10004022:	d014      	beq.n	1000404e <ph_merge_nodes+0x3a>
10004024:	6880      	ldr	r0, [r0, #8]
10004026:	6873      	ldr	r3, [r6, #4]
10004028:	4798      	blx	r3
1000402a:	2800      	cmp	r0, #0
1000402c:	d006      	beq.n	1000403c <ph_merge_nodes+0x28>
1000402e:	0022      	movs	r2, r4
10004030:	0029      	movs	r1, r5
10004032:	0030      	movs	r0, r6
10004034:	f7ff ff9c 	bl	10003f70 <ph_add_child_node>
10004038:	0028      	movs	r0, r5
1000403a:	e007      	b.n	1000404c <ph_merge_nodes+0x38>
1000403c:	002a      	movs	r2, r5
1000403e:	0021      	movs	r1, r4
10004040:	0030      	movs	r0, r6
10004042:	f7ff ff95 	bl	10003f70 <ph_add_child_node>
10004046:	0020      	movs	r0, r4
10004048:	e000      	b.n	1000404c <ph_merge_nodes+0x38>
1000404a:	0010      	movs	r0, r2
1000404c:	bd70      	pop	{r4, r5, r6, pc}
1000404e:	0008      	movs	r0, r1
10004050:	e7fc      	b.n	1000404c <ph_merge_nodes+0x38>
	...

10004054 <ph_clear>:
10004054:	b510      	push	{r4, lr}
10004056:	2300      	movs	r3, #0
10004058:	7343      	strb	r3, [r0, #13]
1000405a:	3301      	adds	r3, #1
1000405c:	7383      	strb	r3, [r0, #14]
1000405e:	7b03      	ldrb	r3, [r0, #12]
10004060:	73c3      	strb	r3, [r0, #15]
10004062:	2301      	movs	r3, #1
10004064:	7b02      	ldrb	r2, [r0, #12]
10004066:	429a      	cmp	r2, r3
10004068:	d914      	bls.n	10004094 <ph_clear+0x40>
1000406a:	2b00      	cmp	r3, #0
1000406c:	d00c      	beq.n	10004088 <ph_clear+0x34>
1000406e:	7b02      	ldrb	r2, [r0, #12]
10004070:	4293      	cmp	r3, r2
10004072:	d809      	bhi.n	10004088 <ph_clear+0x34>
10004074:	005a      	lsls	r2, r3, #1
10004076:	18d2      	adds	r2, r2, r3
10004078:	3a03      	subs	r2, #3
1000407a:	6801      	ldr	r1, [r0, #0]
1000407c:	468c      	mov	ip, r1
1000407e:	4462      	add	r2, ip
10004080:	3301      	adds	r3, #1
10004082:	b2db      	uxtb	r3, r3
10004084:	7053      	strb	r3, [r2, #1]
10004086:	e7ed      	b.n	10004064 <ph_clear+0x10>
10004088:	4b0b      	ldr	r3, [pc, #44]	; (100040b8 <ph_clear+0x64>)
1000408a:	4a0c      	ldr	r2, [pc, #48]	; (100040bc <ph_clear+0x68>)
1000408c:	2168      	movs	r1, #104	; 0x68
1000408e:	480c      	ldr	r0, [pc, #48]	; (100040c0 <ph_clear+0x6c>)
10004090:	f000 fa36 	bl	10004500 <__assert_func>
10004094:	2a00      	cmp	r2, #0
10004096:	d009      	beq.n	100040ac <ph_clear+0x58>
10004098:	4292      	cmp	r2, r2
1000409a:	d807      	bhi.n	100040ac <ph_clear+0x58>
1000409c:	6801      	ldr	r1, [r0, #0]
1000409e:	0053      	lsls	r3, r2, #1
100040a0:	189a      	adds	r2, r3, r2
100040a2:	3a03      	subs	r2, #3
100040a4:	188a      	adds	r2, r1, r2
100040a6:	2300      	movs	r3, #0
100040a8:	7053      	strb	r3, [r2, #1]
100040aa:	bd10      	pop	{r4, pc}
100040ac:	4b02      	ldr	r3, [pc, #8]	; (100040b8 <ph_clear+0x64>)
100040ae:	4a03      	ldr	r2, [pc, #12]	; (100040bc <ph_clear+0x68>)
100040b0:	2168      	movs	r1, #104	; 0x68
100040b2:	4803      	ldr	r0, [pc, #12]	; (100040c0 <ph_clear+0x6c>)
100040b4:	f000 fa24 	bl	10004500 <__assert_func>
100040b8:	1000b3b0 	.word	0x1000b3b0
100040bc:	1000b81c 	.word	0x1000b81c
100040c0:	1000b3cc 	.word	0x1000b3cc

100040c4 <ph_post_alloc_init>:
100040c4:	b510      	push	{r4, lr}
100040c6:	7301      	strb	r1, [r0, #12]
100040c8:	6042      	str	r2, [r0, #4]
100040ca:	6083      	str	r3, [r0, #8]
100040cc:	f7ff ffc2 	bl	10004054 <ph_clear>
100040d0:	bd10      	pop	{r4, pc}
	...

100040d4 <ph_merge_two_pass>:
100040d4:	b570      	push	{r4, r5, r6, lr}
100040d6:	0004      	movs	r4, r0
100040d8:	1e08      	subs	r0, r1, #0
100040da:	d100      	bne.n	100040de <ph_merge_two_pass+0xa>
100040dc:	bd70      	pop	{r4, r5, r6, pc}
100040de:	2900      	cmp	r1, #0
100040e0:	d034      	beq.n	1000414c <ph_merge_two_pass+0x78>
100040e2:	7b23      	ldrb	r3, [r4, #12]
100040e4:	4299      	cmp	r1, r3
100040e6:	d831      	bhi.n	1000414c <ph_merge_two_pass+0x78>
100040e8:	004b      	lsls	r3, r1, #1
100040ea:	185b      	adds	r3, r3, r1
100040ec:	3b03      	subs	r3, #3
100040ee:	6822      	ldr	r2, [r4, #0]
100040f0:	4694      	mov	ip, r2
100040f2:	4463      	add	r3, ip
100040f4:	785a      	ldrb	r2, [r3, #1]
100040f6:	2a00      	cmp	r2, #0
100040f8:	d0f0      	beq.n	100040dc <ph_merge_two_pass+0x8>
100040fa:	d02d      	beq.n	10004158 <ph_merge_two_pass+0x84>
100040fc:	7b23      	ldrb	r3, [r4, #12]
100040fe:	429a      	cmp	r2, r3
10004100:	d82a      	bhi.n	10004158 <ph_merge_two_pass+0x84>
10004102:	0053      	lsls	r3, r2, #1
10004104:	189b      	adds	r3, r3, r2
10004106:	3b03      	subs	r3, #3
10004108:	6821      	ldr	r1, [r4, #0]
1000410a:	468c      	mov	ip, r1
1000410c:	4463      	add	r3, ip
1000410e:	785d      	ldrb	r5, [r3, #1]
10004110:	2100      	movs	r1, #0
10004112:	7059      	strb	r1, [r3, #1]
10004114:	2800      	cmp	r0, #0
10004116:	d025      	beq.n	10004164 <ph_merge_two_pass+0x90>
10004118:	7b23      	ldrb	r3, [r4, #12]
1000411a:	4298      	cmp	r0, r3
1000411c:	d822      	bhi.n	10004164 <ph_merge_two_pass+0x90>
1000411e:	0043      	lsls	r3, r0, #1
10004120:	181b      	adds	r3, r3, r0
10004122:	3b03      	subs	r3, #3
10004124:	6821      	ldr	r1, [r4, #0]
10004126:	468c      	mov	ip, r1
10004128:	4463      	add	r3, ip
1000412a:	2100      	movs	r1, #0
1000412c:	7059      	strb	r1, [r3, #1]
1000412e:	0001      	movs	r1, r0
10004130:	0020      	movs	r0, r4
10004132:	f7ff ff6f 	bl	10004014 <ph_merge_nodes>
10004136:	0006      	movs	r6, r0
10004138:	0029      	movs	r1, r5
1000413a:	0020      	movs	r0, r4
1000413c:	f7ff ffca 	bl	100040d4 <ph_merge_two_pass>
10004140:	0002      	movs	r2, r0
10004142:	0031      	movs	r1, r6
10004144:	0020      	movs	r0, r4
10004146:	f7ff ff65 	bl	10004014 <ph_merge_nodes>
1000414a:	e7c7      	b.n	100040dc <ph_merge_two_pass+0x8>
1000414c:	4b08      	ldr	r3, [pc, #32]	; (10004170 <ph_merge_two_pass+0x9c>)
1000414e:	4a09      	ldr	r2, [pc, #36]	; (10004174 <ph_merge_two_pass+0xa0>)
10004150:	2168      	movs	r1, #104	; 0x68
10004152:	4809      	ldr	r0, [pc, #36]	; (10004178 <ph_merge_two_pass+0xa4>)
10004154:	f000 f9d4 	bl	10004500 <__assert_func>
10004158:	4b05      	ldr	r3, [pc, #20]	; (10004170 <ph_merge_two_pass+0x9c>)
1000415a:	4a06      	ldr	r2, [pc, #24]	; (10004174 <ph_merge_two_pass+0xa0>)
1000415c:	2168      	movs	r1, #104	; 0x68
1000415e:	4806      	ldr	r0, [pc, #24]	; (10004178 <ph_merge_two_pass+0xa4>)
10004160:	f000 f9ce 	bl	10004500 <__assert_func>
10004164:	4b02      	ldr	r3, [pc, #8]	; (10004170 <ph_merge_two_pass+0x9c>)
10004166:	4a03      	ldr	r2, [pc, #12]	; (10004174 <ph_merge_two_pass+0xa0>)
10004168:	2168      	movs	r1, #104	; 0x68
1000416a:	4803      	ldr	r0, [pc, #12]	; (10004178 <ph_merge_two_pass+0xa4>)
1000416c:	f000 f9c8 	bl	10004500 <__assert_func>
10004170:	1000b3b0 	.word	0x1000b3b0
10004174:	1000b81c 	.word	0x1000b81c
10004178:	1000b3cc 	.word	0x1000b3cc

1000417c <ph_remove_any_head>:
1000417c:	b570      	push	{r4, r5, r6, lr}
1000417e:	0005      	movs	r5, r0
10004180:	000c      	movs	r4, r1
10004182:	0016      	movs	r6, r2
10004184:	2900      	cmp	r1, #0
10004186:	d028      	beq.n	100041da <ph_remove_any_head+0x5e>
10004188:	d02d      	beq.n	100041e6 <ph_remove_any_head+0x6a>
1000418a:	7b03      	ldrb	r3, [r0, #12]
1000418c:	4299      	cmp	r1, r3
1000418e:	d82a      	bhi.n	100041e6 <ph_remove_any_head+0x6a>
10004190:	004b      	lsls	r3, r1, #1
10004192:	185b      	adds	r3, r3, r1
10004194:	3b03      	subs	r3, #3
10004196:	6802      	ldr	r2, [r0, #0]
10004198:	4694      	mov	ip, r2
1000419a:	4463      	add	r3, ip
1000419c:	785a      	ldrb	r2, [r3, #1]
1000419e:	2a00      	cmp	r2, #0
100041a0:	d127      	bne.n	100041f2 <ph_remove_any_head+0x76>
100041a2:	789a      	ldrb	r2, [r3, #2]
100041a4:	2a00      	cmp	r2, #0
100041a6:	d12a      	bne.n	100041fe <ph_remove_any_head+0x82>
100041a8:	7819      	ldrb	r1, [r3, #0]
100041aa:	f7ff ff93 	bl	100040d4 <ph_merge_two_pass>
100041ae:	0003      	movs	r3, r0
100041b0:	2e00      	cmp	r6, #0
100041b2:	d003      	beq.n	100041bc <ph_remove_any_head+0x40>
100041b4:	7bea      	ldrb	r2, [r5, #15]
100041b6:	2a00      	cmp	r2, #0
100041b8:	d127      	bne.n	1000420a <ph_remove_any_head+0x8e>
100041ba:	73ec      	strb	r4, [r5, #15]
100041bc:	2b00      	cmp	r3, #0
100041be:	d137      	bne.n	10004230 <ph_remove_any_head+0xb4>
100041c0:	2c00      	cmp	r4, #0
100041c2:	d049      	beq.n	10004258 <ph_remove_any_head+0xdc>
100041c4:	7b2b      	ldrb	r3, [r5, #12]
100041c6:	429c      	cmp	r4, r3
100041c8:	d846      	bhi.n	10004258 <ph_remove_any_head+0xdc>
100041ca:	682b      	ldr	r3, [r5, #0]
100041cc:	0061      	lsls	r1, r4, #1
100041ce:	190c      	adds	r4, r1, r4
100041d0:	3c03      	subs	r4, #3
100041d2:	191c      	adds	r4, r3, r4
100041d4:	2300      	movs	r3, #0
100041d6:	7063      	strb	r3, [r4, #1]
100041d8:	bd70      	pop	{r4, r5, r6, pc}
100041da:	4b22      	ldr	r3, [pc, #136]	; (10004264 <ph_remove_any_head+0xe8>)
100041dc:	4a22      	ldr	r2, [pc, #136]	; (10004268 <ph_remove_any_head+0xec>)
100041de:	2138      	movs	r1, #56	; 0x38
100041e0:	4822      	ldr	r0, [pc, #136]	; (1000426c <ph_remove_any_head+0xf0>)
100041e2:	f000 f98d 	bl	10004500 <__assert_func>
100041e6:	4b22      	ldr	r3, [pc, #136]	; (10004270 <ph_remove_any_head+0xf4>)
100041e8:	4a22      	ldr	r2, [pc, #136]	; (10004274 <ph_remove_any_head+0xf8>)
100041ea:	2168      	movs	r1, #104	; 0x68
100041ec:	4822      	ldr	r0, [pc, #136]	; (10004278 <ph_remove_any_head+0xfc>)
100041ee:	f000 f987 	bl	10004500 <__assert_func>
100041f2:	4b22      	ldr	r3, [pc, #136]	; (1000427c <ph_remove_any_head+0x100>)
100041f4:	4a1c      	ldr	r2, [pc, #112]	; (10004268 <ph_remove_any_head+0xec>)
100041f6:	213a      	movs	r1, #58	; 0x3a
100041f8:	481c      	ldr	r0, [pc, #112]	; (1000426c <ph_remove_any_head+0xf0>)
100041fa:	f000 f981 	bl	10004500 <__assert_func>
100041fe:	4b20      	ldr	r3, [pc, #128]	; (10004280 <ph_remove_any_head+0x104>)
10004200:	4a19      	ldr	r2, [pc, #100]	; (10004268 <ph_remove_any_head+0xec>)
10004202:	213b      	movs	r1, #59	; 0x3b
10004204:	4819      	ldr	r0, [pc, #100]	; (1000426c <ph_remove_any_head+0xf0>)
10004206:	f000 f97b 	bl	10004500 <__assert_func>
1000420a:	2a00      	cmp	r2, #0
1000420c:	d00a      	beq.n	10004224 <ph_remove_any_head+0xa8>
1000420e:	7b29      	ldrb	r1, [r5, #12]
10004210:	428a      	cmp	r2, r1
10004212:	d807      	bhi.n	10004224 <ph_remove_any_head+0xa8>
10004214:	0051      	lsls	r1, r2, #1
10004216:	188a      	adds	r2, r1, r2
10004218:	3a03      	subs	r2, #3
1000421a:	6829      	ldr	r1, [r5, #0]
1000421c:	468c      	mov	ip, r1
1000421e:	4462      	add	r2, ip
10004220:	7054      	strb	r4, [r2, #1]
10004222:	e7ca      	b.n	100041ba <ph_remove_any_head+0x3e>
10004224:	4b12      	ldr	r3, [pc, #72]	; (10004270 <ph_remove_any_head+0xf4>)
10004226:	4a13      	ldr	r2, [pc, #76]	; (10004274 <ph_remove_any_head+0xf8>)
10004228:	2168      	movs	r1, #104	; 0x68
1000422a:	4813      	ldr	r0, [pc, #76]	; (10004278 <ph_remove_any_head+0xfc>)
1000422c:	f000 f968 	bl	10004500 <__assert_func>
10004230:	2b00      	cmp	r3, #0
10004232:	d00b      	beq.n	1000424c <ph_remove_any_head+0xd0>
10004234:	7b2a      	ldrb	r2, [r5, #12]
10004236:	4293      	cmp	r3, r2
10004238:	d808      	bhi.n	1000424c <ph_remove_any_head+0xd0>
1000423a:	0043      	lsls	r3, r0, #1
1000423c:	181b      	adds	r3, r3, r0
1000423e:	3b03      	subs	r3, #3
10004240:	682a      	ldr	r2, [r5, #0]
10004242:	4694      	mov	ip, r2
10004244:	4463      	add	r3, ip
10004246:	2200      	movs	r2, #0
10004248:	709a      	strb	r2, [r3, #2]
1000424a:	e7b9      	b.n	100041c0 <ph_remove_any_head+0x44>
1000424c:	4b08      	ldr	r3, [pc, #32]	; (10004270 <ph_remove_any_head+0xf4>)
1000424e:	4a09      	ldr	r2, [pc, #36]	; (10004274 <ph_remove_any_head+0xf8>)
10004250:	2168      	movs	r1, #104	; 0x68
10004252:	4809      	ldr	r0, [pc, #36]	; (10004278 <ph_remove_any_head+0xfc>)
10004254:	f000 f954 	bl	10004500 <__assert_func>
10004258:	4b05      	ldr	r3, [pc, #20]	; (10004270 <ph_remove_any_head+0xf4>)
1000425a:	4a06      	ldr	r2, [pc, #24]	; (10004274 <ph_remove_any_head+0xf8>)
1000425c:	2168      	movs	r1, #104	; 0x68
1000425e:	4806      	ldr	r0, [pc, #24]	; (10004278 <ph_remove_any_head+0xfc>)
10004260:	f000 f94e 	bl	10004500 <__assert_func>
10004264:	1000b730 	.word	0x1000b730
10004268:	1000b7f4 	.word	0x1000b7f4
1000426c:	1000b738 	.word	0x1000b738
10004270:	1000b3b0 	.word	0x1000b3b0
10004274:	1000b81c 	.word	0x1000b81c
10004278:	1000b3cc 	.word	0x1000b3cc
1000427c:	1000b770 	.word	0x1000b770
10004280:	1000b798 	.word	0x1000b798

10004284 <ph_remove_head>:
10004284:	b570      	push	{r4, r5, r6, lr}
10004286:	0004      	movs	r4, r0
10004288:	000a      	movs	r2, r1
1000428a:	7b45      	ldrb	r5, [r0, #13]
1000428c:	0029      	movs	r1, r5
1000428e:	f7ff ff75 	bl	1000417c <ph_remove_any_head>
10004292:	7360      	strb	r0, [r4, #13]
10004294:	0028      	movs	r0, r5
10004296:	bd70      	pop	{r4, r5, r6, pc}

10004298 <ph_remove_and_free_node>:
10004298:	b570      	push	{r4, r5, r6, lr}
1000429a:	0004      	movs	r4, r0
1000429c:	2900      	cmp	r1, #0
1000429e:	d067      	beq.n	10004370 <ph_remove_and_free_node+0xd8>
100042a0:	7b43      	ldrb	r3, [r0, #13]
100042a2:	428b      	cmp	r3, r1
100042a4:	d00e      	beq.n	100042c4 <ph_remove_and_free_node+0x2c>
100042a6:	2900      	cmp	r1, #0
100042a8:	d011      	beq.n	100042ce <ph_remove_and_free_node+0x36>
100042aa:	7b03      	ldrb	r3, [r0, #12]
100042ac:	4299      	cmp	r1, r3
100042ae:	d80e      	bhi.n	100042ce <ph_remove_and_free_node+0x36>
100042b0:	004b      	lsls	r3, r1, #1
100042b2:	185b      	adds	r3, r3, r1
100042b4:	3b03      	subs	r3, #3
100042b6:	6802      	ldr	r2, [r0, #0]
100042b8:	18d0      	adds	r0, r2, r3
100042ba:	7883      	ldrb	r3, [r0, #2]
100042bc:	2b00      	cmp	r3, #0
100042be:	d10c      	bne.n	100042da <ph_remove_and_free_node+0x42>
100042c0:	2000      	movs	r0, #0
100042c2:	e056      	b.n	10004372 <ph_remove_and_free_node+0xda>
100042c4:	2101      	movs	r1, #1
100042c6:	f7ff ffdd 	bl	10004284 <ph_remove_head>
100042ca:	2001      	movs	r0, #1
100042cc:	e051      	b.n	10004372 <ph_remove_and_free_node+0xda>
100042ce:	4b29      	ldr	r3, [pc, #164]	; (10004374 <ph_remove_and_free_node+0xdc>)
100042d0:	4a29      	ldr	r2, [pc, #164]	; (10004378 <ph_remove_and_free_node+0xe0>)
100042d2:	2168      	movs	r1, #104	; 0x68
100042d4:	4829      	ldr	r0, [pc, #164]	; (1000437c <ph_remove_and_free_node+0xe4>)
100042d6:	f000 f913 	bl	10004500 <__assert_func>
100042da:	2b00      	cmp	r3, #0
100042dc:	d020      	beq.n	10004320 <ph_remove_and_free_node+0x88>
100042de:	7b22      	ldrb	r2, [r4, #12]
100042e0:	4293      	cmp	r3, r2
100042e2:	d81d      	bhi.n	10004320 <ph_remove_and_free_node+0x88>
100042e4:	005a      	lsls	r2, r3, #1
100042e6:	18d3      	adds	r3, r2, r3
100042e8:	3b03      	subs	r3, #3
100042ea:	6822      	ldr	r2, [r4, #0]
100042ec:	18d2      	adds	r2, r2, r3
100042ee:	6825      	ldr	r5, [r4, #0]
100042f0:	5ceb      	ldrb	r3, [r5, r3]
100042f2:	428b      	cmp	r3, r1
100042f4:	d01a      	beq.n	1000432c <ph_remove_and_free_node+0x94>
100042f6:	2b00      	cmp	r3, #0
100042f8:	d01b      	beq.n	10004332 <ph_remove_and_free_node+0x9a>
100042fa:	7b22      	ldrb	r2, [r4, #12]
100042fc:	4293      	cmp	r3, r2
100042fe:	d818      	bhi.n	10004332 <ph_remove_and_free_node+0x9a>
10004300:	005a      	lsls	r2, r3, #1
10004302:	18d3      	adds	r3, r2, r3
10004304:	3b03      	subs	r3, #3
10004306:	6822      	ldr	r2, [r4, #0]
10004308:	18d2      	adds	r2, r2, r3
1000430a:	7853      	ldrb	r3, [r2, #1]
1000430c:	428b      	cmp	r3, r1
1000430e:	d016      	beq.n	1000433e <ph_remove_and_free_node+0xa6>
10004310:	2b00      	cmp	r3, #0
10004312:	d1f0      	bne.n	100042f6 <ph_remove_and_free_node+0x5e>
10004314:	4b1a      	ldr	r3, [pc, #104]	; (10004380 <ph_remove_and_free_node+0xe8>)
10004316:	4a1b      	ldr	r2, [pc, #108]	; (10004384 <ph_remove_and_free_node+0xec>)
10004318:	2167      	movs	r1, #103	; 0x67
1000431a:	481b      	ldr	r0, [pc, #108]	; (10004388 <ph_remove_and_free_node+0xf0>)
1000431c:	f000 f8f0 	bl	10004500 <__assert_func>
10004320:	4b14      	ldr	r3, [pc, #80]	; (10004374 <ph_remove_and_free_node+0xdc>)
10004322:	4a15      	ldr	r2, [pc, #84]	; (10004378 <ph_remove_and_free_node+0xe0>)
10004324:	2168      	movs	r1, #104	; 0x68
10004326:	4815      	ldr	r0, [pc, #84]	; (1000437c <ph_remove_and_free_node+0xe4>)
10004328:	f000 f8ea 	bl	10004500 <__assert_func>
1000432c:	7843      	ldrb	r3, [r0, #1]
1000432e:	7013      	strb	r3, [r2, #0]
10004330:	e007      	b.n	10004342 <ph_remove_and_free_node+0xaa>
10004332:	4b10      	ldr	r3, [pc, #64]	; (10004374 <ph_remove_and_free_node+0xdc>)
10004334:	4a10      	ldr	r2, [pc, #64]	; (10004378 <ph_remove_and_free_node+0xe0>)
10004336:	2168      	movs	r1, #104	; 0x68
10004338:	4810      	ldr	r0, [pc, #64]	; (1000437c <ph_remove_and_free_node+0xe4>)
1000433a:	f000 f8e1 	bl	10004500 <__assert_func>
1000433e:	7843      	ldrb	r3, [r0, #1]
10004340:	7053      	strb	r3, [r2, #1]
10004342:	2300      	movs	r3, #0
10004344:	7083      	strb	r3, [r0, #2]
10004346:	7043      	strb	r3, [r0, #1]
10004348:	2201      	movs	r2, #1
1000434a:	0020      	movs	r0, r4
1000434c:	f7ff ff16 	bl	1000417c <ph_remove_any_head>
10004350:	0002      	movs	r2, r0
10004352:	7b61      	ldrb	r1, [r4, #13]
10004354:	4281      	cmp	r1, r0
10004356:	d005      	beq.n	10004364 <ph_remove_and_free_node+0xcc>
10004358:	0020      	movs	r0, r4
1000435a:	f7ff fe5b 	bl	10004014 <ph_merge_nodes>
1000435e:	7360      	strb	r0, [r4, #13]
10004360:	2001      	movs	r0, #1
10004362:	e006      	b.n	10004372 <ph_remove_and_free_node+0xda>
10004364:	4b09      	ldr	r3, [pc, #36]	; (1000438c <ph_remove_and_free_node+0xf4>)
10004366:	4a07      	ldr	r2, [pc, #28]	; (10004384 <ph_remove_and_free_node+0xec>)
10004368:	216d      	movs	r1, #109	; 0x6d
1000436a:	4807      	ldr	r0, [pc, #28]	; (10004388 <ph_remove_and_free_node+0xf0>)
1000436c:	f000 f8c8 	bl	10004500 <__assert_func>
10004370:	2000      	movs	r0, #0
10004372:	bd70      	pop	{r4, r5, r6, pc}
10004374:	1000b3b0 	.word	0x1000b3b0
10004378:	1000b81c 	.word	0x1000b81c
1000437c:	1000b3cc 	.word	0x1000b3cc
10004380:	1000b274 	.word	0x1000b274
10004384:	1000b7dc 	.word	0x1000b7dc
10004388:	1000b738 	.word	0x1000b738
1000438c:	1000b7bc 	.word	0x1000b7bc

10004390 <mutex_init>:
10004390:	b510      	push	{r4, lr}
10004392:	0004      	movs	r4, r0
10004394:	f7fe fb2c 	bl	100029f0 <next_striped_spin_lock_num>
10004398:	0001      	movs	r1, r0
1000439a:	0020      	movs	r0, r4
1000439c:	f7fe fe98 	bl	100030d0 <lock_init>
100043a0:	23ff      	movs	r3, #255	; 0xff
100043a2:	7123      	strb	r3, [r4, #4]
100043a4:	f3bf 8f5f 	dmb	sy
100043a8:	bd10      	pop	{r4, pc}

100043aa <recursive_mutex_init>:
100043aa:	b510      	push	{r4, lr}
100043ac:	0004      	movs	r4, r0
100043ae:	f7fe fb1f 	bl	100029f0 <next_striped_spin_lock_num>
100043b2:	0001      	movs	r1, r0
100043b4:	0020      	movs	r0, r4
100043b6:	f7fe fe8b 	bl	100030d0 <lock_init>
100043ba:	23ff      	movs	r3, #255	; 0xff
100043bc:	7123      	strb	r3, [r4, #4]
100043be:	2300      	movs	r3, #0
100043c0:	7163      	strb	r3, [r4, #5]
100043c2:	f3bf 8f5f 	dmb	sy
100043c6:	bd10      	pop	{r4, pc}

100043c8 <critical_section_init_with_lock_num>:
100043c8:	4b03      	ldr	r3, [pc, #12]	; (100043d8 <critical_section_init_with_lock_num+0x10>)
100043ca:	469c      	mov	ip, r3
100043cc:	4461      	add	r1, ip
100043ce:	0089      	lsls	r1, r1, #2
100043d0:	6001      	str	r1, [r0, #0]
100043d2:	f3bf 8f5f 	dmb	sy
100043d6:	4770      	bx	lr
100043d8:	34000040 	.word	0x34000040

100043dc <critical_section_init>:
100043dc:	b510      	push	{r4, lr}
100043de:	0004      	movs	r4, r0
100043e0:	2001      	movs	r0, #1
100043e2:	f7fe fb13 	bl	10002a0c <spin_lock_claim_unused>
100043e6:	0001      	movs	r1, r0
100043e8:	0020      	movs	r0, r4
100043ea:	f7ff ffed 	bl	100043c8 <critical_section_init_with_lock_num>
100043ee:	bd10      	pop	{r4, pc}

100043f0 <uart_set_baudrate>:
100043f0:	b570      	push	{r4, r5, r6, lr}
100043f2:	0004      	movs	r4, r0
100043f4:	000d      	movs	r5, r1
100043f6:	2006      	movs	r0, #6
100043f8:	f000 fa36 	bl	10004868 <clock_get_hz>
100043fc:	00c0      	lsls	r0, r0, #3
100043fe:	0029      	movs	r1, r5
10004400:	f001 fc5a 	bl	10005cb8 <__wrap___aeabi_uidiv>
10004404:	09c6      	lsrs	r6, r0, #7
10004406:	d008      	beq.n	1000441a <uart_set_baudrate+0x2a>
10004408:	4b0e      	ldr	r3, [pc, #56]	; (10004444 <uart_set_baudrate+0x54>)
1000440a:	429e      	cmp	r6, r3
1000440c:	d817      	bhi.n	1000443e <uart_set_baudrate+0x4e>
1000440e:	237f      	movs	r3, #127	; 0x7f
10004410:	4018      	ands	r0, r3
10004412:	3001      	adds	r0, #1
10004414:	0035      	movs	r5, r6
10004416:	0846      	lsrs	r6, r0, #1
10004418:	e000      	b.n	1000441c <uart_set_baudrate+0x2c>
1000441a:	2501      	movs	r5, #1
1000441c:	6265      	str	r5, [r4, #36]	; 0x24
1000441e:	62a6      	str	r6, [r4, #40]	; 0x28
10004420:	342c      	adds	r4, #44	; 0x2c
10004422:	2080      	movs	r0, #128	; 0x80
10004424:	0180      	lsls	r0, r0, #6
10004426:	4304      	orrs	r4, r0
10004428:	2300      	movs	r3, #0
1000442a:	6023      	str	r3, [r4, #0]
1000442c:	2006      	movs	r0, #6
1000442e:	f000 fa1b 	bl	10004868 <clock_get_hz>
10004432:	0080      	lsls	r0, r0, #2
10004434:	01a9      	lsls	r1, r5, #6
10004436:	1989      	adds	r1, r1, r6
10004438:	f001 fc3e 	bl	10005cb8 <__wrap___aeabi_uidiv>
1000443c:	bd70      	pop	{r4, r5, r6, pc}
1000443e:	2600      	movs	r6, #0
10004440:	4d01      	ldr	r5, [pc, #4]	; (10004448 <uart_set_baudrate+0x58>)
10004442:	e7eb      	b.n	1000441c <uart_set_baudrate+0x2c>
10004444:	0000fffe 	.word	0x0000fffe
10004448:	0000ffff 	.word	0x0000ffff

1000444c <uart_set_translate_crlf>:
1000444c:	2900      	cmp	r1, #0
1000444e:	d009      	beq.n	10004464 <uart_set_translate_crlf+0x18>
10004450:	220a      	movs	r2, #10
10004452:	4b06      	ldr	r3, [pc, #24]	; (1000446c <uart_set_translate_crlf+0x20>)
10004454:	469c      	mov	ip, r3
10004456:	4460      	add	r0, ip
10004458:	4243      	negs	r3, r0
1000445a:	4158      	adcs	r0, r3
1000445c:	0040      	lsls	r0, r0, #1
1000445e:	4b04      	ldr	r3, [pc, #16]	; (10004470 <uart_set_translate_crlf+0x24>)
10004460:	52c2      	strh	r2, [r0, r3]
10004462:	4770      	bx	lr
10004464:	2280      	movs	r2, #128	; 0x80
10004466:	0052      	lsls	r2, r2, #1
10004468:	e7f3      	b.n	10004452 <uart_set_translate_crlf+0x6>
1000446a:	46c0      	nop			; (mov r8, r8)
1000446c:	bffc8000 	.word	0xbffc8000
10004470:	200020ac 	.word	0x200020ac

10004474 <uart_init>:
10004474:	b570      	push	{r4, r5, r6, lr}
10004476:	0005      	movs	r5, r0
10004478:	000c      	movs	r4, r1
1000447a:	2006      	movs	r0, #6
1000447c:	f000 f9f4 	bl	10004868 <clock_get_hz>
10004480:	2800      	cmp	r0, #0
10004482:	d029      	beq.n	100044d8 <uart_init+0x64>
10004484:	4b16      	ldr	r3, [pc, #88]	; (100044e0 <uart_init+0x6c>)
10004486:	429d      	cmp	r5, r3
10004488:	d027      	beq.n	100044da <uart_init+0x66>
1000448a:	2280      	movs	r2, #128	; 0x80
1000448c:	03d2      	lsls	r2, r2, #15
1000448e:	4b15      	ldr	r3, [pc, #84]	; (100044e4 <uart_init+0x70>)
10004490:	601a      	str	r2, [r3, #0]
10004492:	4b15      	ldr	r3, [pc, #84]	; (100044e8 <uart_init+0x74>)
10004494:	601a      	str	r2, [r3, #0]
10004496:	4b15      	ldr	r3, [pc, #84]	; (100044ec <uart_init+0x78>)
10004498:	689b      	ldr	r3, [r3, #8]
1000449a:	0011      	movs	r1, r2
1000449c:	4399      	bics	r1, r3
1000449e:	d1fa      	bne.n	10004496 <uart_init+0x22>
100044a0:	2100      	movs	r1, #0
100044a2:	0028      	movs	r0, r5
100044a4:	f7ff ffd2 	bl	1000444c <uart_set_translate_crlf>
100044a8:	0021      	movs	r1, r4
100044aa:	0028      	movs	r0, r5
100044ac:	f7ff ffa0 	bl	100043f0 <uart_set_baudrate>
100044b0:	002c      	movs	r4, r5
100044b2:	342c      	adds	r4, #44	; 0x2c
100044b4:	6ae9      	ldr	r1, [r5, #44]	; 0x2c
100044b6:	2260      	movs	r2, #96	; 0x60
100044b8:	404a      	eors	r2, r1
100044ba:	216e      	movs	r1, #110	; 0x6e
100044bc:	4011      	ands	r1, r2
100044be:	2280      	movs	r2, #128	; 0x80
100044c0:	0152      	lsls	r2, r2, #5
100044c2:	4322      	orrs	r2, r4
100044c4:	6011      	str	r1, [r2, #0]
100044c6:	4b0a      	ldr	r3, [pc, #40]	; (100044f0 <uart_init+0x7c>)
100044c8:	632b      	str	r3, [r5, #48]	; 0x30
100044ca:	2380      	movs	r3, #128	; 0x80
100044cc:	019b      	lsls	r3, r3, #6
100044ce:	4323      	orrs	r3, r4
100044d0:	2210      	movs	r2, #16
100044d2:	601a      	str	r2, [r3, #0]
100044d4:	2303      	movs	r3, #3
100044d6:	64ab      	str	r3, [r5, #72]	; 0x48
100044d8:	bd70      	pop	{r4, r5, r6, pc}
100044da:	2280      	movs	r2, #128	; 0x80
100044dc:	0412      	lsls	r2, r2, #16
100044de:	e7d6      	b.n	1000448e <uart_init+0x1a>
100044e0:	40038000 	.word	0x40038000
100044e4:	4000e000 	.word	0x4000e000
100044e8:	4000f000 	.word	0x4000f000
100044ec:	4000c000 	.word	0x4000c000
100044f0:	00000301 	.word	0x00000301

100044f4 <_exit>:
100044f4:	be00      	bkpt	0x0000
100044f6:	e7fd      	b.n	100044f4 <_exit>

100044f8 <exit>:
100044f8:	b510      	push	{r4, lr}
100044fa:	f7ff fffb 	bl	100044f4 <_exit>
	...

10004500 <__assert_func>:
10004500:	b510      	push	{r4, lr}
10004502:	b082      	sub	sp, #8
10004504:	000c      	movs	r4, r1
10004506:	0019      	movs	r1, r3
10004508:	2a00      	cmp	r2, #0
1000450a:	d00c      	beq.n	10004526 <__assert_func+0x26>
1000450c:	4b08      	ldr	r3, [pc, #32]	; (10004530 <__assert_func+0x30>)
1000450e:	2a00      	cmp	r2, #0
10004510:	d00b      	beq.n	1000452a <__assert_func+0x2a>
10004512:	9201      	str	r2, [sp, #4]
10004514:	9300      	str	r3, [sp, #0]
10004516:	0023      	movs	r3, r4
10004518:	0002      	movs	r2, r0
1000451a:	4806      	ldr	r0, [pc, #24]	; (10004534 <__assert_func+0x34>)
1000451c:	f003 f968 	bl	100077f0 <__wrap_printf>
10004520:	2001      	movs	r0, #1
10004522:	f7ff ffe7 	bl	100044f4 <_exit>
10004526:	4b04      	ldr	r3, [pc, #16]	; (10004538 <__assert_func+0x38>)
10004528:	e7f1      	b.n	1000450e <__assert_func+0xe>
1000452a:	4a03      	ldr	r2, [pc, #12]	; (10004538 <__assert_func+0x38>)
1000452c:	e7f1      	b.n	10004512 <__assert_func+0x12>
1000452e:	46c0      	nop			; (mov r8, r8)
10004530:	1000b8f0 	.word	0x1000b8f0
10004534:	1000b900 	.word	0x1000b900
10004538:	1000ab88 	.word	0x1000ab88

1000453c <runtime_init>:
1000453c:	b570      	push	{r4, r5, r6, lr}
1000453e:	4b2b      	ldr	r3, [pc, #172]	; (100045ec <runtime_init+0xb0>)
10004540:	4a2b      	ldr	r2, [pc, #172]	; (100045f0 <runtime_init+0xb4>)
10004542:	601a      	str	r2, [r3, #0]
10004544:	4b2b      	ldr	r3, [pc, #172]	; (100045f4 <runtime_init+0xb8>)
10004546:	4a2c      	ldr	r2, [pc, #176]	; (100045f8 <runtime_init+0xbc>)
10004548:	601a      	str	r2, [r3, #0]
1000454a:	4b2c      	ldr	r3, [pc, #176]	; (100045fc <runtime_init+0xc0>)
1000454c:	689a      	ldr	r2, [r3, #8]
1000454e:	4b2a      	ldr	r3, [pc, #168]	; (100045f8 <runtime_init+0xbc>)
10004550:	4393      	bics	r3, r2
10004552:	d1fa      	bne.n	1000454a <runtime_init+0xe>
10004554:	4c2a      	ldr	r4, [pc, #168]	; (10004600 <runtime_init+0xc4>)
10004556:	e001      	b.n	1000455c <runtime_init+0x20>
10004558:	cc08      	ldmia	r4!, {r3}
1000455a:	4798      	blx	r3
1000455c:	4b29      	ldr	r3, [pc, #164]	; (10004604 <runtime_init+0xc8>)
1000455e:	429c      	cmp	r4, r3
10004560:	d3fa      	bcc.n	10004558 <runtime_init+0x1c>
10004562:	f000 f901 	bl	10004768 <clocks_init>
10004566:	4b23      	ldr	r3, [pc, #140]	; (100045f4 <runtime_init+0xb8>)
10004568:	4a27      	ldr	r2, [pc, #156]	; (10004608 <runtime_init+0xcc>)
1000456a:	601a      	str	r2, [r3, #0]
1000456c:	4b23      	ldr	r3, [pc, #140]	; (100045fc <runtime_init+0xc0>)
1000456e:	689b      	ldr	r3, [r3, #8]
10004570:	43db      	mvns	r3, r3
10004572:	01db      	lsls	r3, r3, #7
10004574:	d1fa      	bne.n	1000456c <runtime_init+0x30>
10004576:	4b25      	ldr	r3, [pc, #148]	; (1000460c <runtime_init+0xd0>)
10004578:	2240      	movs	r2, #64	; 0x40
1000457a:	679a      	str	r2, [r3, #120]	; 0x78
1000457c:	675a      	str	r2, [r3, #116]	; 0x74
1000457e:	671a      	str	r2, [r3, #112]	; 0x70
10004580:	66da      	str	r2, [r3, #108]	; 0x6c
10004582:	4c23      	ldr	r4, [pc, #140]	; (10004610 <runtime_init+0xd4>)
10004584:	e009      	b.n	1000459a <runtime_init+0x5e>
10004586:	4b23      	ldr	r3, [pc, #140]	; (10004614 <runtime_init+0xd8>)
10004588:	4a23      	ldr	r2, [pc, #140]	; (10004618 <runtime_init+0xdc>)
1000458a:	2183      	movs	r1, #131	; 0x83
1000458c:	4823      	ldr	r0, [pc, #140]	; (1000461c <runtime_init+0xe0>)
1000458e:	f7ff ffb7 	bl	10004500 <__assert_func>
10004592:	0020      	movs	r0, r4
10004594:	f7ff fefc 	bl	10004390 <mutex_init>
10004598:	3408      	adds	r4, #8
1000459a:	4b21      	ldr	r3, [pc, #132]	; (10004620 <runtime_init+0xe4>)
1000459c:	429c      	cmp	r4, r3
1000459e:	d209      	bcs.n	100045b4 <runtime_init+0x78>
100045a0:	6823      	ldr	r3, [r4, #0]
100045a2:	2b00      	cmp	r3, #0
100045a4:	d0f5      	beq.n	10004592 <runtime_init+0x56>
100045a6:	2b01      	cmp	r3, #1
100045a8:	d1ed      	bne.n	10004586 <runtime_init+0x4a>
100045aa:	0020      	movs	r0, r4
100045ac:	f7ff fefd 	bl	100043aa <recursive_mutex_init>
100045b0:	3408      	adds	r4, #8
100045b2:	e7f2      	b.n	1000459a <runtime_init+0x5e>
100045b4:	4c1b      	ldr	r4, [pc, #108]	; (10004624 <runtime_init+0xe8>)
100045b6:	68a1      	ldr	r1, [r4, #8]
100045b8:	4d1b      	ldr	r5, [pc, #108]	; (10004628 <runtime_init+0xec>)
100045ba:	22c0      	movs	r2, #192	; 0xc0
100045bc:	0028      	movs	r0, r5
100045be:	f002 ffd3 	bl	10007568 <__wrap___aeabi_memcpy>
100045c2:	60a5      	str	r5, [r4, #8]
100045c4:	f7fb fe4f 	bl	10000266 <__get_current_exception>
100045c8:	2800      	cmp	r0, #0
100045ca:	d000      	beq.n	100045ce <runtime_init+0x92>
100045cc:	be00      	bkpt	0x0000
100045ce:	f7fe f9ff 	bl	100029d0 <spin_locks_reset>
100045d2:	f7fe fd57 	bl	10003084 <irq_init_priorities>
100045d6:	f7ff f8d9 	bl	1000378c <alarm_pool_init_default>
100045da:	4c14      	ldr	r4, [pc, #80]	; (1000462c <runtime_init+0xf0>)
100045dc:	e001      	b.n	100045e2 <runtime_init+0xa6>
100045de:	cc08      	ldmia	r4!, {r3}
100045e0:	4798      	blx	r3
100045e2:	4b13      	ldr	r3, [pc, #76]	; (10004630 <runtime_init+0xf4>)
100045e4:	429c      	cmp	r4, r3
100045e6:	d3fa      	bcc.n	100045de <runtime_init+0xa2>
100045e8:	bd70      	pop	{r4, r5, r6, pc}
100045ea:	46c0      	nop			; (mov r8, r8)
100045ec:	4000e000 	.word	0x4000e000
100045f0:	fefbcdbf 	.word	0xfefbcdbf
100045f4:	4000f000 	.word	0x4000f000
100045f8:	003c7ffe 	.word	0x003c7ffe
100045fc:	4000c000 	.word	0x4000c000
10004600:	2000053c 	.word	0x2000053c
10004604:	2000054c 	.word	0x2000054c
10004608:	01ffffff 	.word	0x01ffffff
1000460c:	4001f000 	.word	0x4001f000
10004610:	20000534 	.word	0x20000534
10004614:	1000b930 	.word	0x1000b930
10004618:	1000b9a4 	.word	0x1000b9a4
1000461c:	1000b950 	.word	0x1000b950
10004620:	2000053c 	.word	0x2000053c
10004624:	e000ed00 	.word	0xe000ed00
10004628:	20000000 	.word	0x20000000
1000462c:	2000054c 	.word	0x2000054c
10004630:	20000554 	.word	0x20000554

10004634 <panic>:
10004634:	b40f      	push	{r0, r1, r2, r3}
10004636:	b500      	push	{lr}
10004638:	b083      	sub	sp, #12
1000463a:	4808      	ldr	r0, [pc, #32]	; (1000465c <panic+0x28>)
1000463c:	f003 f8a6 	bl	1000778c <__wrap_puts>
10004640:	9b04      	ldr	r3, [sp, #16]
10004642:	2b00      	cmp	r3, #0
10004644:	d007      	beq.n	10004656 <panic+0x22>
10004646:	a905      	add	r1, sp, #20
10004648:	9101      	str	r1, [sp, #4]
1000464a:	0018      	movs	r0, r3
1000464c:	f003 f8ae 	bl	100077ac <__wrap_vprintf>
10004650:	4803      	ldr	r0, [pc, #12]	; (10004660 <panic+0x2c>)
10004652:	f003 f89b 	bl	1000778c <__wrap_puts>
10004656:	2001      	movs	r0, #1
10004658:	f7ff ff4c 	bl	100044f4 <_exit>
1000465c:	1000b994 	.word	0x1000b994
10004660:	1000abb4 	.word	0x1000abb4

10004664 <clock_configure>:
10004664:	b5f8      	push	{r3, r4, r5, r6, r7, lr}
10004666:	46de      	mov	lr, fp
10004668:	4657      	mov	r7, sl
1000466a:	464e      	mov	r6, r9
1000466c:	4645      	mov	r5, r8
1000466e:	b5e0      	push	{r5, r6, r7, lr}
10004670:	0005      	movs	r5, r0
10004672:	000f      	movs	r7, r1
10004674:	4692      	mov	sl, r2
10004676:	9a0a      	ldr	r2, [sp, #40]	; 0x28
10004678:	4293      	cmp	r3, r2
1000467a:	d34e      	bcc.n	1000471a <clock_configure+0xb6>
1000467c:	0e1a      	lsrs	r2, r3, #24
1000467e:	4691      	mov	r9, r2
10004680:	021e      	lsls	r6, r3, #8
10004682:	9a0a      	ldr	r2, [sp, #40]	; 0x28
10004684:	2300      	movs	r3, #0
10004686:	0030      	movs	r0, r6
10004688:	4649      	mov	r1, r9
1000468a:	f001 fb57 	bl	10005d3c <__wrap___aeabi_uldivmod>
1000468e:	4680      	mov	r8, r0
10004690:	006c      	lsls	r4, r5, #1
10004692:	1964      	adds	r4, r4, r5
10004694:	00a4      	lsls	r4, r4, #2
10004696:	4b2f      	ldr	r3, [pc, #188]	; (10004754 <clock_configure+0xf0>)
10004698:	469c      	mov	ip, r3
1000469a:	4464      	add	r4, ip
1000469c:	6863      	ldr	r3, [r4, #4]
1000469e:	4283      	cmp	r3, r0
100046a0:	d200      	bcs.n	100046a4 <clock_configure+0x40>
100046a2:	6060      	str	r0, [r4, #4]
100046a4:	1f2b      	subs	r3, r5, #4
100046a6:	b2db      	uxtb	r3, r3
100046a8:	469b      	mov	fp, r3
100046aa:	2b01      	cmp	r3, #1
100046ac:	d93b      	bls.n	10004726 <clock_configure+0xc2>
100046ae:	23c0      	movs	r3, #192	; 0xc0
100046b0:	019b      	lsls	r3, r3, #6
100046b2:	4323      	orrs	r3, r4
100046b4:	2280      	movs	r2, #128	; 0x80
100046b6:	0112      	lsls	r2, r2, #4
100046b8:	601a      	str	r2, [r3, #0]
100046ba:	00ab      	lsls	r3, r5, #2
100046bc:	4a26      	ldr	r2, [pc, #152]	; (10004758 <clock_configure+0xf4>)
100046be:	5899      	ldr	r1, [r3, r2]
100046c0:	2900      	cmp	r1, #0
100046c2:	d005      	beq.n	100046d0 <clock_configure+0x6c>
100046c4:	6950      	ldr	r0, [r2, #20]
100046c6:	f001 faf7 	bl	10005cb8 <__wrap___aeabi_uidiv>
100046ca:	3001      	adds	r0, #1
100046cc:	3801      	subs	r0, #1
100046ce:	d1fd      	bne.n	100046cc <clock_configure+0x68>
100046d0:	4653      	mov	r3, sl
100046d2:	015a      	lsls	r2, r3, #5
100046d4:	6823      	ldr	r3, [r4, #0]
100046d6:	405a      	eors	r2, r3
100046d8:	23e0      	movs	r3, #224	; 0xe0
100046da:	401a      	ands	r2, r3
100046dc:	2380      	movs	r3, #128	; 0x80
100046de:	015b      	lsls	r3, r3, #5
100046e0:	4323      	orrs	r3, r4
100046e2:	601a      	str	r2, [r3, #0]
100046e4:	465a      	mov	r2, fp
100046e6:	2a01      	cmp	r2, #1
100046e8:	d928      	bls.n	1000473c <clock_configure+0xd8>
100046ea:	2380      	movs	r3, #128	; 0x80
100046ec:	019b      	lsls	r3, r3, #6
100046ee:	4323      	orrs	r3, r4
100046f0:	2280      	movs	r2, #128	; 0x80
100046f2:	0112      	lsls	r2, r2, #4
100046f4:	601a      	str	r2, [r3, #0]
100046f6:	4643      	mov	r3, r8
100046f8:	6063      	str	r3, [r4, #4]
100046fa:	4642      	mov	r2, r8
100046fc:	2300      	movs	r3, #0
100046fe:	0030      	movs	r0, r6
10004700:	4649      	mov	r1, r9
10004702:	f001 fb1b 	bl	10005d3c <__wrap___aeabi_uldivmod>
10004706:	00ad      	lsls	r5, r5, #2
10004708:	4b13      	ldr	r3, [pc, #76]	; (10004758 <clock_configure+0xf4>)
1000470a:	5158      	str	r0, [r3, r5]
1000470c:	2001      	movs	r0, #1
1000470e:	bcf0      	pop	{r4, r5, r6, r7}
10004710:	46bb      	mov	fp, r7
10004712:	46b2      	mov	sl, r6
10004714:	46a9      	mov	r9, r5
10004716:	46a0      	mov	r8, r4
10004718:	bdf8      	pop	{r3, r4, r5, r6, r7, pc}
1000471a:	4b10      	ldr	r3, [pc, #64]	; (1000475c <clock_configure+0xf8>)
1000471c:	4a10      	ldr	r2, [pc, #64]	; (10004760 <clock_configure+0xfc>)
1000471e:	212d      	movs	r1, #45	; 0x2d
10004720:	4810      	ldr	r0, [pc, #64]	; (10004764 <clock_configure+0x100>)
10004722:	f7ff feed 	bl	10004500 <__assert_func>
10004726:	2f01      	cmp	r7, #1
10004728:	d1c1      	bne.n	100046ae <clock_configure+0x4a>
1000472a:	23c0      	movs	r3, #192	; 0xc0
1000472c:	019b      	lsls	r3, r3, #6
1000472e:	4323      	orrs	r3, r4
10004730:	2203      	movs	r2, #3
10004732:	601a      	str	r2, [r3, #0]
10004734:	68a3      	ldr	r3, [r4, #8]
10004736:	07db      	lsls	r3, r3, #31
10004738:	d5fc      	bpl.n	10004734 <clock_configure+0xd0>
1000473a:	e7c9      	b.n	100046d0 <clock_configure+0x6c>
1000473c:	6821      	ldr	r1, [r4, #0]
1000473e:	4079      	eors	r1, r7
10004740:	2203      	movs	r2, #3
10004742:	400a      	ands	r2, r1
10004744:	601a      	str	r2, [r3, #0]
10004746:	68a2      	ldr	r2, [r4, #8]
10004748:	2301      	movs	r3, #1
1000474a:	40bb      	lsls	r3, r7
1000474c:	4213      	tst	r3, r2
1000474e:	d0fa      	beq.n	10004746 <clock_configure+0xe2>
10004750:	e7cb      	b.n	100046ea <clock_configure+0x86>
10004752:	46c0      	nop			; (mov r8, r8)
10004754:	40008000 	.word	0x40008000
10004758:	20000c74 	.word	0x20000c74
1000475c:	1000b9b4 	.word	0x1000b9b4
10004760:	1000ba0c 	.word	0x1000ba0c
10004764:	1000b9c8 	.word	0x1000b9c8

10004768 <clocks_init>:
10004768:	b530      	push	{r4, r5, lr}
1000476a:	b083      	sub	sp, #12
1000476c:	200c      	movs	r0, #12
1000476e:	f000 f921 	bl	100049b4 <watchdog_start_tick>
10004772:	f7fe f923 	bl	100029bc <running_on_fpga>
10004776:	2800      	cmp	r0, #0
10004778:	d00d      	beq.n	10004796 <clocks_init+0x2e>
1000477a:	2300      	movs	r3, #0
1000477c:	e004      	b.n	10004788 <clocks_init+0x20>
1000477e:	0099      	lsls	r1, r3, #2
10004780:	4a2d      	ldr	r2, [pc, #180]	; (10004838 <clocks_init+0xd0>)
10004782:	482e      	ldr	r0, [pc, #184]	; (1000483c <clocks_init+0xd4>)
10004784:	5088      	str	r0, [r1, r2]
10004786:	3301      	adds	r3, #1
10004788:	2b09      	cmp	r3, #9
1000478a:	d9f8      	bls.n	1000477e <clocks_init+0x16>
1000478c:	4b2a      	ldr	r3, [pc, #168]	; (10004838 <clocks_init+0xd0>)
1000478e:	4a2c      	ldr	r2, [pc, #176]	; (10004840 <clocks_init+0xd8>)
10004790:	625a      	str	r2, [r3, #36]	; 0x24
10004792:	b003      	add	sp, #12
10004794:	bd30      	pop	{r4, r5, pc}
10004796:	4b2b      	ldr	r3, [pc, #172]	; (10004844 <clocks_init+0xdc>)
10004798:	2200      	movs	r2, #0
1000479a:	679a      	str	r2, [r3, #120]	; 0x78
1000479c:	f000 f97c 	bl	10004a98 <xosc_init>
100047a0:	4b29      	ldr	r3, [pc, #164]	; (10004848 <clocks_init+0xe0>)
100047a2:	2201      	movs	r2, #1
100047a4:	601a      	str	r2, [r3, #0]
100047a6:	4b27      	ldr	r3, [pc, #156]	; (10004844 <clocks_init+0xdc>)
100047a8:	6c5b      	ldr	r3, [r3, #68]	; 0x44
100047aa:	2b01      	cmp	r3, #1
100047ac:	d1fb      	bne.n	100047a6 <clocks_init+0x3e>
100047ae:	4b27      	ldr	r3, [pc, #156]	; (1000484c <clocks_init+0xe4>)
100047b0:	2203      	movs	r2, #3
100047b2:	601a      	str	r2, [r3, #0]
100047b4:	4b23      	ldr	r3, [pc, #140]	; (10004844 <clocks_init+0xdc>)
100047b6:	6b9b      	ldr	r3, [r3, #56]	; 0x38
100047b8:	2b01      	cmp	r3, #1
100047ba:	d1fb      	bne.n	100047b4 <clocks_init+0x4c>
100047bc:	3301      	adds	r3, #1
100047be:	9300      	str	r3, [sp, #0]
100047c0:	3304      	adds	r3, #4
100047c2:	4a23      	ldr	r2, [pc, #140]	; (10004850 <clocks_init+0xe8>)
100047c4:	2101      	movs	r1, #1
100047c6:	4823      	ldr	r0, [pc, #140]	; (10004854 <clocks_init+0xec>)
100047c8:	f000 f854 	bl	10004874 <pll_init>
100047cc:	2305      	movs	r3, #5
100047ce:	9300      	str	r3, [sp, #0]
100047d0:	4a21      	ldr	r2, [pc, #132]	; (10004858 <clocks_init+0xf0>)
100047d2:	2101      	movs	r1, #1
100047d4:	4821      	ldr	r0, [pc, #132]	; (1000485c <clocks_init+0xf4>)
100047d6:	f000 f84d 	bl	10004874 <pll_init>
100047da:	4b21      	ldr	r3, [pc, #132]	; (10004860 <clocks_init+0xf8>)
100047dc:	9300      	str	r3, [sp, #0]
100047de:	2200      	movs	r2, #0
100047e0:	2102      	movs	r1, #2
100047e2:	2004      	movs	r0, #4
100047e4:	f7ff ff3e 	bl	10004664 <clock_configure>
100047e8:	4d1e      	ldr	r5, [pc, #120]	; (10004864 <clocks_init+0xfc>)
100047ea:	9500      	str	r5, [sp, #0]
100047ec:	002b      	movs	r3, r5
100047ee:	2200      	movs	r2, #0
100047f0:	2101      	movs	r1, #1
100047f2:	2005      	movs	r0, #5
100047f4:	f7ff ff36 	bl	10004664 <clock_configure>
100047f8:	4c10      	ldr	r4, [pc, #64]	; (1000483c <clocks_init+0xd4>)
100047fa:	9400      	str	r4, [sp, #0]
100047fc:	0023      	movs	r3, r4
100047fe:	2200      	movs	r2, #0
10004800:	2100      	movs	r1, #0
10004802:	2007      	movs	r0, #7
10004804:	f7ff ff2e 	bl	10004664 <clock_configure>
10004808:	9400      	str	r4, [sp, #0]
1000480a:	0023      	movs	r3, r4
1000480c:	2200      	movs	r2, #0
1000480e:	2100      	movs	r1, #0
10004810:	2008      	movs	r0, #8
10004812:	f7ff ff27 	bl	10004664 <clock_configure>
10004816:	4b0a      	ldr	r3, [pc, #40]	; (10004840 <clocks_init+0xd8>)
10004818:	9300      	str	r3, [sp, #0]
1000481a:	0023      	movs	r3, r4
1000481c:	2200      	movs	r2, #0
1000481e:	2100      	movs	r1, #0
10004820:	2009      	movs	r0, #9
10004822:	f7ff ff1f 	bl	10004664 <clock_configure>
10004826:	9500      	str	r5, [sp, #0]
10004828:	002b      	movs	r3, r5
1000482a:	2200      	movs	r2, #0
1000482c:	2100      	movs	r1, #0
1000482e:	2006      	movs	r0, #6
10004830:	f7ff ff18 	bl	10004664 <clock_configure>
10004834:	e7ad      	b.n	10004792 <clocks_init+0x2a>
10004836:	46c0      	nop			; (mov r8, r8)
10004838:	20000c74 	.word	0x20000c74
1000483c:	02dc6c00 	.word	0x02dc6c00
10004840:	0000b71b 	.word	0x0000b71b
10004844:	40008000 	.word	0x40008000
10004848:	4000b03c 	.word	0x4000b03c
1000484c:	4000b030 	.word	0x4000b030
10004850:	59682f00 	.word	0x59682f00
10004854:	40028000 	.word	0x40028000
10004858:	47868c00 	.word	0x47868c00
1000485c:	4002c000 	.word	0x4002c000
10004860:	00b71b00 	.word	0x00b71b00
10004864:	07735940 	.word	0x07735940

10004868 <clock_get_hz>:
10004868:	0080      	lsls	r0, r0, #2
1000486a:	4b01      	ldr	r3, [pc, #4]	; (10004870 <clock_get_hz+0x8>)
1000486c:	58c0      	ldr	r0, [r0, r3]
1000486e:	4770      	bx	lr
10004870:	20000c74 	.word	0x20000c74

10004874 <pll_init>:
10004874:	b5f0      	push	{r4, r5, r6, r7, lr}
10004876:	46c6      	mov	lr, r8
10004878:	b500      	push	{lr}
1000487a:	0004      	movs	r4, r0
1000487c:	000f      	movs	r7, r1
1000487e:	4690      	mov	r8, r2
10004880:	001d      	movs	r5, r3
10004882:	200c      	movs	r0, #12
10004884:	f001 fa18 	bl	10005cb8 <__wrap___aeabi_uidiv>
10004888:	0006      	movs	r6, r0
1000488a:	4a3d      	ldr	r2, [pc, #244]	; (10004980 <pll_init+0x10c>)
1000488c:	4442      	add	r2, r8
1000488e:	4b3d      	ldr	r3, [pc, #244]	; (10004984 <pll_init+0x110>)
10004890:	429a      	cmp	r2, r3
10004892:	d843      	bhi.n	1000491c <pll_init+0xa8>
10004894:	0143      	lsls	r3, r0, #5
10004896:	1a1b      	subs	r3, r3, r0
10004898:	0199      	lsls	r1, r3, #6
1000489a:	1ac9      	subs	r1, r1, r3
1000489c:	00c9      	lsls	r1, r1, #3
1000489e:	1809      	adds	r1, r1, r0
100048a0:	0189      	lsls	r1, r1, #6
100048a2:	4640      	mov	r0, r8
100048a4:	f001 fa08 	bl	10005cb8 <__wrap___aeabi_uidiv>
100048a8:	0002      	movs	r2, r0
100048aa:	3a10      	subs	r2, #16
100048ac:	2398      	movs	r3, #152	; 0x98
100048ae:	005b      	lsls	r3, r3, #1
100048b0:	429a      	cmp	r2, r3
100048b2:	d839      	bhi.n	10004928 <pll_init+0xb4>
100048b4:	1e6b      	subs	r3, r5, #1
100048b6:	2b06      	cmp	r3, #6
100048b8:	d83c      	bhi.n	10004934 <pll_init+0xc0>
100048ba:	9b06      	ldr	r3, [sp, #24]
100048bc:	3b01      	subs	r3, #1
100048be:	2b06      	cmp	r3, #6
100048c0:	d838      	bhi.n	10004934 <pll_init+0xc0>
100048c2:	9b06      	ldr	r3, [sp, #24]
100048c4:	429d      	cmp	r5, r3
100048c6:	d33b      	bcc.n	10004940 <pll_init+0xcc>
100048c8:	4643      	mov	r3, r8
100048ca:	091a      	lsrs	r2, r3, #4
100048cc:	42b2      	cmp	r2, r6
100048ce:	d33d      	bcc.n	1000494c <pll_init+0xd8>
100048d0:	042d      	lsls	r5, r5, #16
100048d2:	9b06      	ldr	r3, [sp, #24]
100048d4:	031e      	lsls	r6, r3, #12
100048d6:	4335      	orrs	r5, r6
100048d8:	6823      	ldr	r3, [r4, #0]
100048da:	2b00      	cmp	r3, #0
100048dc:	db3c      	blt.n	10004958 <pll_init+0xe4>
100048de:	4b2a      	ldr	r3, [pc, #168]	; (10004988 <pll_init+0x114>)
100048e0:	429c      	cmp	r4, r3
100048e2:	d04a      	beq.n	1000497a <pll_init+0x106>
100048e4:	2280      	movs	r2, #128	; 0x80
100048e6:	0152      	lsls	r2, r2, #5
100048e8:	4b28      	ldr	r3, [pc, #160]	; (1000498c <pll_init+0x118>)
100048ea:	601a      	str	r2, [r3, #0]
100048ec:	4b28      	ldr	r3, [pc, #160]	; (10004990 <pll_init+0x11c>)
100048ee:	601a      	str	r2, [r3, #0]
100048f0:	4b28      	ldr	r3, [pc, #160]	; (10004994 <pll_init+0x120>)
100048f2:	689b      	ldr	r3, [r3, #8]
100048f4:	0011      	movs	r1, r2
100048f6:	4399      	bics	r1, r3
100048f8:	d1fa      	bne.n	100048f0 <pll_init+0x7c>
100048fa:	6027      	str	r7, [r4, #0]
100048fc:	60a0      	str	r0, [r4, #8]
100048fe:	1d23      	adds	r3, r4, #4
10004900:	22c0      	movs	r2, #192	; 0xc0
10004902:	0192      	lsls	r2, r2, #6
10004904:	431a      	orrs	r2, r3
10004906:	2321      	movs	r3, #33	; 0x21
10004908:	6013      	str	r3, [r2, #0]
1000490a:	6823      	ldr	r3, [r4, #0]
1000490c:	2b00      	cmp	r3, #0
1000490e:	dafc      	bge.n	1000490a <pll_init+0x96>
10004910:	60e5      	str	r5, [r4, #12]
10004912:	2308      	movs	r3, #8
10004914:	6013      	str	r3, [r2, #0]
10004916:	bc80      	pop	{r7}
10004918:	46b8      	mov	r8, r7
1000491a:	bdf0      	pop	{r4, r5, r6, r7, pc}
1000491c:	4b1e      	ldr	r3, [pc, #120]	; (10004998 <pll_init+0x124>)
1000491e:	4a1f      	ldr	r2, [pc, #124]	; (1000499c <pll_init+0x128>)
10004920:	2111      	movs	r1, #17
10004922:	481f      	ldr	r0, [pc, #124]	; (100049a0 <pll_init+0x12c>)
10004924:	f7ff fdec 	bl	10004500 <__assert_func>
10004928:	4b1e      	ldr	r3, [pc, #120]	; (100049a4 <pll_init+0x130>)
1000492a:	4a1c      	ldr	r2, [pc, #112]	; (1000499c <pll_init+0x128>)
1000492c:	2119      	movs	r1, #25
1000492e:	481c      	ldr	r0, [pc, #112]	; (100049a0 <pll_init+0x12c>)
10004930:	f7ff fde6 	bl	10004500 <__assert_func>
10004934:	4b1c      	ldr	r3, [pc, #112]	; (100049a8 <pll_init+0x134>)
10004936:	4a19      	ldr	r2, [pc, #100]	; (1000499c <pll_init+0x128>)
10004938:	211c      	movs	r1, #28
1000493a:	4819      	ldr	r0, [pc, #100]	; (100049a0 <pll_init+0x12c>)
1000493c:	f7ff fde0 	bl	10004500 <__assert_func>
10004940:	4b1a      	ldr	r3, [pc, #104]	; (100049ac <pll_init+0x138>)
10004942:	4a16      	ldr	r2, [pc, #88]	; (1000499c <pll_init+0x128>)
10004944:	2122      	movs	r1, #34	; 0x22
10004946:	4816      	ldr	r0, [pc, #88]	; (100049a0 <pll_init+0x12c>)
10004948:	f7ff fdda 	bl	10004500 <__assert_func>
1000494c:	4b18      	ldr	r3, [pc, #96]	; (100049b0 <pll_init+0x13c>)
1000494e:	4a13      	ldr	r2, [pc, #76]	; (1000499c <pll_init+0x128>)
10004950:	2125      	movs	r1, #37	; 0x25
10004952:	4813      	ldr	r0, [pc, #76]	; (100049a0 <pll_init+0x12c>)
10004954:	f7ff fdd4 	bl	10004500 <__assert_func>
10004958:	6822      	ldr	r2, [r4, #0]
1000495a:	233f      	movs	r3, #63	; 0x3f
1000495c:	4013      	ands	r3, r2
1000495e:	42bb      	cmp	r3, r7
10004960:	d1bd      	bne.n	100048de <pll_init+0x6a>
10004962:	68a3      	ldr	r3, [r4, #8]
10004964:	051b      	lsls	r3, r3, #20
10004966:	0d1b      	lsrs	r3, r3, #20
10004968:	4283      	cmp	r3, r0
1000496a:	d1b8      	bne.n	100048de <pll_init+0x6a>
1000496c:	68e3      	ldr	r3, [r4, #12]
1000496e:	22ee      	movs	r2, #238	; 0xee
10004970:	02d2      	lsls	r2, r2, #11
10004972:	4013      	ands	r3, r2
10004974:	42ab      	cmp	r3, r5
10004976:	d1b2      	bne.n	100048de <pll_init+0x6a>
10004978:	e7cd      	b.n	10004916 <pll_init+0xa2>
1000497a:	2280      	movs	r2, #128	; 0x80
1000497c:	0192      	lsls	r2, r2, #6
1000497e:	e7b3      	b.n	100048e8 <pll_init+0x74>
10004980:	d34be880 	.word	0xd34be880
10004984:	32a9f880 	.word	0x32a9f880
10004988:	4002c000 	.word	0x4002c000
1000498c:	4000e000 	.word	0x4000e000
10004990:	4000f000 	.word	0x4000f000
10004994:	4000c000 	.word	0x4000c000
10004998:	1000ba1c 	.word	0x1000ba1c
1000499c:	1000bb58 	.word	0x1000bb58
100049a0:	1000ba7c 	.word	0x1000ba7c
100049a4:	1000babc 	.word	0x1000babc
100049a8:	1000bad8 	.word	0x1000bad8
100049ac:	1000bb24 	.word	0x1000bb24
100049b0:	1000bb3c 	.word	0x1000bb3c

100049b4 <watchdog_start_tick>:
100049b4:	2380      	movs	r3, #128	; 0x80
100049b6:	009b      	lsls	r3, r3, #2
100049b8:	4303      	orrs	r3, r0
100049ba:	4a01      	ldr	r2, [pc, #4]	; (100049c0 <watchdog_start_tick+0xc>)
100049bc:	62d3      	str	r3, [r2, #44]	; 0x2c
100049be:	4770      	bx	lr
100049c0:	40058000 	.word	0x40058000

100049c4 <watchdog_update>:
100049c4:	4b02      	ldr	r3, [pc, #8]	; (100049d0 <watchdog_update+0xc>)
100049c6:	681a      	ldr	r2, [r3, #0]
100049c8:	4b02      	ldr	r3, [pc, #8]	; (100049d4 <watchdog_update+0x10>)
100049ca:	605a      	str	r2, [r3, #4]
100049cc:	4770      	bx	lr
100049ce:	46c0      	nop			; (mov r8, r8)
100049d0:	20001af4 	.word	0x20001af4
100049d4:	40058000 	.word	0x40058000

100049d8 <_watchdog_enable>:
100049d8:	b510      	push	{r4, lr}
100049da:	0002      	movs	r2, r0
100049dc:	4b16      	ldr	r3, [pc, #88]	; (10004a38 <_watchdog_enable+0x60>)
100049de:	2080      	movs	r0, #128	; 0x80
100049e0:	05c0      	lsls	r0, r0, #23
100049e2:	6018      	str	r0, [r3, #0]
100049e4:	4b15      	ldr	r3, [pc, #84]	; (10004a3c <_watchdog_enable+0x64>)
100049e6:	4816      	ldr	r0, [pc, #88]	; (10004a40 <_watchdog_enable+0x68>)
100049e8:	6018      	str	r0, [r3, #0]
100049ea:	2900      	cmp	r1, #0
100049ec:	d00a      	beq.n	10004a04 <_watchdog_enable+0x2c>
100049ee:	4b15      	ldr	r3, [pc, #84]	; (10004a44 <_watchdog_enable+0x6c>)
100049f0:	21e0      	movs	r1, #224	; 0xe0
100049f2:	04c9      	lsls	r1, r1, #19
100049f4:	6019      	str	r1, [r3, #0]
100049f6:	2a00      	cmp	r2, #0
100049f8:	d109      	bne.n	10004a0e <_watchdog_enable+0x36>
100049fa:	4b12      	ldr	r3, [pc, #72]	; (10004a44 <_watchdog_enable+0x6c>)
100049fc:	2280      	movs	r2, #128	; 0x80
100049fe:	0612      	lsls	r2, r2, #24
10004a00:	601a      	str	r2, [r3, #0]
10004a02:	bd10      	pop	{r4, pc}
10004a04:	4b0c      	ldr	r3, [pc, #48]	; (10004a38 <_watchdog_enable+0x60>)
10004a06:	21e0      	movs	r1, #224	; 0xe0
10004a08:	04c9      	lsls	r1, r1, #19
10004a0a:	6019      	str	r1, [r3, #0]
10004a0c:	e7f3      	b.n	100049f6 <_watchdog_enable+0x1e>
10004a0e:	0153      	lsls	r3, r2, #5
10004a10:	1a9b      	subs	r3, r3, r2
10004a12:	0098      	lsls	r0, r3, #2
10004a14:	1880      	adds	r0, r0, r2
10004a16:	0100      	lsls	r0, r0, #4
10004a18:	4b0b      	ldr	r3, [pc, #44]	; (10004a48 <_watchdog_enable+0x70>)
10004a1a:	6018      	str	r0, [r3, #0]
10004a1c:	2380      	movs	r3, #128	; 0x80
10004a1e:	045b      	lsls	r3, r3, #17
10004a20:	4298      	cmp	r0, r3
10004a22:	d302      	bcc.n	10004a2a <_watchdog_enable+0x52>
10004a24:	4b08      	ldr	r3, [pc, #32]	; (10004a48 <_watchdog_enable+0x70>)
10004a26:	4a09      	ldr	r2, [pc, #36]	; (10004a4c <_watchdog_enable+0x74>)
10004a28:	601a      	str	r2, [r3, #0]
10004a2a:	f7ff ffcb 	bl	100049c4 <watchdog_update>
10004a2e:	4b05      	ldr	r3, [pc, #20]	; (10004a44 <_watchdog_enable+0x6c>)
10004a30:	2280      	movs	r2, #128	; 0x80
10004a32:	05d2      	lsls	r2, r2, #23
10004a34:	601a      	str	r2, [r3, #0]
10004a36:	e7e4      	b.n	10004a02 <_watchdog_enable+0x2a>
10004a38:	4005b000 	.word	0x4005b000
10004a3c:	40012008 	.word	0x40012008
10004a40:	0001fffc 	.word	0x0001fffc
10004a44:	4005a000 	.word	0x4005a000
10004a48:	20001af4 	.word	0x20001af4
10004a4c:	00ffffff 	.word	0x00ffffff

10004a50 <watchdog_reboot>:
10004a50:	b510      	push	{r4, lr}
10004a52:	0003      	movs	r3, r0
10004a54:	0010      	movs	r0, r2
10004a56:	4a0c      	ldr	r2, [pc, #48]	; (10004a88 <watchdog_reboot+0x38>)
10004a58:	2480      	movs	r4, #128	; 0x80
10004a5a:	05e4      	lsls	r4, r4, #23
10004a5c:	6014      	str	r4, [r2, #0]
10004a5e:	2b00      	cmp	r3, #0
10004a60:	d00d      	beq.n	10004a7e <watchdog_reboot+0x2e>
10004a62:	2201      	movs	r2, #1
10004a64:	4313      	orrs	r3, r2
10004a66:	4a09      	ldr	r2, [pc, #36]	; (10004a8c <watchdog_reboot+0x3c>)
10004a68:	4c09      	ldr	r4, [pc, #36]	; (10004a90 <watchdog_reboot+0x40>)
10004a6a:	61d4      	str	r4, [r2, #28]
10004a6c:	4c09      	ldr	r4, [pc, #36]	; (10004a94 <watchdog_reboot+0x44>)
10004a6e:	405c      	eors	r4, r3
10004a70:	6214      	str	r4, [r2, #32]
10004a72:	6251      	str	r1, [r2, #36]	; 0x24
10004a74:	6293      	str	r3, [r2, #40]	; 0x28
10004a76:	2100      	movs	r1, #0
10004a78:	f7ff ffae 	bl	100049d8 <_watchdog_enable>
10004a7c:	bd10      	pop	{r4, pc}
10004a7e:	4b03      	ldr	r3, [pc, #12]	; (10004a8c <watchdog_reboot+0x3c>)
10004a80:	2200      	movs	r2, #0
10004a82:	61da      	str	r2, [r3, #28]
10004a84:	e7f7      	b.n	10004a76 <watchdog_reboot+0x26>
10004a86:	46c0      	nop			; (mov r8, r8)
10004a88:	4005b000 	.word	0x4005b000
10004a8c:	40058000 	.word	0x40058000
10004a90:	b007c0d3 	.word	0xb007c0d3
10004a94:	4ff83f2d 	.word	0x4ff83f2d

10004a98 <xosc_init>:
10004a98:	4b06      	ldr	r3, [pc, #24]	; (10004ab4 <xosc_init+0x1c>)
10004a9a:	22aa      	movs	r2, #170	; 0xaa
10004a9c:	0112      	lsls	r2, r2, #4
10004a9e:	601a      	str	r2, [r3, #0]
10004aa0:	222f      	movs	r2, #47	; 0x2f
10004aa2:	60da      	str	r2, [r3, #12]
10004aa4:	4b04      	ldr	r3, [pc, #16]	; (10004ab8 <xosc_init+0x20>)
10004aa6:	4a05      	ldr	r2, [pc, #20]	; (10004abc <xosc_init+0x24>)
10004aa8:	601a      	str	r2, [r3, #0]
10004aaa:	4b02      	ldr	r3, [pc, #8]	; (10004ab4 <xosc_init+0x1c>)
10004aac:	685b      	ldr	r3, [r3, #4]
10004aae:	2b00      	cmp	r3, #0
10004ab0:	dafb      	bge.n	10004aaa <xosc_init+0x12>
10004ab2:	4770      	bx	lr
10004ab4:	40024000 	.word	0x40024000
10004ab8:	40026000 	.word	0x40026000
10004abc:	00fab000 	.word	0x00fab000

10004ac0 <_out_null>:
10004ac0:	4770      	bx	lr

10004ac2 <_out_fct>:
10004ac2:	b510      	push	{r4, lr}
10004ac4:	2800      	cmp	r0, #0
10004ac6:	d002      	beq.n	10004ace <_out_fct+0xc>
10004ac8:	680b      	ldr	r3, [r1, #0]
10004aca:	6849      	ldr	r1, [r1, #4]
10004acc:	4798      	blx	r3
10004ace:	bd10      	pop	{r4, pc}

10004ad0 <_atoi>:
10004ad0:	0001      	movs	r1, r0
10004ad2:	2000      	movs	r0, #0
10004ad4:	e007      	b.n	10004ae6 <_atoi+0x16>
10004ad6:	0083      	lsls	r3, r0, #2
10004ad8:	181b      	adds	r3, r3, r0
10004ada:	005b      	lsls	r3, r3, #1
10004adc:	1c50      	adds	r0, r2, #1
10004ade:	6008      	str	r0, [r1, #0]
10004ae0:	7810      	ldrb	r0, [r2, #0]
10004ae2:	18c0      	adds	r0, r0, r3
10004ae4:	3830      	subs	r0, #48	; 0x30
10004ae6:	680a      	ldr	r2, [r1, #0]
10004ae8:	7813      	ldrb	r3, [r2, #0]
10004aea:	3b30      	subs	r3, #48	; 0x30
10004aec:	b2db      	uxtb	r3, r3
10004aee:	2b09      	cmp	r3, #9
10004af0:	d9f1      	bls.n	10004ad6 <_atoi+0x6>
10004af2:	4770      	bx	lr

10004af4 <_out_rev>:
10004af4:	b5f0      	push	{r4, r5, r6, r7, lr}
10004af6:	46de      	mov	lr, fp
10004af8:	4657      	mov	r7, sl
10004afa:	464e      	mov	r6, r9
10004afc:	4645      	mov	r5, r8
10004afe:	b5e0      	push	{r5, r6, r7, lr}
10004b00:	b083      	sub	sp, #12
10004b02:	4693      	mov	fp, r2
10004b04:	001f      	movs	r7, r3
10004b06:	9b0c      	ldr	r3, [sp, #48]	; 0x30
10004b08:	469a      	mov	sl, r3
10004b0a:	9c0d      	ldr	r4, [sp, #52]	; 0x34
10004b0c:	9b0e      	ldr	r3, [sp, #56]	; 0x38
10004b0e:	4699      	mov	r9, r3
10004b10:	9b0f      	ldr	r3, [sp, #60]	; 0x3c
10004b12:	079b      	lsls	r3, r3, #30
10004b14:	d003      	beq.n	10004b1e <_out_rev+0x2a>
10004b16:	46b8      	mov	r8, r7
10004b18:	000f      	movs	r7, r1
10004b1a:	0006      	movs	r6, r0
10004b1c:	e022      	b.n	10004b64 <_out_rev+0x70>
10004b1e:	9201      	str	r2, [sp, #4]
10004b20:	46a3      	mov	fp, r4
10004b22:	4688      	mov	r8, r1
10004b24:	464e      	mov	r6, r9
10004b26:	46b9      	mov	r9, r7
10004b28:	0007      	movs	r7, r0
10004b2a:	42b4      	cmp	r4, r6
10004b2c:	d207      	bcs.n	10004b3e <_out_rev+0x4a>
10004b2e:	1c55      	adds	r5, r2, #1
10004b30:	464b      	mov	r3, r9
10004b32:	4641      	mov	r1, r8
10004b34:	2020      	movs	r0, #32
10004b36:	47b8      	blx	r7
10004b38:	3401      	adds	r4, #1
10004b3a:	002a      	movs	r2, r5
10004b3c:	e7f5      	b.n	10004b2a <_out_rev+0x36>
10004b3e:	003d      	movs	r5, r7
10004b40:	464f      	mov	r7, r9
10004b42:	465c      	mov	r4, fp
10004b44:	9b01      	ldr	r3, [sp, #4]
10004b46:	469b      	mov	fp, r3
10004b48:	46b1      	mov	r9, r6
10004b4a:	4646      	mov	r6, r8
10004b4c:	46b8      	mov	r8, r7
10004b4e:	0037      	movs	r7, r6
10004b50:	002e      	movs	r6, r5
10004b52:	e007      	b.n	10004b64 <_out_rev+0x70>
10004b54:	3c01      	subs	r4, #1
10004b56:	1c55      	adds	r5, r2, #1
10004b58:	4653      	mov	r3, sl
10004b5a:	5d18      	ldrb	r0, [r3, r4]
10004b5c:	4643      	mov	r3, r8
10004b5e:	0039      	movs	r1, r7
10004b60:	47b0      	blx	r6
10004b62:	002a      	movs	r2, r5
10004b64:	2c00      	cmp	r4, #0
10004b66:	d1f5      	bne.n	10004b54 <_out_rev+0x60>
10004b68:	0035      	movs	r5, r6
10004b6a:	003e      	movs	r6, r7
10004b6c:	4647      	mov	r7, r8
10004b6e:	9b0f      	ldr	r3, [sp, #60]	; 0x3c
10004b70:	079b      	lsls	r3, r3, #30
10004b72:	d407      	bmi.n	10004b84 <_out_rev+0x90>
10004b74:	0010      	movs	r0, r2
10004b76:	b003      	add	sp, #12
10004b78:	bcf0      	pop	{r4, r5, r6, r7}
10004b7a:	46bb      	mov	fp, r7
10004b7c:	46b2      	mov	sl, r6
10004b7e:	46a9      	mov	r9, r5
10004b80:	46a0      	mov	r8, r4
10004b82:	bdf0      	pop	{r4, r5, r6, r7, pc}
10004b84:	46b0      	mov	r8, r6
10004b86:	464e      	mov	r6, r9
10004b88:	46b9      	mov	r9, r7
10004b8a:	002f      	movs	r7, r5
10004b8c:	465d      	mov	r5, fp
10004b8e:	1b53      	subs	r3, r2, r5
10004b90:	42b3      	cmp	r3, r6
10004b92:	d2ef      	bcs.n	10004b74 <_out_rev+0x80>
10004b94:	1c54      	adds	r4, r2, #1
10004b96:	464b      	mov	r3, r9
10004b98:	4641      	mov	r1, r8
10004b9a:	2020      	movs	r0, #32
10004b9c:	47b8      	blx	r7
10004b9e:	0022      	movs	r2, r4
10004ba0:	e7f5      	b.n	10004b8e <_out_rev+0x9a>

10004ba2 <_ntoa_format>:
10004ba2:	b5f0      	push	{r4, r5, r6, r7, lr}
10004ba4:	46ce      	mov	lr, r9
10004ba6:	4647      	mov	r7, r8
10004ba8:	b580      	push	{r7, lr}
10004baa:	b085      	sub	sp, #20
10004bac:	4694      	mov	ip, r2
10004bae:	4698      	mov	r8, r3
10004bb0:	9d0c      	ldr	r5, [sp, #48]	; 0x30
10004bb2:	9c0d      	ldr	r4, [sp, #52]	; 0x34
10004bb4:	ab0e      	add	r3, sp, #56	; 0x38
10004bb6:	781b      	ldrb	r3, [r3, #0]
10004bb8:	4699      	mov	r9, r3
10004bba:	9a10      	ldr	r2, [sp, #64]	; 0x40
10004bbc:	9b11      	ldr	r3, [sp, #68]	; 0x44
10004bbe:	9e12      	ldr	r6, [sp, #72]	; 0x48
10004bc0:	07b7      	lsls	r7, r6, #30
10004bc2:	d41c      	bmi.n	10004bfe <_ntoa_format+0x5c>
10004bc4:	2b00      	cmp	r3, #0
10004bc6:	d00c      	beq.n	10004be2 <_ntoa_format+0x40>
10004bc8:	07f7      	lsls	r7, r6, #31
10004bca:	d50a      	bpl.n	10004be2 <_ntoa_format+0x40>
10004bcc:	464f      	mov	r7, r9
10004bce:	2f00      	cmp	r7, #0
10004bd0:	d102      	bne.n	10004bd8 <_ntoa_format+0x36>
10004bd2:	370c      	adds	r7, #12
10004bd4:	4237      	tst	r7, r6
10004bd6:	d004      	beq.n	10004be2 <_ntoa_format+0x40>
10004bd8:	3b01      	subs	r3, #1
10004bda:	e002      	b.n	10004be2 <_ntoa_format+0x40>
10004bdc:	2730      	movs	r7, #48	; 0x30
10004bde:	552f      	strb	r7, [r5, r4]
10004be0:	3401      	adds	r4, #1
10004be2:	4294      	cmp	r4, r2
10004be4:	d201      	bcs.n	10004bea <_ntoa_format+0x48>
10004be6:	2c1f      	cmp	r4, #31
10004be8:	d9f8      	bls.n	10004bdc <_ntoa_format+0x3a>
10004bea:	07f7      	lsls	r7, r6, #31
10004bec:	d507      	bpl.n	10004bfe <_ntoa_format+0x5c>
10004bee:	429c      	cmp	r4, r3
10004bf0:	d205      	bcs.n	10004bfe <_ntoa_format+0x5c>
10004bf2:	2c1f      	cmp	r4, #31
10004bf4:	d803      	bhi.n	10004bfe <_ntoa_format+0x5c>
10004bf6:	2730      	movs	r7, #48	; 0x30
10004bf8:	552f      	strb	r7, [r5, r4]
10004bfa:	3401      	adds	r4, #1
10004bfc:	e7f5      	b.n	10004bea <_ntoa_format+0x48>
10004bfe:	06f7      	lsls	r7, r6, #27
10004c00:	d515      	bpl.n	10004c2e <_ntoa_format+0x8c>
10004c02:	0577      	lsls	r7, r6, #21
10004c04:	d405      	bmi.n	10004c12 <_ntoa_format+0x70>
10004c06:	2c00      	cmp	r4, #0
10004c08:	d003      	beq.n	10004c12 <_ntoa_format+0x70>
10004c0a:	4294      	cmp	r4, r2
10004c0c:	d024      	beq.n	10004c58 <_ntoa_format+0xb6>
10004c0e:	429c      	cmp	r4, r3
10004c10:	d022      	beq.n	10004c58 <_ntoa_format+0xb6>
10004c12:	9a0f      	ldr	r2, [sp, #60]	; 0x3c
10004c14:	2a10      	cmp	r2, #16
10004c16:	d02b      	beq.n	10004c70 <_ntoa_format+0xce>
10004c18:	9a0f      	ldr	r2, [sp, #60]	; 0x3c
10004c1a:	2a10      	cmp	r2, #16
10004c1c:	d030      	beq.n	10004c80 <_ntoa_format+0xde>
10004c1e:	9a0f      	ldr	r2, [sp, #60]	; 0x3c
10004c20:	2a02      	cmp	r2, #2
10004c22:	d035      	beq.n	10004c90 <_ntoa_format+0xee>
10004c24:	2c1f      	cmp	r4, #31
10004c26:	d802      	bhi.n	10004c2e <_ntoa_format+0x8c>
10004c28:	2230      	movs	r2, #48	; 0x30
10004c2a:	552a      	strb	r2, [r5, r4]
10004c2c:	3401      	adds	r4, #1
10004c2e:	2c1f      	cmp	r4, #31
10004c30:	d805      	bhi.n	10004c3e <_ntoa_format+0x9c>
10004c32:	464a      	mov	r2, r9
10004c34:	2a00      	cmp	r2, #0
10004c36:	d031      	beq.n	10004c9c <_ntoa_format+0xfa>
10004c38:	222d      	movs	r2, #45	; 0x2d
10004c3a:	552a      	strb	r2, [r5, r4]
10004c3c:	3401      	adds	r4, #1
10004c3e:	9603      	str	r6, [sp, #12]
10004c40:	9302      	str	r3, [sp, #8]
10004c42:	9401      	str	r4, [sp, #4]
10004c44:	9500      	str	r5, [sp, #0]
10004c46:	4643      	mov	r3, r8
10004c48:	4662      	mov	r2, ip
10004c4a:	f7ff ff53 	bl	10004af4 <_out_rev>
10004c4e:	b005      	add	sp, #20
10004c50:	bcc0      	pop	{r6, r7}
10004c52:	46b9      	mov	r9, r7
10004c54:	46b0      	mov	r8, r6
10004c56:	bdf0      	pop	{r4, r5, r6, r7, pc}
10004c58:	1e62      	subs	r2, r4, #1
10004c5a:	2c01      	cmp	r4, #1
10004c5c:	d006      	beq.n	10004c6c <_ntoa_format+0xca>
10004c5e:	9f0f      	ldr	r7, [sp, #60]	; 0x3c
10004c60:	2f10      	cmp	r7, #16
10004c62:	d001      	beq.n	10004c68 <_ntoa_format+0xc6>
10004c64:	0014      	movs	r4, r2
10004c66:	e7d4      	b.n	10004c12 <_ntoa_format+0x70>
10004c68:	3c02      	subs	r4, #2
10004c6a:	e7d2      	b.n	10004c12 <_ntoa_format+0x70>
10004c6c:	0014      	movs	r4, r2
10004c6e:	e7d0      	b.n	10004c12 <_ntoa_format+0x70>
10004c70:	06b2      	lsls	r2, r6, #26
10004c72:	d4d1      	bmi.n	10004c18 <_ntoa_format+0x76>
10004c74:	2c1f      	cmp	r4, #31
10004c76:	d8cf      	bhi.n	10004c18 <_ntoa_format+0x76>
10004c78:	2278      	movs	r2, #120	; 0x78
10004c7a:	552a      	strb	r2, [r5, r4]
10004c7c:	3401      	adds	r4, #1
10004c7e:	e7d1      	b.n	10004c24 <_ntoa_format+0x82>
10004c80:	06b2      	lsls	r2, r6, #26
10004c82:	d5cc      	bpl.n	10004c1e <_ntoa_format+0x7c>
10004c84:	2c1f      	cmp	r4, #31
10004c86:	d8ca      	bhi.n	10004c1e <_ntoa_format+0x7c>
10004c88:	2258      	movs	r2, #88	; 0x58
10004c8a:	552a      	strb	r2, [r5, r4]
10004c8c:	3401      	adds	r4, #1
10004c8e:	e7c9      	b.n	10004c24 <_ntoa_format+0x82>
10004c90:	2c1f      	cmp	r4, #31
10004c92:	d8c7      	bhi.n	10004c24 <_ntoa_format+0x82>
10004c94:	3260      	adds	r2, #96	; 0x60
10004c96:	552a      	strb	r2, [r5, r4]
10004c98:	3401      	adds	r4, #1
10004c9a:	e7c3      	b.n	10004c24 <_ntoa_format+0x82>
10004c9c:	0772      	lsls	r2, r6, #29
10004c9e:	d503      	bpl.n	10004ca8 <_ntoa_format+0x106>
10004ca0:	222b      	movs	r2, #43	; 0x2b
10004ca2:	552a      	strb	r2, [r5, r4]
10004ca4:	3401      	adds	r4, #1
10004ca6:	e7ca      	b.n	10004c3e <_ntoa_format+0x9c>
10004ca8:	0732      	lsls	r2, r6, #28
10004caa:	d5c8      	bpl.n	10004c3e <_ntoa_format+0x9c>
10004cac:	2220      	movs	r2, #32
10004cae:	552a      	strb	r2, [r5, r4]
10004cb0:	3401      	adds	r4, #1
10004cb2:	e7c4      	b.n	10004c3e <_ntoa_format+0x9c>

10004cb4 <_ntoa_long>:
10004cb4:	b5f0      	push	{r4, r5, r6, r7, lr}
10004cb6:	46de      	mov	lr, fp
10004cb8:	4657      	mov	r7, sl
10004cba:	464e      	mov	r6, r9
10004cbc:	4645      	mov	r5, r8
10004cbe:	b5e0      	push	{r5, r6, r7, lr}
10004cc0:	b093      	sub	sp, #76	; 0x4c
10004cc2:	4681      	mov	r9, r0
10004cc4:	468a      	mov	sl, r1
10004cc6:	9208      	str	r2, [sp, #32]
10004cc8:	9309      	str	r3, [sp, #36]	; 0x24
10004cca:	ab1c      	add	r3, sp, #112	; 0x70
10004ccc:	cb10      	ldmia	r3!, {r4}
10004cce:	781b      	ldrb	r3, [r3, #0]
10004cd0:	469b      	mov	fp, r3
10004cd2:	9d1e      	ldr	r5, [sp, #120]	; 0x78
10004cd4:	9b21      	ldr	r3, [sp, #132]	; 0x84
10004cd6:	4698      	mov	r8, r3
10004cd8:	2c00      	cmp	r4, #0
10004cda:	d103      	bne.n	10004ce4 <_ntoa_long+0x30>
10004cdc:	2310      	movs	r3, #16
10004cde:	4642      	mov	r2, r8
10004ce0:	439a      	bics	r2, r3
10004ce2:	4690      	mov	r8, r2
10004ce4:	2380      	movs	r3, #128	; 0x80
10004ce6:	00db      	lsls	r3, r3, #3
10004ce8:	4646      	mov	r6, r8
10004cea:	401e      	ands	r6, r3
10004cec:	4642      	mov	r2, r8
10004cee:	421a      	tst	r2, r3
10004cf0:	d012      	beq.n	10004d18 <_ntoa_long+0x64>
10004cf2:	2c00      	cmp	r4, #0
10004cf4:	d022      	beq.n	10004d3c <_ntoa_long+0x88>
10004cf6:	2600      	movs	r6, #0
10004cf8:	e00e      	b.n	10004d18 <_ntoa_long+0x64>
10004cfa:	3330      	adds	r3, #48	; 0x30
10004cfc:	b2d9      	uxtb	r1, r3
10004cfe:	1c77      	adds	r7, r6, #1
10004d00:	ab0a      	add	r3, sp, #40	; 0x28
10004d02:	5599      	strb	r1, [r3, r6]
10004d04:	0029      	movs	r1, r5
10004d06:	0020      	movs	r0, r4
10004d08:	f000 ffd6 	bl	10005cb8 <__wrap___aeabi_uidiv>
10004d0c:	42ac      	cmp	r4, r5
10004d0e:	d316      	bcc.n	10004d3e <_ntoa_long+0x8a>
10004d10:	2f1f      	cmp	r7, #31
10004d12:	d814      	bhi.n	10004d3e <_ntoa_long+0x8a>
10004d14:	003e      	movs	r6, r7
10004d16:	0004      	movs	r4, r0
10004d18:	0029      	movs	r1, r5
10004d1a:	0020      	movs	r0, r4
10004d1c:	f000 ffcc 	bl	10005cb8 <__wrap___aeabi_uidiv>
10004d20:	b2cb      	uxtb	r3, r1
10004d22:	2b09      	cmp	r3, #9
10004d24:	d9e9      	bls.n	10004cfa <_ntoa_long+0x46>
10004d26:	4642      	mov	r2, r8
10004d28:	0692      	lsls	r2, r2, #26
10004d2a:	d505      	bpl.n	10004d38 <_ntoa_long+0x84>
10004d2c:	2141      	movs	r1, #65	; 0x41
10004d2e:	18c9      	adds	r1, r1, r3
10004d30:	b2c9      	uxtb	r1, r1
10004d32:	390a      	subs	r1, #10
10004d34:	b2c9      	uxtb	r1, r1
10004d36:	e7e2      	b.n	10004cfe <_ntoa_long+0x4a>
10004d38:	2161      	movs	r1, #97	; 0x61
10004d3a:	e7f8      	b.n	10004d2e <_ntoa_long+0x7a>
10004d3c:	0027      	movs	r7, r4
10004d3e:	4643      	mov	r3, r8
10004d40:	9306      	str	r3, [sp, #24]
10004d42:	9b20      	ldr	r3, [sp, #128]	; 0x80
10004d44:	9305      	str	r3, [sp, #20]
10004d46:	9b1f      	ldr	r3, [sp, #124]	; 0x7c
10004d48:	9304      	str	r3, [sp, #16]
10004d4a:	9503      	str	r5, [sp, #12]
10004d4c:	465b      	mov	r3, fp
10004d4e:	9302      	str	r3, [sp, #8]
10004d50:	9701      	str	r7, [sp, #4]
10004d52:	ab0a      	add	r3, sp, #40	; 0x28
10004d54:	9300      	str	r3, [sp, #0]
10004d56:	9b09      	ldr	r3, [sp, #36]	; 0x24
10004d58:	9a08      	ldr	r2, [sp, #32]
10004d5a:	4651      	mov	r1, sl
10004d5c:	4648      	mov	r0, r9
10004d5e:	f7ff ff20 	bl	10004ba2 <_ntoa_format>
10004d62:	b013      	add	sp, #76	; 0x4c
10004d64:	bcf0      	pop	{r4, r5, r6, r7}
10004d66:	46bb      	mov	fp, r7
10004d68:	46b2      	mov	sl, r6
10004d6a:	46a9      	mov	r9, r5
10004d6c:	46a0      	mov	r8, r4
10004d6e:	bdf0      	pop	{r4, r5, r6, r7, pc}

10004d70 <_ntoa_long_long>:
10004d70:	b5f0      	push	{r4, r5, r6, r7, lr}
10004d72:	46de      	mov	lr, fp
10004d74:	4657      	mov	r7, sl
10004d76:	464e      	mov	r6, r9
10004d78:	4645      	mov	r5, r8
10004d7a:	b5e0      	push	{r5, r6, r7, lr}
10004d7c:	b095      	sub	sp, #84	; 0x54
10004d7e:	9008      	str	r0, [sp, #32]
10004d80:	9109      	str	r1, [sp, #36]	; 0x24
10004d82:	920a      	str	r2, [sp, #40]	; 0x28
10004d84:	930b      	str	r3, [sp, #44]	; 0x2c
10004d86:	9e1e      	ldr	r6, [sp, #120]	; 0x78
10004d88:	9c1f      	ldr	r4, [sp, #124]	; 0x7c
10004d8a:	ab20      	add	r3, sp, #128	; 0x80
10004d8c:	781b      	ldrb	r3, [r3, #0]
10004d8e:	469b      	mov	fp, r3
10004d90:	9b22      	ldr	r3, [sp, #136]	; 0x88
10004d92:	4699      	mov	r9, r3
10004d94:	9d23      	ldr	r5, [sp, #140]	; 0x8c
10004d96:	9b26      	ldr	r3, [sp, #152]	; 0x98
10004d98:	469a      	mov	sl, r3
10004d9a:	0033      	movs	r3, r6
10004d9c:	4323      	orrs	r3, r4
10004d9e:	d103      	bne.n	10004da8 <_ntoa_long_long+0x38>
10004da0:	3310      	adds	r3, #16
10004da2:	4652      	mov	r2, sl
10004da4:	439a      	bics	r2, r3
10004da6:	4692      	mov	sl, r2
10004da8:	2380      	movs	r3, #128	; 0x80
10004daa:	00db      	lsls	r3, r3, #3
10004dac:	4657      	mov	r7, sl
10004dae:	401f      	ands	r7, r3
10004db0:	4652      	mov	r2, sl
10004db2:	421a      	tst	r2, r3
10004db4:	d019      	beq.n	10004dea <_ntoa_long_long+0x7a>
10004db6:	0033      	movs	r3, r6
10004db8:	4323      	orrs	r3, r4
10004dba:	d02d      	beq.n	10004e18 <_ntoa_long_long+0xa8>
10004dbc:	2700      	movs	r7, #0
10004dbe:	e014      	b.n	10004dea <_ntoa_long_long+0x7a>
10004dc0:	3330      	adds	r3, #48	; 0x30
10004dc2:	b2da      	uxtb	r2, r3
10004dc4:	1c7b      	adds	r3, r7, #1
10004dc6:	4698      	mov	r8, r3
10004dc8:	ab0c      	add	r3, sp, #48	; 0x30
10004dca:	55da      	strb	r2, [r3, r7]
10004dcc:	464a      	mov	r2, r9
10004dce:	002b      	movs	r3, r5
10004dd0:	0030      	movs	r0, r6
10004dd2:	0021      	movs	r1, r4
10004dd4:	f000 ffb2 	bl	10005d3c <__wrap___aeabi_uldivmod>
10004dd8:	42a5      	cmp	r5, r4
10004dda:	d81f      	bhi.n	10004e1c <_ntoa_long_long+0xac>
10004ddc:	d019      	beq.n	10004e12 <_ntoa_long_long+0xa2>
10004dde:	4643      	mov	r3, r8
10004de0:	2b1f      	cmp	r3, #31
10004de2:	d81b      	bhi.n	10004e1c <_ntoa_long_long+0xac>
10004de4:	4647      	mov	r7, r8
10004de6:	0006      	movs	r6, r0
10004de8:	000c      	movs	r4, r1
10004dea:	464a      	mov	r2, r9
10004dec:	002b      	movs	r3, r5
10004dee:	0030      	movs	r0, r6
10004df0:	0021      	movs	r1, r4
10004df2:	f000 ffa3 	bl	10005d3c <__wrap___aeabi_uldivmod>
10004df6:	b2d3      	uxtb	r3, r2
10004df8:	2b09      	cmp	r3, #9
10004dfa:	d9e1      	bls.n	10004dc0 <_ntoa_long_long+0x50>
10004dfc:	4652      	mov	r2, sl
10004dfe:	0692      	lsls	r2, r2, #26
10004e00:	d505      	bpl.n	10004e0e <_ntoa_long_long+0x9e>
10004e02:	2241      	movs	r2, #65	; 0x41
10004e04:	18d2      	adds	r2, r2, r3
10004e06:	b2d2      	uxtb	r2, r2
10004e08:	3a0a      	subs	r2, #10
10004e0a:	b2d2      	uxtb	r2, r2
10004e0c:	e7da      	b.n	10004dc4 <_ntoa_long_long+0x54>
10004e0e:	2261      	movs	r2, #97	; 0x61
10004e10:	e7f8      	b.n	10004e04 <_ntoa_long_long+0x94>
10004e12:	45b1      	cmp	r9, r6
10004e14:	d9e3      	bls.n	10004dde <_ntoa_long_long+0x6e>
10004e16:	e001      	b.n	10004e1c <_ntoa_long_long+0xac>
10004e18:	2300      	movs	r3, #0
10004e1a:	4698      	mov	r8, r3
10004e1c:	4653      	mov	r3, sl
10004e1e:	9306      	str	r3, [sp, #24]
10004e20:	9b25      	ldr	r3, [sp, #148]	; 0x94
10004e22:	9305      	str	r3, [sp, #20]
10004e24:	9b24      	ldr	r3, [sp, #144]	; 0x90
10004e26:	9304      	str	r3, [sp, #16]
10004e28:	464b      	mov	r3, r9
10004e2a:	9303      	str	r3, [sp, #12]
10004e2c:	465b      	mov	r3, fp
10004e2e:	9302      	str	r3, [sp, #8]
10004e30:	4643      	mov	r3, r8
10004e32:	9301      	str	r3, [sp, #4]
10004e34:	ab0c      	add	r3, sp, #48	; 0x30
10004e36:	9300      	str	r3, [sp, #0]
10004e38:	9b0b      	ldr	r3, [sp, #44]	; 0x2c
10004e3a:	9a0a      	ldr	r2, [sp, #40]	; 0x28
10004e3c:	9909      	ldr	r1, [sp, #36]	; 0x24
10004e3e:	9808      	ldr	r0, [sp, #32]
10004e40:	f7ff feaf 	bl	10004ba2 <_ntoa_format>
10004e44:	b015      	add	sp, #84	; 0x54
10004e46:	bcf0      	pop	{r4, r5, r6, r7}
10004e48:	46bb      	mov	fp, r7
10004e4a:	46b2      	mov	sl, r6
10004e4c:	46a9      	mov	r9, r5
10004e4e:	46a0      	mov	r8, r4
10004e50:	bdf0      	pop	{r4, r5, r6, r7, pc}
	...

10004e54 <_etoa>:
10004e54:	b5f0      	push	{r4, r5, r6, r7, lr}
10004e56:	46de      	mov	lr, fp
10004e58:	4657      	mov	r7, sl
10004e5a:	464e      	mov	r6, r9
10004e5c:	4645      	mov	r5, r8
10004e5e:	b5e0      	push	{r5, r6, r7, lr}
10004e60:	b091      	sub	sp, #68	; 0x44
10004e62:	4683      	mov	fp, r0
10004e64:	468a      	mov	sl, r1
10004e66:	920c      	str	r2, [sp, #48]	; 0x30
10004e68:	4698      	mov	r8, r3
10004e6a:	9c1a      	ldr	r4, [sp, #104]	; 0x68
10004e6c:	9408      	str	r4, [sp, #32]
10004e6e:	9d1b      	ldr	r5, [sp, #108]	; 0x6c
10004e70:	9509      	str	r5, [sp, #36]	; 0x24
10004e72:	0022      	movs	r2, r4
10004e74:	002b      	movs	r3, r5
10004e76:	0020      	movs	r0, r4
10004e78:	0029      	movs	r1, r5
10004e7a:	f001 f9fa 	bl	10006272 <__wrap___aeabi_dcmpun>
10004e7e:	2800      	cmp	r0, #0
10004e80:	d000      	beq.n	10004e84 <_etoa+0x30>
10004e82:	e0e5      	b.n	10005050 <_etoa+0x1fc>
10004e84:	2201      	movs	r2, #1
10004e86:	4252      	negs	r2, r2
10004e88:	4bd7      	ldr	r3, [pc, #860]	; (100051e8 <_etoa+0x394>)
10004e8a:	0020      	movs	r0, r4
10004e8c:	0029      	movs	r1, r5
10004e8e:	f001 f9eb 	bl	10006268 <__wrap___aeabi_dcmpgt>
10004e92:	2800      	cmp	r0, #0
10004e94:	d000      	beq.n	10004e98 <_etoa+0x44>
10004e96:	e0db      	b.n	10005050 <_etoa+0x1fc>
10004e98:	2201      	movs	r2, #1
10004e9a:	4252      	negs	r2, r2
10004e9c:	4bd3      	ldr	r3, [pc, #844]	; (100051ec <_etoa+0x398>)
10004e9e:	0020      	movs	r0, r4
10004ea0:	0029      	movs	r1, r5
10004ea2:	f001 f9cb 	bl	1000623c <__wrap___aeabi_dcmplt>
10004ea6:	2800      	cmp	r0, #0
10004ea8:	d000      	beq.n	10004eac <_etoa+0x58>
10004eaa:	e0d1      	b.n	10005050 <_etoa+0x1fc>
10004eac:	2200      	movs	r2, #0
10004eae:	2300      	movs	r3, #0
10004eb0:	9e08      	ldr	r6, [sp, #32]
10004eb2:	0030      	movs	r0, r6
10004eb4:	9d09      	ldr	r5, [sp, #36]	; 0x24
10004eb6:	0029      	movs	r1, r5
10004eb8:	f001 f9c0 	bl	1000623c <__wrap___aeabi_dcmplt>
10004ebc:	2800      	cmp	r0, #0
10004ebe:	d000      	beq.n	10004ec2 <_etoa+0x6e>
10004ec0:	e0dd      	b.n	1000507e <_etoa+0x22a>
10004ec2:	9808      	ldr	r0, [sp, #32]
10004ec4:	9909      	ldr	r1, [sp, #36]	; 0x24
10004ec6:	9006      	str	r0, [sp, #24]
10004ec8:	9107      	str	r1, [sp, #28]
10004eca:	2380      	movs	r3, #128	; 0x80
10004ecc:	00db      	lsls	r3, r3, #3
10004ece:	9a1e      	ldr	r2, [sp, #120]	; 0x78
10004ed0:	401a      	ands	r2, r3
10004ed2:	920d      	str	r2, [sp, #52]	; 0x34
10004ed4:	9a1e      	ldr	r2, [sp, #120]	; 0x78
10004ed6:	421a      	tst	r2, r3
10004ed8:	d101      	bne.n	10004ede <_etoa+0x8a>
10004eda:	2306      	movs	r3, #6
10004edc:	931c      	str	r3, [sp, #112]	; 0x70
10004ede:	9806      	ldr	r0, [sp, #24]
10004ee0:	9907      	ldr	r1, [sp, #28]
10004ee2:	0004      	movs	r4, r0
10004ee4:	000d      	movs	r5, r1
10004ee6:	000a      	movs	r2, r1
10004ee8:	0006      	movs	r6, r0
10004eea:	4302      	orrs	r2, r0
10004eec:	d100      	bne.n	10004ef0 <_etoa+0x9c>
10004eee:	e0d1      	b.n	10005094 <_etoa+0x240>
10004ef0:	0d08      	lsrs	r0, r1, #20
10004ef2:	0540      	lsls	r0, r0, #21
10004ef4:	0d40      	lsrs	r0, r0, #21
10004ef6:	4cbe      	ldr	r4, [pc, #760]	; (100051f0 <_etoa+0x39c>)
10004ef8:	46a4      	mov	ip, r4
10004efa:	4460      	add	r0, ip
10004efc:	030a      	lsls	r2, r1, #12
10004efe:	0b12      	lsrs	r2, r2, #12
10004f00:	4bbc      	ldr	r3, [pc, #752]	; (100051f4 <_etoa+0x3a0>)
10004f02:	4313      	orrs	r3, r2
10004f04:	001f      	movs	r7, r3
10004f06:	f001 f9c7 	bl	10006298 <__wrap___aeabi_i2d>
10004f0a:	4abb      	ldr	r2, [pc, #748]	; (100051f8 <_etoa+0x3a4>)
10004f0c:	4bbb      	ldr	r3, [pc, #748]	; (100051fc <_etoa+0x3a8>)
10004f0e:	f001 f952 	bl	100061b6 <__wrap___aeabi_dmul>
10004f12:	4abb      	ldr	r2, [pc, #748]	; (10005200 <_etoa+0x3ac>)
10004f14:	4bbb      	ldr	r3, [pc, #748]	; (10005204 <_etoa+0x3b0>)
10004f16:	f001 f927 	bl	10006168 <__wrap___aeabi_dadd>
10004f1a:	0004      	movs	r4, r0
10004f1c:	000d      	movs	r5, r1
10004f1e:	2200      	movs	r2, #0
10004f20:	4bb9      	ldr	r3, [pc, #740]	; (10005208 <_etoa+0x3b4>)
10004f22:	0030      	movs	r0, r6
10004f24:	0039      	movs	r1, r7
10004f26:	f001 f916 	bl	10006156 <__wrap___aeabi_dsub>
10004f2a:	4ab8      	ldr	r2, [pc, #736]	; (1000520c <_etoa+0x3b8>)
10004f2c:	4bb8      	ldr	r3, [pc, #736]	; (10005210 <_etoa+0x3bc>)
10004f2e:	f001 f942 	bl	100061b6 <__wrap___aeabi_dmul>
10004f32:	0002      	movs	r2, r0
10004f34:	000b      	movs	r3, r1
10004f36:	0020      	movs	r0, r4
10004f38:	0029      	movs	r1, r5
10004f3a:	f001 f915 	bl	10006168 <__wrap___aeabi_dadd>
10004f3e:	f001 f9c3 	bl	100062c8 <__wrap___aeabi_d2iz>
10004f42:	4681      	mov	r9, r0
10004f44:	f001 f9a8 	bl	10006298 <__wrap___aeabi_i2d>
10004f48:	0004      	movs	r4, r0
10004f4a:	000d      	movs	r5, r1
10004f4c:	4ab1      	ldr	r2, [pc, #708]	; (10005214 <_etoa+0x3c0>)
10004f4e:	4bb2      	ldr	r3, [pc, #712]	; (10005218 <_etoa+0x3c4>)
10004f50:	f001 f931 	bl	100061b6 <__wrap___aeabi_dmul>
10004f54:	2200      	movs	r2, #0
10004f56:	4bb1      	ldr	r3, [pc, #708]	; (1000521c <_etoa+0x3c8>)
10004f58:	f001 f906 	bl	10006168 <__wrap___aeabi_dadd>
10004f5c:	f001 f9b4 	bl	100062c8 <__wrap___aeabi_d2iz>
10004f60:	0006      	movs	r6, r0
10004f62:	4aaf      	ldr	r2, [pc, #700]	; (10005220 <_etoa+0x3cc>)
10004f64:	4baf      	ldr	r3, [pc, #700]	; (10005224 <_etoa+0x3d0>)
10004f66:	0020      	movs	r0, r4
10004f68:	0029      	movs	r1, r5
10004f6a:	f001 f924 	bl	100061b6 <__wrap___aeabi_dmul>
10004f6e:	0004      	movs	r4, r0
10004f70:	000d      	movs	r5, r1
10004f72:	0030      	movs	r0, r6
10004f74:	f001 f990 	bl	10006298 <__wrap___aeabi_i2d>
10004f78:	4aab      	ldr	r2, [pc, #684]	; (10005228 <_etoa+0x3d4>)
10004f7a:	4bac      	ldr	r3, [pc, #688]	; (1000522c <_etoa+0x3d8>)
10004f7c:	f001 f91b 	bl	100061b6 <__wrap___aeabi_dmul>
10004f80:	0002      	movs	r2, r0
10004f82:	000b      	movs	r3, r1
10004f84:	0020      	movs	r0, r4
10004f86:	0029      	movs	r1, r5
10004f88:	f001 f8e5 	bl	10006156 <__wrap___aeabi_dsub>
10004f8c:	0004      	movs	r4, r0
10004f8e:	000d      	movs	r5, r1
10004f90:	0002      	movs	r2, r0
10004f92:	000b      	movs	r3, r1
10004f94:	f001 f90f 	bl	100061b6 <__wrap___aeabi_dmul>
10004f98:	900a      	str	r0, [sp, #40]	; 0x28
10004f9a:	910b      	str	r1, [sp, #44]	; 0x2c
10004f9c:	4ba4      	ldr	r3, [pc, #656]	; (10005230 <_etoa+0x3dc>)
10004f9e:	18f3      	adds	r3, r6, r3
10004fa0:	2600      	movs	r6, #0
10004fa2:	051f      	lsls	r7, r3, #20
10004fa4:	0022      	movs	r2, r4
10004fa6:	002b      	movs	r3, r5
10004fa8:	0020      	movs	r0, r4
10004faa:	0029      	movs	r1, r5
10004fac:	f001 f8dc 	bl	10006168 <__wrap___aeabi_dadd>
10004fb0:	900e      	str	r0, [sp, #56]	; 0x38
10004fb2:	910f      	str	r1, [sp, #60]	; 0x3c
10004fb4:	0022      	movs	r2, r4
10004fb6:	002b      	movs	r3, r5
10004fb8:	2000      	movs	r0, #0
10004fba:	2180      	movs	r1, #128	; 0x80
10004fbc:	05c9      	lsls	r1, r1, #23
10004fbe:	f001 f8ca 	bl	10006156 <__wrap___aeabi_dsub>
10004fc2:	0004      	movs	r4, r0
10004fc4:	000d      	movs	r5, r1
10004fc6:	2200      	movs	r2, #0
10004fc8:	4b9a      	ldr	r3, [pc, #616]	; (10005234 <_etoa+0x3e0>)
10004fca:	980a      	ldr	r0, [sp, #40]	; 0x28
10004fcc:	990b      	ldr	r1, [sp, #44]	; 0x2c
10004fce:	f001 f8d4 	bl	1000617a <__wrap___aeabi_ddiv>
10004fd2:	2200      	movs	r2, #0
10004fd4:	4b98      	ldr	r3, [pc, #608]	; (10005238 <_etoa+0x3e4>)
10004fd6:	f001 f8c7 	bl	10006168 <__wrap___aeabi_dadd>
10004fda:	0002      	movs	r2, r0
10004fdc:	000b      	movs	r3, r1
10004fde:	980a      	ldr	r0, [sp, #40]	; 0x28
10004fe0:	990b      	ldr	r1, [sp, #44]	; 0x2c
10004fe2:	f001 f8ca 	bl	1000617a <__wrap___aeabi_ddiv>
10004fe6:	2200      	movs	r2, #0
10004fe8:	4b94      	ldr	r3, [pc, #592]	; (1000523c <_etoa+0x3e8>)
10004fea:	f001 f8bd 	bl	10006168 <__wrap___aeabi_dadd>
10004fee:	0002      	movs	r2, r0
10004ff0:	000b      	movs	r3, r1
10004ff2:	980a      	ldr	r0, [sp, #40]	; 0x28
10004ff4:	990b      	ldr	r1, [sp, #44]	; 0x2c
10004ff6:	f001 f8c0 	bl	1000617a <__wrap___aeabi_ddiv>
10004ffa:	0002      	movs	r2, r0
10004ffc:	000b      	movs	r3, r1
10004ffe:	0020      	movs	r0, r4
10005000:	0029      	movs	r1, r5
10005002:	f001 f8b1 	bl	10006168 <__wrap___aeabi_dadd>
10005006:	0002      	movs	r2, r0
10005008:	000b      	movs	r3, r1
1000500a:	980e      	ldr	r0, [sp, #56]	; 0x38
1000500c:	990f      	ldr	r1, [sp, #60]	; 0x3c
1000500e:	f001 f8b4 	bl	1000617a <__wrap___aeabi_ddiv>
10005012:	2200      	movs	r2, #0
10005014:	4b77      	ldr	r3, [pc, #476]	; (100051f4 <_etoa+0x3a0>)
10005016:	f001 f8a7 	bl	10006168 <__wrap___aeabi_dadd>
1000501a:	0032      	movs	r2, r6
1000501c:	003b      	movs	r3, r7
1000501e:	f001 f8ca 	bl	100061b6 <__wrap___aeabi_dmul>
10005022:	0006      	movs	r6, r0
10005024:	000f      	movs	r7, r1
10005026:	0004      	movs	r4, r0
10005028:	000d      	movs	r5, r1
1000502a:	9a06      	ldr	r2, [sp, #24]
1000502c:	9b07      	ldr	r3, [sp, #28]
1000502e:	f001 f91b 	bl	10006268 <__wrap___aeabi_dcmpgt>
10005032:	2800      	cmp	r0, #0
10005034:	d030      	beq.n	10005098 <_etoa+0x244>
10005036:	2301      	movs	r3, #1
10005038:	425b      	negs	r3, r3
1000503a:	469c      	mov	ip, r3
1000503c:	44e1      	add	r9, ip
1000503e:	2200      	movs	r2, #0
10005040:	4b7d      	ldr	r3, [pc, #500]	; (10005238 <_etoa+0x3e4>)
10005042:	0030      	movs	r0, r6
10005044:	0039      	movs	r1, r7
10005046:	f001 f898 	bl	1000617a <__wrap___aeabi_ddiv>
1000504a:	0004      	movs	r4, r0
1000504c:	000d      	movs	r5, r1
1000504e:	e023      	b.n	10005098 <_etoa+0x244>
10005050:	9b1e      	ldr	r3, [sp, #120]	; 0x78
10005052:	9304      	str	r3, [sp, #16]
10005054:	9b1d      	ldr	r3, [sp, #116]	; 0x74
10005056:	9303      	str	r3, [sp, #12]
10005058:	9b1c      	ldr	r3, [sp, #112]	; 0x70
1000505a:	9302      	str	r3, [sp, #8]
1000505c:	9a08      	ldr	r2, [sp, #32]
1000505e:	9b09      	ldr	r3, [sp, #36]	; 0x24
10005060:	9200      	str	r2, [sp, #0]
10005062:	9301      	str	r3, [sp, #4]
10005064:	4643      	mov	r3, r8
10005066:	9a0c      	ldr	r2, [sp, #48]	; 0x30
10005068:	4651      	mov	r1, sl
1000506a:	4658      	mov	r0, fp
1000506c:	f000 f8fc 	bl	10005268 <_ftoa>
10005070:	b011      	add	sp, #68	; 0x44
10005072:	bcf0      	pop	{r4, r5, r6, r7}
10005074:	46bb      	mov	fp, r7
10005076:	46b2      	mov	sl, r6
10005078:	46a9      	mov	r9, r5
1000507a:	46a0      	mov	r8, r4
1000507c:	bdf0      	pop	{r4, r5, r6, r7, pc}
1000507e:	2300      	movs	r3, #0
10005080:	2400      	movs	r4, #0
10005082:	9306      	str	r3, [sp, #24]
10005084:	9407      	str	r4, [sp, #28]
10005086:	9606      	str	r6, [sp, #24]
10005088:	2380      	movs	r3, #128	; 0x80
1000508a:	061b      	lsls	r3, r3, #24
1000508c:	469c      	mov	ip, r3
1000508e:	4465      	add	r5, ip
10005090:	9507      	str	r5, [sp, #28]
10005092:	e71a      	b.n	10004eca <_etoa+0x76>
10005094:	2300      	movs	r3, #0
10005096:	4699      	mov	r9, r3
10005098:	464b      	mov	r3, r9
1000509a:	3363      	adds	r3, #99	; 0x63
1000509c:	2bc6      	cmp	r3, #198	; 0xc6
1000509e:	d81e      	bhi.n	100050de <_etoa+0x28a>
100050a0:	2604      	movs	r6, #4
100050a2:	9b1e      	ldr	r3, [sp, #120]	; 0x78
100050a4:	051b      	lsls	r3, r3, #20
100050a6:	d526      	bpl.n	100050f6 <_etoa+0x2a2>
100050a8:	002b      	movs	r3, r5
100050aa:	4323      	orrs	r3, r4
100050ac:	d00f      	beq.n	100050ce <_etoa+0x27a>
100050ae:	4a64      	ldr	r2, [pc, #400]	; (10005240 <_etoa+0x3ec>)
100050b0:	4b64      	ldr	r3, [pc, #400]	; (10005244 <_etoa+0x3f0>)
100050b2:	9806      	ldr	r0, [sp, #24]
100050b4:	9907      	ldr	r1, [sp, #28]
100050b6:	f001 f8cf 	bl	10006258 <__wrap___aeabi_dcmpge>
100050ba:	2800      	cmp	r0, #0
100050bc:	d079      	beq.n	100051b2 <_etoa+0x35e>
100050be:	2200      	movs	r2, #0
100050c0:	4b61      	ldr	r3, [pc, #388]	; (10005248 <_etoa+0x3f4>)
100050c2:	9806      	ldr	r0, [sp, #24]
100050c4:	9907      	ldr	r1, [sp, #28]
100050c6:	f001 f8b9 	bl	1000623c <__wrap___aeabi_dcmplt>
100050ca:	2800      	cmp	r0, #0
100050cc:	d071      	beq.n	100051b2 <_etoa+0x35e>
100050ce:	9b1c      	ldr	r3, [sp, #112]	; 0x70
100050d0:	454b      	cmp	r3, r9
100050d2:	dd06      	ble.n	100050e2 <_etoa+0x28e>
100050d4:	464a      	mov	r2, r9
100050d6:	1a98      	subs	r0, r3, r2
100050d8:	1e43      	subs	r3, r0, #1
100050da:	931c      	str	r3, [sp, #112]	; 0x70
100050dc:	e003      	b.n	100050e6 <_etoa+0x292>
100050de:	2605      	movs	r6, #5
100050e0:	e7df      	b.n	100050a2 <_etoa+0x24e>
100050e2:	2300      	movs	r3, #0
100050e4:	931c      	str	r3, [sp, #112]	; 0x70
100050e6:	2380      	movs	r3, #128	; 0x80
100050e8:	00db      	lsls	r3, r3, #3
100050ea:	9a1e      	ldr	r2, [sp, #120]	; 0x78
100050ec:	431a      	orrs	r2, r3
100050ee:	921e      	str	r2, [sp, #120]	; 0x78
100050f0:	2600      	movs	r6, #0
100050f2:	2300      	movs	r3, #0
100050f4:	4699      	mov	r9, r3
100050f6:	9b1d      	ldr	r3, [sp, #116]	; 0x74
100050f8:	429e      	cmp	r6, r3
100050fa:	d264      	bcs.n	100051c6 <_etoa+0x372>
100050fc:	1b9f      	subs	r7, r3, r6
100050fe:	2302      	movs	r3, #2
10005100:	9a1e      	ldr	r2, [sp, #120]	; 0x78
10005102:	401a      	ands	r2, r3
10005104:	920a      	str	r2, [sp, #40]	; 0x28
10005106:	9a1e      	ldr	r2, [sp, #120]	; 0x78
10005108:	4213      	tst	r3, r2
1000510a:	d002      	beq.n	10005112 <_etoa+0x2be>
1000510c:	2e00      	cmp	r6, #0
1000510e:	d000      	beq.n	10005112 <_etoa+0x2be>
10005110:	2700      	movs	r7, #0
10005112:	464b      	mov	r3, r9
10005114:	2b00      	cmp	r3, #0
10005116:	d007      	beq.n	10005128 <_etoa+0x2d4>
10005118:	0022      	movs	r2, r4
1000511a:	002b      	movs	r3, r5
1000511c:	9806      	ldr	r0, [sp, #24]
1000511e:	9907      	ldr	r1, [sp, #28]
10005120:	f001 f82b 	bl	1000617a <__wrap___aeabi_ddiv>
10005124:	9006      	str	r0, [sp, #24]
10005126:	9107      	str	r1, [sp, #28]
10005128:	2200      	movs	r2, #0
1000512a:	2300      	movs	r3, #0
1000512c:	9808      	ldr	r0, [sp, #32]
1000512e:	9909      	ldr	r1, [sp, #36]	; 0x24
10005130:	f001 f884 	bl	1000623c <__wrap___aeabi_dcmplt>
10005134:	2800      	cmp	r0, #0
10005136:	d148      	bne.n	100051ca <_etoa+0x376>
10005138:	4b44      	ldr	r3, [pc, #272]	; (1000524c <_etoa+0x3f8>)
1000513a:	9a1e      	ldr	r2, [sp, #120]	; 0x78
1000513c:	4013      	ands	r3, r2
1000513e:	9304      	str	r3, [sp, #16]
10005140:	9703      	str	r7, [sp, #12]
10005142:	9b1c      	ldr	r3, [sp, #112]	; 0x70
10005144:	9302      	str	r3, [sp, #8]
10005146:	9b06      	ldr	r3, [sp, #24]
10005148:	9c07      	ldr	r4, [sp, #28]
1000514a:	9300      	str	r3, [sp, #0]
1000514c:	9401      	str	r4, [sp, #4]
1000514e:	4643      	mov	r3, r8
10005150:	9a0c      	ldr	r2, [sp, #48]	; 0x30
10005152:	4651      	mov	r1, sl
10005154:	4658      	mov	r0, fp
10005156:	f000 f887 	bl	10005268 <_ftoa>
1000515a:	2e00      	cmp	r6, #0
1000515c:	d100      	bne.n	10005160 <_etoa+0x30c>
1000515e:	e787      	b.n	10005070 <_etoa+0x21c>
10005160:	9b1e      	ldr	r3, [sp, #120]	; 0x78
10005162:	069b      	lsls	r3, r3, #26
10005164:	d53d      	bpl.n	100051e2 <_etoa+0x38e>
10005166:	2545      	movs	r5, #69	; 0x45
10005168:	1c44      	adds	r4, r0, #1
1000516a:	4643      	mov	r3, r8
1000516c:	0002      	movs	r2, r0
1000516e:	4651      	mov	r1, sl
10005170:	0028      	movs	r0, r5
10005172:	47d8      	blx	fp
10005174:	464b      	mov	r3, r9
10005176:	17da      	asrs	r2, r3, #31
10005178:	189b      	adds	r3, r3, r2
1000517a:	4053      	eors	r3, r2
1000517c:	2205      	movs	r2, #5
1000517e:	9205      	str	r2, [sp, #20]
10005180:	3e01      	subs	r6, #1
10005182:	9604      	str	r6, [sp, #16]
10005184:	2200      	movs	r2, #0
10005186:	9203      	str	r2, [sp, #12]
10005188:	320a      	adds	r2, #10
1000518a:	9202      	str	r2, [sp, #8]
1000518c:	464a      	mov	r2, r9
1000518e:	0fd0      	lsrs	r0, r2, #31
10005190:	9001      	str	r0, [sp, #4]
10005192:	9300      	str	r3, [sp, #0]
10005194:	4643      	mov	r3, r8
10005196:	0022      	movs	r2, r4
10005198:	4651      	mov	r1, sl
1000519a:	4658      	mov	r0, fp
1000519c:	f7ff fd8a 	bl	10004cb4 <_ntoa_long>
100051a0:	9b0a      	ldr	r3, [sp, #40]	; 0x28
100051a2:	2b00      	cmp	r3, #0
100051a4:	d100      	bne.n	100051a8 <_etoa+0x354>
100051a6:	e763      	b.n	10005070 <_etoa+0x21c>
100051a8:	0002      	movs	r2, r0
100051aa:	465f      	mov	r7, fp
100051ac:	9e0c      	ldr	r6, [sp, #48]	; 0x30
100051ae:	9d1d      	ldr	r5, [sp, #116]	; 0x74
100051b0:	e054      	b.n	1000525c <_etoa+0x408>
100051b2:	9b1c      	ldr	r3, [sp, #112]	; 0x70
100051b4:	2b00      	cmp	r3, #0
100051b6:	d09e      	beq.n	100050f6 <_etoa+0x2a2>
100051b8:	9b0d      	ldr	r3, [sp, #52]	; 0x34
100051ba:	2b00      	cmp	r3, #0
100051bc:	d09b      	beq.n	100050f6 <_etoa+0x2a2>
100051be:	9b1c      	ldr	r3, [sp, #112]	; 0x70
100051c0:	3b01      	subs	r3, #1
100051c2:	931c      	str	r3, [sp, #112]	; 0x70
100051c4:	e797      	b.n	100050f6 <_etoa+0x2a2>
100051c6:	2700      	movs	r7, #0
100051c8:	e799      	b.n	100050fe <_etoa+0x2aa>
100051ca:	9c06      	ldr	r4, [sp, #24]
100051cc:	9d07      	ldr	r5, [sp, #28]
100051ce:	0022      	movs	r2, r4
100051d0:	0029      	movs	r1, r5
100051d2:	2080      	movs	r0, #128	; 0x80
100051d4:	0600      	lsls	r0, r0, #24
100051d6:	4684      	mov	ip, r0
100051d8:	4461      	add	r1, ip
100051da:	000b      	movs	r3, r1
100051dc:	9206      	str	r2, [sp, #24]
100051de:	9307      	str	r3, [sp, #28]
100051e0:	e7aa      	b.n	10005138 <_etoa+0x2e4>
100051e2:	2565      	movs	r5, #101	; 0x65
100051e4:	e7c0      	b.n	10005168 <_etoa+0x314>
100051e6:	46c0      	nop			; (mov r8, r8)
100051e8:	7fefffff 	.word	0x7fefffff
100051ec:	ffefffff 	.word	0xffefffff
100051f0:	fffffc01 	.word	0xfffffc01
100051f4:	3ff00000 	.word	0x3ff00000
100051f8:	509f79fb 	.word	0x509f79fb
100051fc:	3fd34413 	.word	0x3fd34413
10005200:	8b60c8b3 	.word	0x8b60c8b3
10005204:	3fc68a28 	.word	0x3fc68a28
10005208:	3ff80000 	.word	0x3ff80000
1000520c:	636f4361 	.word	0x636f4361
10005210:	3fd287a7 	.word	0x3fd287a7
10005214:	0979a371 	.word	0x0979a371
10005218:	400a934f 	.word	0x400a934f
1000521c:	3fe00000 	.word	0x3fe00000
10005220:	bbb55516 	.word	0xbbb55516
10005224:	40026bb1 	.word	0x40026bb1
10005228:	fefa39ef 	.word	0xfefa39ef
1000522c:	3fe62e42 	.word	0x3fe62e42
10005230:	000003ff 	.word	0x000003ff
10005234:	402c0000 	.word	0x402c0000
10005238:	40240000 	.word	0x40240000
1000523c:	40180000 	.word	0x40180000
10005240:	eb1c432d 	.word	0xeb1c432d
10005244:	3f1a36e2 	.word	0x3f1a36e2
10005248:	412e8480 	.word	0x412e8480
1000524c:	fffff7ff 	.word	0xfffff7ff
10005250:	1c54      	adds	r4, r2, #1
10005252:	4643      	mov	r3, r8
10005254:	4651      	mov	r1, sl
10005256:	2020      	movs	r0, #32
10005258:	47b8      	blx	r7
1000525a:	0022      	movs	r2, r4
1000525c:	1b93      	subs	r3, r2, r6
1000525e:	42ab      	cmp	r3, r5
10005260:	d3f6      	bcc.n	10005250 <_etoa+0x3fc>
10005262:	0010      	movs	r0, r2
10005264:	e704      	b.n	10005070 <_etoa+0x21c>
10005266:	46c0      	nop			; (mov r8, r8)

10005268 <_ftoa>:
10005268:	b5f0      	push	{r4, r5, r6, r7, lr}
1000526a:	46de      	mov	lr, fp
1000526c:	4657      	mov	r7, sl
1000526e:	464e      	mov	r6, r9
10005270:	4645      	mov	r5, r8
10005272:	b5e0      	push	{r5, r6, r7, lr}
10005274:	b095      	sub	sp, #84	; 0x54
10005276:	9006      	str	r0, [sp, #24]
10005278:	9107      	str	r1, [sp, #28]
1000527a:	4693      	mov	fp, r2
1000527c:	4699      	mov	r9, r3
1000527e:	9f20      	ldr	r7, [sp, #128]	; 0x80
10005280:	9a1e      	ldr	r2, [sp, #120]	; 0x78
10005282:	9b1f      	ldr	r3, [sp, #124]	; 0x7c
10005284:	0010      	movs	r0, r2
10005286:	0019      	movs	r1, r3
10005288:	f000 fff3 	bl	10006272 <__wrap___aeabi_dcmpun>
1000528c:	2800      	cmp	r0, #0
1000528e:	d131      	bne.n	100052f4 <_ftoa+0x8c>
10005290:	2201      	movs	r2, #1
10005292:	4252      	negs	r2, r2
10005294:	4bbf      	ldr	r3, [pc, #764]	; (10005594 <_ftoa+0x32c>)
10005296:	981e      	ldr	r0, [sp, #120]	; 0x78
10005298:	991f      	ldr	r1, [sp, #124]	; 0x7c
1000529a:	f000 ffcf 	bl	1000623c <__wrap___aeabi_dcmplt>
1000529e:	2800      	cmp	r0, #0
100052a0:	d137      	bne.n	10005312 <_ftoa+0xaa>
100052a2:	2201      	movs	r2, #1
100052a4:	4252      	negs	r2, r2
100052a6:	4bbc      	ldr	r3, [pc, #752]	; (10005598 <_ftoa+0x330>)
100052a8:	981e      	ldr	r0, [sp, #120]	; 0x78
100052aa:	991f      	ldr	r1, [sp, #124]	; 0x7c
100052ac:	f000 ffdc 	bl	10006268 <__wrap___aeabi_dcmpgt>
100052b0:	2800      	cmp	r0, #0
100052b2:	d13d      	bne.n	10005330 <_ftoa+0xc8>
100052b4:	2200      	movs	r2, #0
100052b6:	4bb9      	ldr	r3, [pc, #740]	; (1000559c <_ftoa+0x334>)
100052b8:	981e      	ldr	r0, [sp, #120]	; 0x78
100052ba:	991f      	ldr	r1, [sp, #124]	; 0x7c
100052bc:	f000 ffd4 	bl	10006268 <__wrap___aeabi_dcmpgt>
100052c0:	2800      	cmp	r0, #0
100052c2:	d150      	bne.n	10005366 <_ftoa+0xfe>
100052c4:	2200      	movs	r2, #0
100052c6:	4bb6      	ldr	r3, [pc, #728]	; (100055a0 <_ftoa+0x338>)
100052c8:	981e      	ldr	r0, [sp, #120]	; 0x78
100052ca:	991f      	ldr	r1, [sp, #124]	; 0x7c
100052cc:	f000 ffb6 	bl	1000623c <__wrap___aeabi_dcmplt>
100052d0:	2800      	cmp	r0, #0
100052d2:	d148      	bne.n	10005366 <_ftoa+0xfe>
100052d4:	2200      	movs	r2, #0
100052d6:	2300      	movs	r3, #0
100052d8:	981e      	ldr	r0, [sp, #120]	; 0x78
100052da:	991f      	ldr	r1, [sp, #124]	; 0x7c
100052dc:	f000 ffae 	bl	1000623c <__wrap___aeabi_dcmplt>
100052e0:	2800      	cmp	r0, #0
100052e2:	d150      	bne.n	10005386 <_ftoa+0x11e>
100052e4:	2300      	movs	r3, #0
100052e6:	4698      	mov	r8, r3
100052e8:	9b22      	ldr	r3, [sp, #136]	; 0x88
100052ea:	055b      	lsls	r3, r3, #21
100052ec:	d400      	bmi.n	100052f0 <_ftoa+0x88>
100052ee:	e0b6      	b.n	1000545e <_ftoa+0x1f6>
100052f0:	2400      	movs	r4, #0
100052f2:	e058      	b.n	100053a6 <_ftoa+0x13e>
100052f4:	9b22      	ldr	r3, [sp, #136]	; 0x88
100052f6:	9303      	str	r3, [sp, #12]
100052f8:	9b21      	ldr	r3, [sp, #132]	; 0x84
100052fa:	9302      	str	r3, [sp, #8]
100052fc:	2303      	movs	r3, #3
100052fe:	9301      	str	r3, [sp, #4]
10005300:	4ba8      	ldr	r3, [pc, #672]	; (100055a4 <_ftoa+0x33c>)
10005302:	9300      	str	r3, [sp, #0]
10005304:	464b      	mov	r3, r9
10005306:	465a      	mov	r2, fp
10005308:	9907      	ldr	r1, [sp, #28]
1000530a:	9806      	ldr	r0, [sp, #24]
1000530c:	f7ff fbf2 	bl	10004af4 <_out_rev>
10005310:	e10e      	b.n	10005530 <_ftoa+0x2c8>
10005312:	9b22      	ldr	r3, [sp, #136]	; 0x88
10005314:	9303      	str	r3, [sp, #12]
10005316:	9b21      	ldr	r3, [sp, #132]	; 0x84
10005318:	9302      	str	r3, [sp, #8]
1000531a:	2304      	movs	r3, #4
1000531c:	9301      	str	r3, [sp, #4]
1000531e:	4ba2      	ldr	r3, [pc, #648]	; (100055a8 <_ftoa+0x340>)
10005320:	9300      	str	r3, [sp, #0]
10005322:	464b      	mov	r3, r9
10005324:	465a      	mov	r2, fp
10005326:	9907      	ldr	r1, [sp, #28]
10005328:	9806      	ldr	r0, [sp, #24]
1000532a:	f7ff fbe3 	bl	10004af4 <_out_rev>
1000532e:	e0ff      	b.n	10005530 <_ftoa+0x2c8>
10005330:	2304      	movs	r3, #4
10005332:	9a22      	ldr	r2, [sp, #136]	; 0x88
10005334:	401a      	ands	r2, r3
10005336:	9922      	ldr	r1, [sp, #136]	; 0x88
10005338:	420b      	tst	r3, r1
1000533a:	d010      	beq.n	1000535e <_ftoa+0xf6>
1000533c:	4b9b      	ldr	r3, [pc, #620]	; (100055ac <_ftoa+0x344>)
1000533e:	2a00      	cmp	r2, #0
10005340:	d00f      	beq.n	10005362 <_ftoa+0xfa>
10005342:	2204      	movs	r2, #4
10005344:	9922      	ldr	r1, [sp, #136]	; 0x88
10005346:	9103      	str	r1, [sp, #12]
10005348:	9921      	ldr	r1, [sp, #132]	; 0x84
1000534a:	9102      	str	r1, [sp, #8]
1000534c:	9201      	str	r2, [sp, #4]
1000534e:	9300      	str	r3, [sp, #0]
10005350:	464b      	mov	r3, r9
10005352:	465a      	mov	r2, fp
10005354:	9907      	ldr	r1, [sp, #28]
10005356:	9806      	ldr	r0, [sp, #24]
10005358:	f7ff fbcc 	bl	10004af4 <_out_rev>
1000535c:	e0e8      	b.n	10005530 <_ftoa+0x2c8>
1000535e:	4b94      	ldr	r3, [pc, #592]	; (100055b0 <_ftoa+0x348>)
10005360:	e7ed      	b.n	1000533e <_ftoa+0xd6>
10005362:	2203      	movs	r2, #3
10005364:	e7ee      	b.n	10005344 <_ftoa+0xdc>
10005366:	9b22      	ldr	r3, [sp, #136]	; 0x88
10005368:	9304      	str	r3, [sp, #16]
1000536a:	9b21      	ldr	r3, [sp, #132]	; 0x84
1000536c:	9303      	str	r3, [sp, #12]
1000536e:	9702      	str	r7, [sp, #8]
10005370:	9b1e      	ldr	r3, [sp, #120]	; 0x78
10005372:	9c1f      	ldr	r4, [sp, #124]	; 0x7c
10005374:	9300      	str	r3, [sp, #0]
10005376:	9401      	str	r4, [sp, #4]
10005378:	464b      	mov	r3, r9
1000537a:	465a      	mov	r2, fp
1000537c:	9907      	ldr	r1, [sp, #28]
1000537e:	9806      	ldr	r0, [sp, #24]
10005380:	f7ff fd68 	bl	10004e54 <_etoa>
10005384:	e0d4      	b.n	10005530 <_ftoa+0x2c8>
10005386:	9a1e      	ldr	r2, [sp, #120]	; 0x78
10005388:	9b1f      	ldr	r3, [sp, #124]	; 0x7c
1000538a:	2000      	movs	r0, #0
1000538c:	2100      	movs	r1, #0
1000538e:	f000 fee2 	bl	10006156 <__wrap___aeabi_dsub>
10005392:	901e      	str	r0, [sp, #120]	; 0x78
10005394:	911f      	str	r1, [sp, #124]	; 0x7c
10005396:	2301      	movs	r3, #1
10005398:	4698      	mov	r8, r3
1000539a:	e7a5      	b.n	100052e8 <_ftoa+0x80>
1000539c:	ab0c      	add	r3, sp, #48	; 0x30
1000539e:	2230      	movs	r2, #48	; 0x30
100053a0:	551a      	strb	r2, [r3, r4]
100053a2:	3f01      	subs	r7, #1
100053a4:	3401      	adds	r4, #1
100053a6:	2c1f      	cmp	r4, #31
100053a8:	d801      	bhi.n	100053ae <_ftoa+0x146>
100053aa:	2f09      	cmp	r7, #9
100053ac:	d8f6      	bhi.n	1000539c <_ftoa+0x134>
100053ae:	981e      	ldr	r0, [sp, #120]	; 0x78
100053b0:	991f      	ldr	r1, [sp, #124]	; 0x7c
100053b2:	f000 ff89 	bl	100062c8 <__wrap___aeabi_d2iz>
100053b6:	0005      	movs	r5, r0
100053b8:	f000 ff6e 	bl	10006298 <__wrap___aeabi_i2d>
100053bc:	0002      	movs	r2, r0
100053be:	000b      	movs	r3, r1
100053c0:	981e      	ldr	r0, [sp, #120]	; 0x78
100053c2:	991f      	ldr	r1, [sp, #124]	; 0x7c
100053c4:	f000 fec7 	bl	10006156 <__wrap___aeabi_dsub>
100053c8:	00fa      	lsls	r2, r7, #3
100053ca:	4b7a      	ldr	r3, [pc, #488]	; (100055b4 <_ftoa+0x34c>)
100053cc:	189b      	adds	r3, r3, r2
100053ce:	681a      	ldr	r2, [r3, #0]
100053d0:	685b      	ldr	r3, [r3, #4]
100053d2:	920a      	str	r2, [sp, #40]	; 0x28
100053d4:	930b      	str	r3, [sp, #44]	; 0x2c
100053d6:	f000 feee 	bl	100061b6 <__wrap___aeabi_dmul>
100053da:	9008      	str	r0, [sp, #32]
100053dc:	9109      	str	r1, [sp, #36]	; 0x24
100053de:	f000 ff97 	bl	10006310 <__wrap___aeabi_d2uiz>
100053e2:	0006      	movs	r6, r0
100053e4:	f000 ff54 	bl	10006290 <__wrap___aeabi_ui2d>
100053e8:	0002      	movs	r2, r0
100053ea:	000b      	movs	r3, r1
100053ec:	9808      	ldr	r0, [sp, #32]
100053ee:	9909      	ldr	r1, [sp, #36]	; 0x24
100053f0:	f000 feb1 	bl	10006156 <__wrap___aeabi_dsub>
100053f4:	9008      	str	r0, [sp, #32]
100053f6:	9109      	str	r1, [sp, #36]	; 0x24
100053f8:	2200      	movs	r2, #0
100053fa:	4b6f      	ldr	r3, [pc, #444]	; (100055b8 <_ftoa+0x350>)
100053fc:	f000 ff34 	bl	10006268 <__wrap___aeabi_dcmpgt>
10005400:	2800      	cmp	r0, #0
10005402:	d02e      	beq.n	10005462 <_ftoa+0x1fa>
10005404:	3601      	adds	r6, #1
10005406:	0030      	movs	r0, r6
10005408:	f000 ff42 	bl	10006290 <__wrap___aeabi_ui2d>
1000540c:	0002      	movs	r2, r0
1000540e:	000b      	movs	r3, r1
10005410:	980a      	ldr	r0, [sp, #40]	; 0x28
10005412:	990b      	ldr	r1, [sp, #44]	; 0x2c
10005414:	f000 ff18 	bl	10006248 <__wrap___aeabi_dcmple>
10005418:	2800      	cmp	r0, #0
1000541a:	d001      	beq.n	10005420 <_ftoa+0x1b8>
1000541c:	3501      	adds	r5, #1
1000541e:	2600      	movs	r6, #0
10005420:	2f00      	cmp	r7, #0
10005422:	d12c      	bne.n	1000547e <_ftoa+0x216>
10005424:	0028      	movs	r0, r5
10005426:	f000 ff37 	bl	10006298 <__wrap___aeabi_i2d>
1000542a:	0002      	movs	r2, r0
1000542c:	000b      	movs	r3, r1
1000542e:	981e      	ldr	r0, [sp, #120]	; 0x78
10005430:	991f      	ldr	r1, [sp, #124]	; 0x7c
10005432:	f000 fe90 	bl	10006156 <__wrap___aeabi_dsub>
10005436:	0006      	movs	r6, r0
10005438:	000f      	movs	r7, r1
1000543a:	2200      	movs	r2, #0
1000543c:	4b5e      	ldr	r3, [pc, #376]	; (100055b8 <_ftoa+0x350>)
1000543e:	f000 fefd 	bl	1000623c <__wrap___aeabi_dcmplt>
10005442:	2800      	cmp	r0, #0
10005444:	d146      	bne.n	100054d4 <_ftoa+0x26c>
10005446:	2200      	movs	r2, #0
10005448:	4b5b      	ldr	r3, [pc, #364]	; (100055b8 <_ftoa+0x350>)
1000544a:	0030      	movs	r0, r6
1000544c:	0039      	movs	r1, r7
1000544e:	f000 ff0b 	bl	10006268 <__wrap___aeabi_dcmpgt>
10005452:	2800      	cmp	r0, #0
10005454:	d13e      	bne.n	100054d4 <_ftoa+0x26c>
10005456:	07eb      	lsls	r3, r5, #31
10005458:	d53c      	bpl.n	100054d4 <_ftoa+0x26c>
1000545a:	3501      	adds	r5, #1
1000545c:	e03a      	b.n	100054d4 <_ftoa+0x26c>
1000545e:	2706      	movs	r7, #6
10005460:	e746      	b.n	100052f0 <_ftoa+0x88>
10005462:	2200      	movs	r2, #0
10005464:	4b54      	ldr	r3, [pc, #336]	; (100055b8 <_ftoa+0x350>)
10005466:	9808      	ldr	r0, [sp, #32]
10005468:	9909      	ldr	r1, [sp, #36]	; 0x24
1000546a:	f000 fee7 	bl	1000623c <__wrap___aeabi_dcmplt>
1000546e:	2800      	cmp	r0, #0
10005470:	d1d6      	bne.n	10005420 <_ftoa+0x1b8>
10005472:	2e00      	cmp	r6, #0
10005474:	d001      	beq.n	1000547a <_ftoa+0x212>
10005476:	07f3      	lsls	r3, r6, #31
10005478:	d5d2      	bpl.n	10005420 <_ftoa+0x1b8>
1000547a:	3601      	adds	r6, #1
1000547c:	e7d0      	b.n	10005420 <_ftoa+0x1b8>
1000547e:	46aa      	mov	sl, r5
10005480:	2c1f      	cmp	r4, #31
10005482:	d811      	bhi.n	100054a8 <_ftoa+0x240>
10005484:	3f01      	subs	r7, #1
10005486:	210a      	movs	r1, #10
10005488:	0030      	movs	r0, r6
1000548a:	f000 fc15 	bl	10005cb8 <__wrap___aeabi_uidiv>
1000548e:	1c65      	adds	r5, r4, #1
10005490:	3130      	adds	r1, #48	; 0x30
10005492:	ab0c      	add	r3, sp, #48	; 0x30
10005494:	5519      	strb	r1, [r3, r4]
10005496:	210a      	movs	r1, #10
10005498:	0030      	movs	r0, r6
1000549a:	f000 fc0d 	bl	10005cb8 <__wrap___aeabi_uidiv>
1000549e:	2e09      	cmp	r6, #9
100054a0:	d90e      	bls.n	100054c0 <_ftoa+0x258>
100054a2:	0006      	movs	r6, r0
100054a4:	002c      	movs	r4, r5
100054a6:	e7eb      	b.n	10005480 <_ftoa+0x218>
100054a8:	4655      	mov	r5, sl
100054aa:	2c1f      	cmp	r4, #31
100054ac:	d80c      	bhi.n	100054c8 <_ftoa+0x260>
100054ae:	1e7b      	subs	r3, r7, #1
100054b0:	2f00      	cmp	r7, #0
100054b2:	d009      	beq.n	100054c8 <_ftoa+0x260>
100054b4:	aa0c      	add	r2, sp, #48	; 0x30
100054b6:	2130      	movs	r1, #48	; 0x30
100054b8:	5511      	strb	r1, [r2, r4]
100054ba:	001f      	movs	r7, r3
100054bc:	3401      	adds	r4, #1
100054be:	e7f4      	b.n	100054aa <_ftoa+0x242>
100054c0:	002b      	movs	r3, r5
100054c2:	4655      	mov	r5, sl
100054c4:	001c      	movs	r4, r3
100054c6:	e7f0      	b.n	100054aa <_ftoa+0x242>
100054c8:	2c1f      	cmp	r4, #31
100054ca:	d803      	bhi.n	100054d4 <_ftoa+0x26c>
100054cc:	ab0c      	add	r3, sp, #48	; 0x30
100054ce:	222e      	movs	r2, #46	; 0x2e
100054d0:	551a      	strb	r2, [r3, r4]
100054d2:	3401      	adds	r4, #1
100054d4:	2c1f      	cmp	r4, #31
100054d6:	d810      	bhi.n	100054fa <_ftoa+0x292>
100054d8:	210a      	movs	r1, #10
100054da:	0028      	movs	r0, r5
100054dc:	f000 fbc4 	bl	10005c68 <__wrap___aeabi_idiv>
100054e0:	1c66      	adds	r6, r4, #1
100054e2:	3130      	adds	r1, #48	; 0x30
100054e4:	ab0c      	add	r3, sp, #48	; 0x30
100054e6:	5519      	strb	r1, [r3, r4]
100054e8:	210a      	movs	r1, #10
100054ea:	0028      	movs	r0, r5
100054ec:	f000 fbbc 	bl	10005c68 <__wrap___aeabi_idiv>
100054f0:	1e05      	subs	r5, r0, #0
100054f2:	d001      	beq.n	100054f8 <_ftoa+0x290>
100054f4:	0034      	movs	r4, r6
100054f6:	e7ed      	b.n	100054d4 <_ftoa+0x26c>
100054f8:	0034      	movs	r4, r6
100054fa:	2303      	movs	r3, #3
100054fc:	9a22      	ldr	r2, [sp, #136]	; 0x88
100054fe:	4013      	ands	r3, r2
10005500:	2b01      	cmp	r3, #1
10005502:	d01c      	beq.n	1000553e <_ftoa+0x2d6>
10005504:	2c1f      	cmp	r4, #31
10005506:	d806      	bhi.n	10005516 <_ftoa+0x2ae>
10005508:	4643      	mov	r3, r8
1000550a:	2b00      	cmp	r3, #0
1000550c:	d032      	beq.n	10005574 <_ftoa+0x30c>
1000550e:	ab0c      	add	r3, sp, #48	; 0x30
10005510:	222d      	movs	r2, #45	; 0x2d
10005512:	551a      	strb	r2, [r3, r4]
10005514:	3401      	adds	r4, #1
10005516:	9b22      	ldr	r3, [sp, #136]	; 0x88
10005518:	9303      	str	r3, [sp, #12]
1000551a:	9b21      	ldr	r3, [sp, #132]	; 0x84
1000551c:	9302      	str	r3, [sp, #8]
1000551e:	9401      	str	r4, [sp, #4]
10005520:	ab0c      	add	r3, sp, #48	; 0x30
10005522:	9300      	str	r3, [sp, #0]
10005524:	464b      	mov	r3, r9
10005526:	465a      	mov	r2, fp
10005528:	9907      	ldr	r1, [sp, #28]
1000552a:	9806      	ldr	r0, [sp, #24]
1000552c:	f7ff fae2 	bl	10004af4 <_out_rev>
10005530:	b015      	add	sp, #84	; 0x54
10005532:	bcf0      	pop	{r4, r5, r6, r7}
10005534:	46bb      	mov	fp, r7
10005536:	46b2      	mov	sl, r6
10005538:	46a9      	mov	r9, r5
1000553a:	46a0      	mov	r8, r4
1000553c:	bdf0      	pop	{r4, r5, r6, r7, pc}
1000553e:	9b21      	ldr	r3, [sp, #132]	; 0x84
10005540:	2b00      	cmp	r3, #0
10005542:	d013      	beq.n	1000556c <_ftoa+0x304>
10005544:	4643      	mov	r3, r8
10005546:	2b00      	cmp	r3, #0
10005548:	d102      	bne.n	10005550 <_ftoa+0x2e8>
1000554a:	330c      	adds	r3, #12
1000554c:	4213      	tst	r3, r2
1000554e:	d00f      	beq.n	10005570 <_ftoa+0x308>
10005550:	9b21      	ldr	r3, [sp, #132]	; 0x84
10005552:	3b01      	subs	r3, #1
10005554:	9321      	str	r3, [sp, #132]	; 0x84
10005556:	0019      	movs	r1, r3
10005558:	e003      	b.n	10005562 <_ftoa+0x2fa>
1000555a:	ab0c      	add	r3, sp, #48	; 0x30
1000555c:	2230      	movs	r2, #48	; 0x30
1000555e:	551a      	strb	r2, [r3, r4]
10005560:	3401      	adds	r4, #1
10005562:	428c      	cmp	r4, r1
10005564:	d2ce      	bcs.n	10005504 <_ftoa+0x29c>
10005566:	2c1f      	cmp	r4, #31
10005568:	d9f7      	bls.n	1000555a <_ftoa+0x2f2>
1000556a:	e7cb      	b.n	10005504 <_ftoa+0x29c>
1000556c:	9921      	ldr	r1, [sp, #132]	; 0x84
1000556e:	e7f8      	b.n	10005562 <_ftoa+0x2fa>
10005570:	9921      	ldr	r1, [sp, #132]	; 0x84
10005572:	e7f6      	b.n	10005562 <_ftoa+0x2fa>
10005574:	9b22      	ldr	r3, [sp, #136]	; 0x88
10005576:	075b      	lsls	r3, r3, #29
10005578:	d504      	bpl.n	10005584 <_ftoa+0x31c>
1000557a:	ab0c      	add	r3, sp, #48	; 0x30
1000557c:	222b      	movs	r2, #43	; 0x2b
1000557e:	551a      	strb	r2, [r3, r4]
10005580:	3401      	adds	r4, #1
10005582:	e7c8      	b.n	10005516 <_ftoa+0x2ae>
10005584:	9b22      	ldr	r3, [sp, #136]	; 0x88
10005586:	071b      	lsls	r3, r3, #28
10005588:	d5c5      	bpl.n	10005516 <_ftoa+0x2ae>
1000558a:	ab0c      	add	r3, sp, #48	; 0x30
1000558c:	2220      	movs	r2, #32
1000558e:	551a      	strb	r2, [r3, r4]
10005590:	3401      	adds	r4, #1
10005592:	e7c0      	b.n	10005516 <_ftoa+0x2ae>
10005594:	ffefffff 	.word	0xffefffff
10005598:	7fefffff 	.word	0x7fefffff
1000559c:	41cdcd65 	.word	0x41cdcd65
100055a0:	c1cdcd65 	.word	0xc1cdcd65
100055a4:	1000bb70 	.word	0x1000bb70
100055a8:	1000bb74 	.word	0x1000bb74
100055ac:	1000bb68 	.word	0x1000bb68
100055b0:	1000bb64 	.word	0x1000bb64
100055b4:	1000bd60 	.word	0x1000bd60
100055b8:	3fe00000 	.word	0x3fe00000

100055bc <_vsnprintf>:
100055bc:	b5f0      	push	{r4, r5, r6, r7, lr}
100055be:	46de      	mov	lr, fp
100055c0:	4657      	mov	r7, sl
100055c2:	464e      	mov	r6, r9
100055c4:	4645      	mov	r5, r8
100055c6:	b5e0      	push	{r5, r6, r7, lr}
100055c8:	b093      	sub	sp, #76	; 0x4c
100055ca:	4682      	mov	sl, r0
100055cc:	468b      	mov	fp, r1
100055ce:	4690      	mov	r8, r2
100055d0:	9311      	str	r3, [sp, #68]	; 0x44
100055d2:	2900      	cmp	r1, #0
100055d4:	d100      	bne.n	100055d8 <_vsnprintf+0x1c>
100055d6:	e2eb      	b.n	10005bb0 <_vsnprintf+0x5f4>
100055d8:	2700      	movs	r7, #0
100055da:	4655      	mov	r5, sl
100055dc:	9b11      	ldr	r3, [sp, #68]	; 0x44
100055de:	7818      	ldrb	r0, [r3, #0]
100055e0:	2800      	cmp	r0, #0
100055e2:	d100      	bne.n	100055e6 <_vsnprintf+0x2a>
100055e4:	e2e7      	b.n	10005bb6 <_vsnprintf+0x5fa>
100055e6:	2825      	cmp	r0, #37	; 0x25
100055e8:	d009      	beq.n	100055fe <_vsnprintf+0x42>
100055ea:	1c7c      	adds	r4, r7, #1
100055ec:	4643      	mov	r3, r8
100055ee:	003a      	movs	r2, r7
100055f0:	4659      	mov	r1, fp
100055f2:	47a8      	blx	r5
100055f4:	9b11      	ldr	r3, [sp, #68]	; 0x44
100055f6:	3301      	adds	r3, #1
100055f8:	9311      	str	r3, [sp, #68]	; 0x44
100055fa:	0027      	movs	r7, r4
100055fc:	e7ee      	b.n	100055dc <_vsnprintf+0x20>
100055fe:	3301      	adds	r3, #1
10005600:	9311      	str	r3, [sp, #68]	; 0x44
10005602:	2400      	movs	r4, #0
10005604:	9a11      	ldr	r2, [sp, #68]	; 0x44
10005606:	7811      	ldrb	r1, [r2, #0]
10005608:	000b      	movs	r3, r1
1000560a:	3b20      	subs	r3, #32
1000560c:	b2d8      	uxtb	r0, r3
1000560e:	2810      	cmp	r0, #16
10005610:	d803      	bhi.n	1000561a <_vsnprintf+0x5e>
10005612:	0083      	lsls	r3, r0, #2
10005614:	48d0      	ldr	r0, [pc, #832]	; (10005958 <_vsnprintf+0x39c>)
10005616:	58c3      	ldr	r3, [r0, r3]
10005618:	469f      	mov	pc, r3
1000561a:	000b      	movs	r3, r1
1000561c:	3b30      	subs	r3, #48	; 0x30
1000561e:	b2db      	uxtb	r3, r3
10005620:	2b09      	cmp	r3, #9
10005622:	d92c      	bls.n	1000567e <_vsnprintf+0xc2>
10005624:	292a      	cmp	r1, #42	; 0x2a
10005626:	d02f      	beq.n	10005688 <_vsnprintf+0xcc>
10005628:	2300      	movs	r3, #0
1000562a:	930a      	str	r3, [sp, #40]	; 0x28
1000562c:	9b11      	ldr	r3, [sp, #68]	; 0x44
1000562e:	781a      	ldrb	r2, [r3, #0]
10005630:	2a2e      	cmp	r2, #46	; 0x2e
10005632:	d039      	beq.n	100056a8 <_vsnprintf+0xec>
10005634:	2300      	movs	r3, #0
10005636:	469a      	mov	sl, r3
10005638:	9a11      	ldr	r2, [sp, #68]	; 0x44
1000563a:	7813      	ldrb	r3, [r2, #0]
1000563c:	3b68      	subs	r3, #104	; 0x68
1000563e:	b2d9      	uxtb	r1, r3
10005640:	2912      	cmp	r1, #18
10005642:	d876      	bhi.n	10005732 <_vsnprintf+0x176>
10005644:	008b      	lsls	r3, r1, #2
10005646:	49c5      	ldr	r1, [pc, #788]	; (1000595c <_vsnprintf+0x3a0>)
10005648:	58cb      	ldr	r3, [r1, r3]
1000564a:	469f      	mov	pc, r3
1000564c:	2301      	movs	r3, #1
1000564e:	431c      	orrs	r4, r3
10005650:	3201      	adds	r2, #1
10005652:	9211      	str	r2, [sp, #68]	; 0x44
10005654:	e7d6      	b.n	10005604 <_vsnprintf+0x48>
10005656:	2302      	movs	r3, #2
10005658:	431c      	orrs	r4, r3
1000565a:	3201      	adds	r2, #1
1000565c:	9211      	str	r2, [sp, #68]	; 0x44
1000565e:	e7d1      	b.n	10005604 <_vsnprintf+0x48>
10005660:	2304      	movs	r3, #4
10005662:	431c      	orrs	r4, r3
10005664:	3201      	adds	r2, #1
10005666:	9211      	str	r2, [sp, #68]	; 0x44
10005668:	e7cc      	b.n	10005604 <_vsnprintf+0x48>
1000566a:	2308      	movs	r3, #8
1000566c:	431c      	orrs	r4, r3
1000566e:	3201      	adds	r2, #1
10005670:	9211      	str	r2, [sp, #68]	; 0x44
10005672:	e7c7      	b.n	10005604 <_vsnprintf+0x48>
10005674:	2310      	movs	r3, #16
10005676:	431c      	orrs	r4, r3
10005678:	3201      	adds	r2, #1
1000567a:	9211      	str	r2, [sp, #68]	; 0x44
1000567c:	e7c2      	b.n	10005604 <_vsnprintf+0x48>
1000567e:	a811      	add	r0, sp, #68	; 0x44
10005680:	f7ff fa26 	bl	10004ad0 <_atoi>
10005684:	900a      	str	r0, [sp, #40]	; 0x28
10005686:	e7d1      	b.n	1000562c <_vsnprintf+0x70>
10005688:	9b1c      	ldr	r3, [sp, #112]	; 0x70
1000568a:	1d1a      	adds	r2, r3, #4
1000568c:	921c      	str	r2, [sp, #112]	; 0x70
1000568e:	6818      	ldr	r0, [r3, #0]
10005690:	2800      	cmp	r0, #0
10005692:	db04      	blt.n	1000569e <_vsnprintf+0xe2>
10005694:	900a      	str	r0, [sp, #40]	; 0x28
10005696:	9b11      	ldr	r3, [sp, #68]	; 0x44
10005698:	3301      	adds	r3, #1
1000569a:	9311      	str	r3, [sp, #68]	; 0x44
1000569c:	e7c6      	b.n	1000562c <_vsnprintf+0x70>
1000569e:	2302      	movs	r3, #2
100056a0:	431c      	orrs	r4, r3
100056a2:	4243      	negs	r3, r0
100056a4:	930a      	str	r3, [sp, #40]	; 0x28
100056a6:	e7f6      	b.n	10005696 <_vsnprintf+0xda>
100056a8:	2280      	movs	r2, #128	; 0x80
100056aa:	00d2      	lsls	r2, r2, #3
100056ac:	4314      	orrs	r4, r2
100056ae:	1c5a      	adds	r2, r3, #1
100056b0:	9211      	str	r2, [sp, #68]	; 0x44
100056b2:	785a      	ldrb	r2, [r3, #1]
100056b4:	0013      	movs	r3, r2
100056b6:	3b30      	subs	r3, #48	; 0x30
100056b8:	b2db      	uxtb	r3, r3
100056ba:	2b09      	cmp	r3, #9
100056bc:	d904      	bls.n	100056c8 <_vsnprintf+0x10c>
100056be:	2a2a      	cmp	r2, #42	; 0x2a
100056c0:	d007      	beq.n	100056d2 <_vsnprintf+0x116>
100056c2:	2300      	movs	r3, #0
100056c4:	469a      	mov	sl, r3
100056c6:	e7b7      	b.n	10005638 <_vsnprintf+0x7c>
100056c8:	a811      	add	r0, sp, #68	; 0x44
100056ca:	f7ff fa01 	bl	10004ad0 <_atoi>
100056ce:	4682      	mov	sl, r0
100056d0:	e7b2      	b.n	10005638 <_vsnprintf+0x7c>
100056d2:	9b1c      	ldr	r3, [sp, #112]	; 0x70
100056d4:	1d1a      	adds	r2, r3, #4
100056d6:	921c      	str	r2, [sp, #112]	; 0x70
100056d8:	6818      	ldr	r0, [r3, #0]
100056da:	2800      	cmp	r0, #0
100056dc:	db04      	blt.n	100056e8 <_vsnprintf+0x12c>
100056de:	4682      	mov	sl, r0
100056e0:	9b11      	ldr	r3, [sp, #68]	; 0x44
100056e2:	3301      	adds	r3, #1
100056e4:	9311      	str	r3, [sp, #68]	; 0x44
100056e6:	e7a7      	b.n	10005638 <_vsnprintf+0x7c>
100056e8:	2000      	movs	r0, #0
100056ea:	e7f8      	b.n	100056de <_vsnprintf+0x122>
100056ec:	2380      	movs	r3, #128	; 0x80
100056ee:	005b      	lsls	r3, r3, #1
100056f0:	4323      	orrs	r3, r4
100056f2:	1c51      	adds	r1, r2, #1
100056f4:	9111      	str	r1, [sp, #68]	; 0x44
100056f6:	7852      	ldrb	r2, [r2, #1]
100056f8:	2a6c      	cmp	r2, #108	; 0x6c
100056fa:	d001      	beq.n	10005700 <_vsnprintf+0x144>
100056fc:	001c      	movs	r4, r3
100056fe:	e018      	b.n	10005732 <_vsnprintf+0x176>
10005700:	23c0      	movs	r3, #192	; 0xc0
10005702:	009b      	lsls	r3, r3, #2
10005704:	431c      	orrs	r4, r3
10005706:	3101      	adds	r1, #1
10005708:	9111      	str	r1, [sp, #68]	; 0x44
1000570a:	e012      	b.n	10005732 <_vsnprintf+0x176>
1000570c:	2380      	movs	r3, #128	; 0x80
1000570e:	4323      	orrs	r3, r4
10005710:	1c51      	adds	r1, r2, #1
10005712:	9111      	str	r1, [sp, #68]	; 0x44
10005714:	7852      	ldrb	r2, [r2, #1]
10005716:	2a68      	cmp	r2, #104	; 0x68
10005718:	d001      	beq.n	1000571e <_vsnprintf+0x162>
1000571a:	001c      	movs	r4, r3
1000571c:	e009      	b.n	10005732 <_vsnprintf+0x176>
1000571e:	23c0      	movs	r3, #192	; 0xc0
10005720:	431c      	orrs	r4, r3
10005722:	3101      	adds	r1, #1
10005724:	9111      	str	r1, [sp, #68]	; 0x44
10005726:	e004      	b.n	10005732 <_vsnprintf+0x176>
10005728:	2380      	movs	r3, #128	; 0x80
1000572a:	005b      	lsls	r3, r3, #1
1000572c:	431c      	orrs	r4, r3
1000572e:	3201      	adds	r2, #1
10005730:	9211      	str	r2, [sp, #68]	; 0x44
10005732:	9b11      	ldr	r3, [sp, #68]	; 0x44
10005734:	7818      	ldrb	r0, [r3, #0]
10005736:	0003      	movs	r3, r0
10005738:	3b25      	subs	r3, #37	; 0x25
1000573a:	b2da      	uxtb	r2, r3
1000573c:	2a53      	cmp	r2, #83	; 0x53
1000573e:	d900      	bls.n	10005742 <_vsnprintf+0x186>
10005740:	e22c      	b.n	10005b9c <_vsnprintf+0x5e0>
10005742:	0093      	lsls	r3, r2, #2
10005744:	4a86      	ldr	r2, [pc, #536]	; (10005960 <_vsnprintf+0x3a4>)
10005746:	58d3      	ldr	r3, [r2, r3]
10005748:	469f      	mov	pc, r3
1000574a:	2380      	movs	r3, #128	; 0x80
1000574c:	009b      	lsls	r3, r3, #2
1000574e:	431c      	orrs	r4, r3
10005750:	3201      	adds	r2, #1
10005752:	9211      	str	r2, [sp, #68]	; 0x44
10005754:	e7ed      	b.n	10005732 <_vsnprintf+0x176>
10005756:	2380      	movs	r3, #128	; 0x80
10005758:	005b      	lsls	r3, r3, #1
1000575a:	431c      	orrs	r4, r3
1000575c:	3201      	adds	r2, #1
1000575e:	9211      	str	r2, [sp, #68]	; 0x44
10005760:	e7e7      	b.n	10005732 <_vsnprintf+0x176>
10005762:	2878      	cmp	r0, #120	; 0x78
10005764:	d009      	beq.n	1000577a <_vsnprintf+0x1be>
10005766:	2858      	cmp	r0, #88	; 0x58
10005768:	d038      	beq.n	100057dc <_vsnprintf+0x220>
1000576a:	286f      	cmp	r0, #111	; 0x6f
1000576c:	d038      	beq.n	100057e0 <_vsnprintf+0x224>
1000576e:	2862      	cmp	r0, #98	; 0x62
10005770:	d038      	beq.n	100057e4 <_vsnprintf+0x228>
10005772:	2310      	movs	r3, #16
10005774:	439c      	bics	r4, r3
10005776:	260a      	movs	r6, #10
10005778:	e000      	b.n	1000577c <_vsnprintf+0x1c0>
1000577a:	2610      	movs	r6, #16
1000577c:	2858      	cmp	r0, #88	; 0x58
1000577e:	d033      	beq.n	100057e8 <_vsnprintf+0x22c>
10005780:	2869      	cmp	r0, #105	; 0x69
10005782:	d003      	beq.n	1000578c <_vsnprintf+0x1d0>
10005784:	2864      	cmp	r0, #100	; 0x64
10005786:	d001      	beq.n	1000578c <_vsnprintf+0x1d0>
10005788:	220c      	movs	r2, #12
1000578a:	4394      	bics	r4, r2
1000578c:	0563      	lsls	r3, r4, #21
1000578e:	d501      	bpl.n	10005794 <_vsnprintf+0x1d8>
10005790:	2201      	movs	r2, #1
10005792:	4394      	bics	r4, r2
10005794:	2869      	cmp	r0, #105	; 0x69
10005796:	d02a      	beq.n	100057ee <_vsnprintf+0x232>
10005798:	2864      	cmp	r0, #100	; 0x64
1000579a:	d028      	beq.n	100057ee <_vsnprintf+0x232>
1000579c:	05a3      	lsls	r3, r4, #22
1000579e:	d500      	bpl.n	100057a2 <_vsnprintf+0x1e6>
100057a0:	e09f      	b.n	100058e2 <_vsnprintf+0x326>
100057a2:	05e3      	lsls	r3, r4, #23
100057a4:	d500      	bpl.n	100057a8 <_vsnprintf+0x1ec>
100057a6:	e0b8      	b.n	1000591a <_vsnprintf+0x35e>
100057a8:	0663      	lsls	r3, r4, #25
100057aa:	d400      	bmi.n	100057ae <_vsnprintf+0x1f2>
100057ac:	e0ca      	b.n	10005944 <_vsnprintf+0x388>
100057ae:	9a1c      	ldr	r2, [sp, #112]	; 0x70
100057b0:	1d11      	adds	r1, r2, #4
100057b2:	911c      	str	r1, [sp, #112]	; 0x70
100057b4:	6811      	ldr	r1, [r2, #0]
100057b6:	22ff      	movs	r2, #255	; 0xff
100057b8:	400a      	ands	r2, r1
100057ba:	9405      	str	r4, [sp, #20]
100057bc:	9b0a      	ldr	r3, [sp, #40]	; 0x28
100057be:	9304      	str	r3, [sp, #16]
100057c0:	4653      	mov	r3, sl
100057c2:	9303      	str	r3, [sp, #12]
100057c4:	9602      	str	r6, [sp, #8]
100057c6:	2300      	movs	r3, #0
100057c8:	9301      	str	r3, [sp, #4]
100057ca:	9200      	str	r2, [sp, #0]
100057cc:	4643      	mov	r3, r8
100057ce:	003a      	movs	r2, r7
100057d0:	4659      	mov	r1, fp
100057d2:	0028      	movs	r0, r5
100057d4:	f7ff fa6e 	bl	10004cb4 <_ntoa_long>
100057d8:	0007      	movs	r7, r0
100057da:	e027      	b.n	1000582c <_vsnprintf+0x270>
100057dc:	2610      	movs	r6, #16
100057de:	e7cd      	b.n	1000577c <_vsnprintf+0x1c0>
100057e0:	2608      	movs	r6, #8
100057e2:	e7cb      	b.n	1000577c <_vsnprintf+0x1c0>
100057e4:	2602      	movs	r6, #2
100057e6:	e7c9      	b.n	1000577c <_vsnprintf+0x1c0>
100057e8:	2220      	movs	r2, #32
100057ea:	4314      	orrs	r4, r2
100057ec:	e7c8      	b.n	10005780 <_vsnprintf+0x1c4>
100057ee:	05a3      	lsls	r3, r4, #22
100057f0:	d420      	bmi.n	10005834 <_vsnprintf+0x278>
100057f2:	05e3      	lsls	r3, r4, #23
100057f4:	d450      	bmi.n	10005898 <_vsnprintf+0x2dc>
100057f6:	0663      	lsls	r3, r4, #25
100057f8:	d566      	bpl.n	100058c8 <_vsnprintf+0x30c>
100057fa:	9a1c      	ldr	r2, [sp, #112]	; 0x70
100057fc:	1d11      	adds	r1, r2, #4
100057fe:	911c      	str	r1, [sp, #112]	; 0x70
10005800:	6811      	ldr	r1, [r2, #0]
10005802:	22ff      	movs	r2, #255	; 0xff
10005804:	400a      	ands	r2, r1
10005806:	17d3      	asrs	r3, r2, #31
10005808:	18d1      	adds	r1, r2, r3
1000580a:	4059      	eors	r1, r3
1000580c:	9405      	str	r4, [sp, #20]
1000580e:	9b0a      	ldr	r3, [sp, #40]	; 0x28
10005810:	9304      	str	r3, [sp, #16]
10005812:	4653      	mov	r3, sl
10005814:	9303      	str	r3, [sp, #12]
10005816:	9602      	str	r6, [sp, #8]
10005818:	0fd2      	lsrs	r2, r2, #31
1000581a:	9201      	str	r2, [sp, #4]
1000581c:	9100      	str	r1, [sp, #0]
1000581e:	4643      	mov	r3, r8
10005820:	003a      	movs	r2, r7
10005822:	4659      	mov	r1, fp
10005824:	0028      	movs	r0, r5
10005826:	f7ff fa45 	bl	10004cb4 <_ntoa_long>
1000582a:	0007      	movs	r7, r0
1000582c:	9b11      	ldr	r3, [sp, #68]	; 0x44
1000582e:	3301      	adds	r3, #1
10005830:	9311      	str	r3, [sp, #68]	; 0x44
10005832:	e6d3      	b.n	100055dc <_vsnprintf+0x20>
10005834:	9b1c      	ldr	r3, [sp, #112]	; 0x70
10005836:	1dda      	adds	r2, r3, #7
10005838:	2107      	movs	r1, #7
1000583a:	438a      	bics	r2, r1
1000583c:	0011      	movs	r1, r2
1000583e:	3108      	adds	r1, #8
10005840:	911c      	str	r1, [sp, #112]	; 0x70
10005842:	6811      	ldr	r1, [r2, #0]
10005844:	6853      	ldr	r3, [r2, #4]
10005846:	469c      	mov	ip, r3
10005848:	17db      	asrs	r3, r3, #31
1000584a:	930c      	str	r3, [sp, #48]	; 0x30
1000584c:	930d      	str	r3, [sp, #52]	; 0x34
1000584e:	9a0c      	ldr	r2, [sp, #48]	; 0x30
10005850:	9b0d      	ldr	r3, [sp, #52]	; 0x34
10005852:	0010      	movs	r0, r2
10005854:	4048      	eors	r0, r1
10005856:	900e      	str	r0, [sp, #56]	; 0x38
10005858:	4662      	mov	r2, ip
1000585a:	4053      	eors	r3, r2
1000585c:	930f      	str	r3, [sp, #60]	; 0x3c
1000585e:	980e      	ldr	r0, [sp, #56]	; 0x38
10005860:	990f      	ldr	r1, [sp, #60]	; 0x3c
10005862:	9a0c      	ldr	r2, [sp, #48]	; 0x30
10005864:	9b0d      	ldr	r3, [sp, #52]	; 0x34
10005866:	1a80      	subs	r0, r0, r2
10005868:	4199      	sbcs	r1, r3
1000586a:	900e      	str	r0, [sp, #56]	; 0x38
1000586c:	910f      	str	r1, [sp, #60]	; 0x3c
1000586e:	9408      	str	r4, [sp, #32]
10005870:	9b0a      	ldr	r3, [sp, #40]	; 0x28
10005872:	9307      	str	r3, [sp, #28]
10005874:	4653      	mov	r3, sl
10005876:	9306      	str	r3, [sp, #24]
10005878:	9604      	str	r6, [sp, #16]
1000587a:	2300      	movs	r3, #0
1000587c:	9305      	str	r3, [sp, #20]
1000587e:	4663      	mov	r3, ip
10005880:	0fda      	lsrs	r2, r3, #31
10005882:	9202      	str	r2, [sp, #8]
10005884:	9000      	str	r0, [sp, #0]
10005886:	9101      	str	r1, [sp, #4]
10005888:	4643      	mov	r3, r8
1000588a:	003a      	movs	r2, r7
1000588c:	4659      	mov	r1, fp
1000588e:	0028      	movs	r0, r5
10005890:	f7ff fa6e 	bl	10004d70 <_ntoa_long_long>
10005894:	0007      	movs	r7, r0
10005896:	e7c9      	b.n	1000582c <_vsnprintf+0x270>
10005898:	9a1c      	ldr	r2, [sp, #112]	; 0x70
1000589a:	1d11      	adds	r1, r2, #4
1000589c:	911c      	str	r1, [sp, #112]	; 0x70
1000589e:	6812      	ldr	r2, [r2, #0]
100058a0:	17d3      	asrs	r3, r2, #31
100058a2:	18d1      	adds	r1, r2, r3
100058a4:	4059      	eors	r1, r3
100058a6:	9405      	str	r4, [sp, #20]
100058a8:	9b0a      	ldr	r3, [sp, #40]	; 0x28
100058aa:	9304      	str	r3, [sp, #16]
100058ac:	4653      	mov	r3, sl
100058ae:	9303      	str	r3, [sp, #12]
100058b0:	9602      	str	r6, [sp, #8]
100058b2:	0fd2      	lsrs	r2, r2, #31
100058b4:	9201      	str	r2, [sp, #4]
100058b6:	9100      	str	r1, [sp, #0]
100058b8:	4643      	mov	r3, r8
100058ba:	003a      	movs	r2, r7
100058bc:	4659      	mov	r1, fp
100058be:	0028      	movs	r0, r5
100058c0:	f7ff f9f8 	bl	10004cb4 <_ntoa_long>
100058c4:	0007      	movs	r7, r0
100058c6:	e7b1      	b.n	1000582c <_vsnprintf+0x270>
100058c8:	0623      	lsls	r3, r4, #24
100058ca:	d505      	bpl.n	100058d8 <_vsnprintf+0x31c>
100058cc:	9a1c      	ldr	r2, [sp, #112]	; 0x70
100058ce:	1d11      	adds	r1, r2, #4
100058d0:	911c      	str	r1, [sp, #112]	; 0x70
100058d2:	2300      	movs	r3, #0
100058d4:	5ed2      	ldrsh	r2, [r2, r3]
100058d6:	e796      	b.n	10005806 <_vsnprintf+0x24a>
100058d8:	9a1c      	ldr	r2, [sp, #112]	; 0x70
100058da:	1d11      	adds	r1, r2, #4
100058dc:	911c      	str	r1, [sp, #112]	; 0x70
100058de:	6812      	ldr	r2, [r2, #0]
100058e0:	e791      	b.n	10005806 <_vsnprintf+0x24a>
100058e2:	9b1c      	ldr	r3, [sp, #112]	; 0x70
100058e4:	1dda      	adds	r2, r3, #7
100058e6:	2107      	movs	r1, #7
100058e8:	438a      	bics	r2, r1
100058ea:	0011      	movs	r1, r2
100058ec:	3108      	adds	r1, #8
100058ee:	911c      	str	r1, [sp, #112]	; 0x70
100058f0:	9408      	str	r4, [sp, #32]
100058f2:	9b0a      	ldr	r3, [sp, #40]	; 0x28
100058f4:	9307      	str	r3, [sp, #28]
100058f6:	4653      	mov	r3, sl
100058f8:	9306      	str	r3, [sp, #24]
100058fa:	9604      	str	r6, [sp, #16]
100058fc:	2300      	movs	r3, #0
100058fe:	9305      	str	r3, [sp, #20]
10005900:	9302      	str	r3, [sp, #8]
10005902:	6813      	ldr	r3, [r2, #0]
10005904:	6854      	ldr	r4, [r2, #4]
10005906:	9300      	str	r3, [sp, #0]
10005908:	9401      	str	r4, [sp, #4]
1000590a:	4643      	mov	r3, r8
1000590c:	003a      	movs	r2, r7
1000590e:	4659      	mov	r1, fp
10005910:	0028      	movs	r0, r5
10005912:	f7ff fa2d 	bl	10004d70 <_ntoa_long_long>
10005916:	0007      	movs	r7, r0
10005918:	e788      	b.n	1000582c <_vsnprintf+0x270>
1000591a:	9a1c      	ldr	r2, [sp, #112]	; 0x70
1000591c:	1d11      	adds	r1, r2, #4
1000591e:	911c      	str	r1, [sp, #112]	; 0x70
10005920:	9405      	str	r4, [sp, #20]
10005922:	9b0a      	ldr	r3, [sp, #40]	; 0x28
10005924:	9304      	str	r3, [sp, #16]
10005926:	4653      	mov	r3, sl
10005928:	9303      	str	r3, [sp, #12]
1000592a:	9602      	str	r6, [sp, #8]
1000592c:	2300      	movs	r3, #0
1000592e:	9301      	str	r3, [sp, #4]
10005930:	6813      	ldr	r3, [r2, #0]
10005932:	9300      	str	r3, [sp, #0]
10005934:	4643      	mov	r3, r8
10005936:	003a      	movs	r2, r7
10005938:	4659      	mov	r1, fp
1000593a:	0028      	movs	r0, r5
1000593c:	f7ff f9ba 	bl	10004cb4 <_ntoa_long>
10005940:	0007      	movs	r7, r0
10005942:	e773      	b.n	1000582c <_vsnprintf+0x270>
10005944:	0623      	lsls	r3, r4, #24
10005946:	d50d      	bpl.n	10005964 <_vsnprintf+0x3a8>
10005948:	9a1c      	ldr	r2, [sp, #112]	; 0x70
1000594a:	1d11      	adds	r1, r2, #4
1000594c:	911c      	str	r1, [sp, #112]	; 0x70
1000594e:	6812      	ldr	r2, [r2, #0]
10005950:	0412      	lsls	r2, r2, #16
10005952:	0c12      	lsrs	r2, r2, #16
10005954:	e731      	b.n	100057ba <_vsnprintf+0x1fe>
10005956:	46c0      	nop			; (mov r8, r8)
10005958:	1000bb7c 	.word	0x1000bb7c
1000595c:	1000bbc0 	.word	0x1000bbc0
10005960:	1000bc0c 	.word	0x1000bc0c
10005964:	9a1c      	ldr	r2, [sp, #112]	; 0x70
10005966:	1d11      	adds	r1, r2, #4
10005968:	911c      	str	r1, [sp, #112]	; 0x70
1000596a:	6812      	ldr	r2, [r2, #0]
1000596c:	e725      	b.n	100057ba <_vsnprintf+0x1fe>
1000596e:	2846      	cmp	r0, #70	; 0x46
10005970:	d01a      	beq.n	100059a8 <_vsnprintf+0x3ec>
10005972:	9b1c      	ldr	r3, [sp, #112]	; 0x70
10005974:	3307      	adds	r3, #7
10005976:	2207      	movs	r2, #7
10005978:	4393      	bics	r3, r2
1000597a:	001a      	movs	r2, r3
1000597c:	3208      	adds	r2, #8
1000597e:	921c      	str	r2, [sp, #112]	; 0x70
10005980:	9404      	str	r4, [sp, #16]
10005982:	9a0a      	ldr	r2, [sp, #40]	; 0x28
10005984:	9203      	str	r2, [sp, #12]
10005986:	4652      	mov	r2, sl
10005988:	9202      	str	r2, [sp, #8]
1000598a:	685c      	ldr	r4, [r3, #4]
1000598c:	681b      	ldr	r3, [r3, #0]
1000598e:	9300      	str	r3, [sp, #0]
10005990:	9401      	str	r4, [sp, #4]
10005992:	4643      	mov	r3, r8
10005994:	003a      	movs	r2, r7
10005996:	4659      	mov	r1, fp
10005998:	0028      	movs	r0, r5
1000599a:	f7ff fc65 	bl	10005268 <_ftoa>
1000599e:	0007      	movs	r7, r0
100059a0:	9b11      	ldr	r3, [sp, #68]	; 0x44
100059a2:	3301      	adds	r3, #1
100059a4:	9311      	str	r3, [sp, #68]	; 0x44
100059a6:	e619      	b.n	100055dc <_vsnprintf+0x20>
100059a8:	2320      	movs	r3, #32
100059aa:	431c      	orrs	r4, r3
100059ac:	e7e1      	b.n	10005972 <_vsnprintf+0x3b6>
100059ae:	2867      	cmp	r0, #103	; 0x67
100059b0:	d001      	beq.n	100059b6 <_vsnprintf+0x3fa>
100059b2:	2847      	cmp	r0, #71	; 0x47
100059b4:	d102      	bne.n	100059bc <_vsnprintf+0x400>
100059b6:	2380      	movs	r3, #128	; 0x80
100059b8:	011b      	lsls	r3, r3, #4
100059ba:	431c      	orrs	r4, r3
100059bc:	2845      	cmp	r0, #69	; 0x45
100059be:	d001      	beq.n	100059c4 <_vsnprintf+0x408>
100059c0:	2847      	cmp	r0, #71	; 0x47
100059c2:	d101      	bne.n	100059c8 <_vsnprintf+0x40c>
100059c4:	2320      	movs	r3, #32
100059c6:	431c      	orrs	r4, r3
100059c8:	9b1c      	ldr	r3, [sp, #112]	; 0x70
100059ca:	3307      	adds	r3, #7
100059cc:	2207      	movs	r2, #7
100059ce:	4393      	bics	r3, r2
100059d0:	001a      	movs	r2, r3
100059d2:	3208      	adds	r2, #8
100059d4:	921c      	str	r2, [sp, #112]	; 0x70
100059d6:	9404      	str	r4, [sp, #16]
100059d8:	9a0a      	ldr	r2, [sp, #40]	; 0x28
100059da:	9203      	str	r2, [sp, #12]
100059dc:	4652      	mov	r2, sl
100059de:	9202      	str	r2, [sp, #8]
100059e0:	685c      	ldr	r4, [r3, #4]
100059e2:	681b      	ldr	r3, [r3, #0]
100059e4:	9300      	str	r3, [sp, #0]
100059e6:	9401      	str	r4, [sp, #4]
100059e8:	4643      	mov	r3, r8
100059ea:	003a      	movs	r2, r7
100059ec:	4659      	mov	r1, fp
100059ee:	0028      	movs	r0, r5
100059f0:	f7ff fa30 	bl	10004e54 <_etoa>
100059f4:	0007      	movs	r7, r0
100059f6:	9b11      	ldr	r3, [sp, #68]	; 0x44
100059f8:	3301      	adds	r3, #1
100059fa:	9311      	str	r3, [sp, #68]	; 0x44
100059fc:	e5ee      	b.n	100055dc <_vsnprintf+0x20>
100059fe:	2302      	movs	r3, #2
10005a00:	001a      	movs	r2, r3
10005a02:	4022      	ands	r2, r4
10005a04:	4692      	mov	sl, r2
10005a06:	4223      	tst	r3, r4
10005a08:	d01f      	beq.n	10005a4a <_vsnprintf+0x48e>
10005a0a:	2401      	movs	r4, #1
10005a0c:	9b1c      	ldr	r3, [sp, #112]	; 0x70
10005a0e:	1d1a      	adds	r2, r3, #4
10005a10:	921c      	str	r2, [sp, #112]	; 0x70
10005a12:	1c7a      	adds	r2, r7, #1
10005a14:	4691      	mov	r9, r2
10005a16:	7818      	ldrb	r0, [r3, #0]
10005a18:	4643      	mov	r3, r8
10005a1a:	003a      	movs	r2, r7
10005a1c:	4659      	mov	r1, fp
10005a1e:	47a8      	blx	r5
10005a20:	4653      	mov	r3, sl
10005a22:	2b00      	cmp	r3, #0
10005a24:	d116      	bne.n	10005a54 <_vsnprintf+0x498>
10005a26:	9b11      	ldr	r3, [sp, #68]	; 0x44
10005a28:	3301      	adds	r3, #1
10005a2a:	9311      	str	r3, [sp, #68]	; 0x44
10005a2c:	464f      	mov	r7, r9
10005a2e:	e5d5      	b.n	100055dc <_vsnprintf+0x20>
10005a30:	1c56      	adds	r6, r2, #1
10005a32:	4643      	mov	r3, r8
10005a34:	4659      	mov	r1, fp
10005a36:	2020      	movs	r0, #32
10005a38:	47b8      	blx	r7
10005a3a:	0023      	movs	r3, r4
10005a3c:	0032      	movs	r2, r6
10005a3e:	1c5c      	adds	r4, r3, #1
10005a40:	429d      	cmp	r5, r3
10005a42:	d8f5      	bhi.n	10005a30 <_vsnprintf+0x474>
10005a44:	003d      	movs	r5, r7
10005a46:	0017      	movs	r7, r2
10005a48:	e7e0      	b.n	10005a0c <_vsnprintf+0x450>
10005a4a:	2301      	movs	r3, #1
10005a4c:	003a      	movs	r2, r7
10005a4e:	002f      	movs	r7, r5
10005a50:	9d0a      	ldr	r5, [sp, #40]	; 0x28
10005a52:	e7f4      	b.n	10005a3e <_vsnprintf+0x482>
10005a54:	464a      	mov	r2, r9
10005a56:	46a9      	mov	r9, r5
10005a58:	9d0a      	ldr	r5, [sp, #40]	; 0x28
10005a5a:	e006      	b.n	10005a6a <_vsnprintf+0x4ae>
10005a5c:	1c57      	adds	r7, r2, #1
10005a5e:	4643      	mov	r3, r8
10005a60:	4659      	mov	r1, fp
10005a62:	2020      	movs	r0, #32
10005a64:	47c8      	blx	r9
10005a66:	0034      	movs	r4, r6
10005a68:	003a      	movs	r2, r7
10005a6a:	1c66      	adds	r6, r4, #1
10005a6c:	42a5      	cmp	r5, r4
10005a6e:	d8f5      	bhi.n	10005a5c <_vsnprintf+0x4a0>
10005a70:	464d      	mov	r5, r9
10005a72:	4691      	mov	r9, r2
10005a74:	e7d7      	b.n	10005a26 <_vsnprintf+0x46a>
10005a76:	9b1c      	ldr	r3, [sp, #112]	; 0x70
10005a78:	1d1a      	adds	r2, r3, #4
10005a7a:	921c      	str	r2, [sp, #112]	; 0x70
10005a7c:	681b      	ldr	r3, [r3, #0]
10005a7e:	4699      	mov	r9, r3
10005a80:	4653      	mov	r3, sl
10005a82:	2b00      	cmp	r3, #0
10005a84:	d100      	bne.n	10005a88 <_vsnprintf+0x4cc>
10005a86:	3b01      	subs	r3, #1
10005a88:	464e      	mov	r6, r9
10005a8a:	e001      	b.n	10005a90 <_vsnprintf+0x4d4>
10005a8c:	3601      	adds	r6, #1
10005a8e:	0013      	movs	r3, r2
10005a90:	7832      	ldrb	r2, [r6, #0]
10005a92:	2a00      	cmp	r2, #0
10005a94:	d002      	beq.n	10005a9c <_vsnprintf+0x4e0>
10005a96:	1e5a      	subs	r2, r3, #1
10005a98:	2b00      	cmp	r3, #0
10005a9a:	d1f7      	bne.n	10005a8c <_vsnprintf+0x4d0>
10005a9c:	464b      	mov	r3, r9
10005a9e:	1af2      	subs	r2, r6, r3
10005aa0:	9210      	str	r2, [sp, #64]	; 0x40
10005aa2:	2380      	movs	r3, #128	; 0x80
10005aa4:	00db      	lsls	r3, r3, #3
10005aa6:	0026      	movs	r6, r4
10005aa8:	401e      	ands	r6, r3
10005aaa:	421c      	tst	r4, r3
10005aac:	d003      	beq.n	10005ab6 <_vsnprintf+0x4fa>
10005aae:	4552      	cmp	r2, sl
10005ab0:	d901      	bls.n	10005ab6 <_vsnprintf+0x4fa>
10005ab2:	4653      	mov	r3, sl
10005ab4:	9310      	str	r3, [sp, #64]	; 0x40
10005ab6:	2302      	movs	r3, #2
10005ab8:	001a      	movs	r2, r3
10005aba:	4022      	ands	r2, r4
10005abc:	920b      	str	r2, [sp, #44]	; 0x2c
10005abe:	4223      	tst	r3, r4
10005ac0:	d005      	beq.n	10005ace <_vsnprintf+0x512>
10005ac2:	003a      	movs	r2, r7
10005ac4:	0037      	movs	r7, r6
10005ac6:	464c      	mov	r4, r9
10005ac8:	46a9      	mov	r9, r5
10005aca:	4655      	mov	r5, sl
10005acc:	e020      	b.n	10005b10 <_vsnprintf+0x554>
10005ace:	003a      	movs	r2, r7
10005ad0:	9b10      	ldr	r3, [sp, #64]	; 0x40
10005ad2:	465f      	mov	r7, fp
10005ad4:	46b3      	mov	fp, r6
10005ad6:	002e      	movs	r6, r5
10005ad8:	e006      	b.n	10005ae8 <_vsnprintf+0x52c>
10005ada:	1c55      	adds	r5, r2, #1
10005adc:	4643      	mov	r3, r8
10005ade:	0039      	movs	r1, r7
10005ae0:	2020      	movs	r0, #32
10005ae2:	47b0      	blx	r6
10005ae4:	0023      	movs	r3, r4
10005ae6:	002a      	movs	r2, r5
10005ae8:	1c5c      	adds	r4, r3, #1
10005aea:	990a      	ldr	r1, [sp, #40]	; 0x28
10005aec:	4299      	cmp	r1, r3
10005aee:	d8f4      	bhi.n	10005ada <_vsnprintf+0x51e>
10005af0:	0035      	movs	r5, r6
10005af2:	465e      	mov	r6, fp
10005af4:	46bb      	mov	fp, r7
10005af6:	9410      	str	r4, [sp, #64]	; 0x40
10005af8:	0037      	movs	r7, r6
10005afa:	464c      	mov	r4, r9
10005afc:	46a9      	mov	r9, r5
10005afe:	4655      	mov	r5, sl
10005b00:	e006      	b.n	10005b10 <_vsnprintf+0x554>
10005b02:	001d      	movs	r5, r3
10005b04:	3401      	adds	r4, #1
10005b06:	1c56      	adds	r6, r2, #1
10005b08:	4643      	mov	r3, r8
10005b0a:	4659      	mov	r1, fp
10005b0c:	47c8      	blx	r9
10005b0e:	0032      	movs	r2, r6
10005b10:	7820      	ldrb	r0, [r4, #0]
10005b12:	2800      	cmp	r0, #0
10005b14:	d004      	beq.n	10005b20 <_vsnprintf+0x564>
10005b16:	2f00      	cmp	r7, #0
10005b18:	d0f4      	beq.n	10005b04 <_vsnprintf+0x548>
10005b1a:	1e6b      	subs	r3, r5, #1
10005b1c:	2d00      	cmp	r5, #0
10005b1e:	d1f0      	bne.n	10005b02 <_vsnprintf+0x546>
10005b20:	0017      	movs	r7, r2
10005b22:	464d      	mov	r5, r9
10005b24:	9b0b      	ldr	r3, [sp, #44]	; 0x2c
10005b26:	2b00      	cmp	r3, #0
10005b28:	d103      	bne.n	10005b32 <_vsnprintf+0x576>
10005b2a:	9b11      	ldr	r3, [sp, #68]	; 0x44
10005b2c:	3301      	adds	r3, #1
10005b2e:	9311      	str	r3, [sp, #68]	; 0x44
10005b30:	e554      	b.n	100055dc <_vsnprintf+0x20>
10005b32:	9f0a      	ldr	r7, [sp, #40]	; 0x28
10005b34:	9b10      	ldr	r3, [sp, #64]	; 0x40
10005b36:	e006      	b.n	10005b46 <_vsnprintf+0x58a>
10005b38:	1c56      	adds	r6, r2, #1
10005b3a:	4643      	mov	r3, r8
10005b3c:	4659      	mov	r1, fp
10005b3e:	2020      	movs	r0, #32
10005b40:	47a8      	blx	r5
10005b42:	0023      	movs	r3, r4
10005b44:	0032      	movs	r2, r6
10005b46:	1c5c      	adds	r4, r3, #1
10005b48:	429f      	cmp	r7, r3
10005b4a:	d8f5      	bhi.n	10005b38 <_vsnprintf+0x57c>
10005b4c:	0017      	movs	r7, r2
10005b4e:	e7ec      	b.n	10005b2a <_vsnprintf+0x56e>
10005b50:	2321      	movs	r3, #33	; 0x21
10005b52:	431c      	orrs	r4, r3
10005b54:	9b1c      	ldr	r3, [sp, #112]	; 0x70
10005b56:	1d1a      	adds	r2, r3, #4
10005b58:	921c      	str	r2, [sp, #112]	; 0x70
10005b5a:	681b      	ldr	r3, [r3, #0]
10005b5c:	9300      	str	r3, [sp, #0]
10005b5e:	9405      	str	r4, [sp, #20]
10005b60:	2308      	movs	r3, #8
10005b62:	9304      	str	r3, [sp, #16]
10005b64:	4653      	mov	r3, sl
10005b66:	9303      	str	r3, [sp, #12]
10005b68:	2310      	movs	r3, #16
10005b6a:	9302      	str	r3, [sp, #8]
10005b6c:	2300      	movs	r3, #0
10005b6e:	9301      	str	r3, [sp, #4]
10005b70:	4643      	mov	r3, r8
10005b72:	003a      	movs	r2, r7
10005b74:	4659      	mov	r1, fp
10005b76:	0028      	movs	r0, r5
10005b78:	f7ff f89c 	bl	10004cb4 <_ntoa_long>
10005b7c:	0007      	movs	r7, r0
10005b7e:	9b11      	ldr	r3, [sp, #68]	; 0x44
10005b80:	3301      	adds	r3, #1
10005b82:	9311      	str	r3, [sp, #68]	; 0x44
10005b84:	e52a      	b.n	100055dc <_vsnprintf+0x20>
10005b86:	1c7c      	adds	r4, r7, #1
10005b88:	4643      	mov	r3, r8
10005b8a:	003a      	movs	r2, r7
10005b8c:	4659      	mov	r1, fp
10005b8e:	2025      	movs	r0, #37	; 0x25
10005b90:	47a8      	blx	r5
10005b92:	9b11      	ldr	r3, [sp, #68]	; 0x44
10005b94:	3301      	adds	r3, #1
10005b96:	9311      	str	r3, [sp, #68]	; 0x44
10005b98:	0027      	movs	r7, r4
10005b9a:	e51f      	b.n	100055dc <_vsnprintf+0x20>
10005b9c:	1c7c      	adds	r4, r7, #1
10005b9e:	4643      	mov	r3, r8
10005ba0:	003a      	movs	r2, r7
10005ba2:	4659      	mov	r1, fp
10005ba4:	47a8      	blx	r5
10005ba6:	9b11      	ldr	r3, [sp, #68]	; 0x44
10005ba8:	3301      	adds	r3, #1
10005baa:	9311      	str	r3, [sp, #68]	; 0x44
10005bac:	0027      	movs	r7, r4
10005bae:	e515      	b.n	100055dc <_vsnprintf+0x20>
10005bb0:	4b0a      	ldr	r3, [pc, #40]	; (10005bdc <_vsnprintf+0x620>)
10005bb2:	469a      	mov	sl, r3
10005bb4:	e510      	b.n	100055d8 <_vsnprintf+0x1c>
10005bb6:	46aa      	mov	sl, r5
10005bb8:	4547      	cmp	r7, r8
10005bba:	d302      	bcc.n	10005bc2 <_vsnprintf+0x606>
10005bbc:	4643      	mov	r3, r8
10005bbe:	1e5a      	subs	r2, r3, #1
10005bc0:	e000      	b.n	10005bc4 <_vsnprintf+0x608>
10005bc2:	003a      	movs	r2, r7
10005bc4:	4643      	mov	r3, r8
10005bc6:	4659      	mov	r1, fp
10005bc8:	2000      	movs	r0, #0
10005bca:	47d0      	blx	sl
10005bcc:	0038      	movs	r0, r7
10005bce:	b013      	add	sp, #76	; 0x4c
10005bd0:	bcf0      	pop	{r4, r5, r6, r7}
10005bd2:	46bb      	mov	fp, r7
10005bd4:	46b2      	mov	sl, r6
10005bd6:	46a9      	mov	r9, r5
10005bd8:	46a0      	mov	r8, r4
10005bda:	bdf0      	pop	{r4, r5, r6, r7, pc}
10005bdc:	10004ac1 	.word	0x10004ac1

10005be0 <vfctprintf>:
10005be0:	b500      	push	{lr}
10005be2:	b085      	sub	sp, #20
10005be4:	9002      	str	r0, [sp, #8]
10005be6:	9103      	str	r1, [sp, #12]
10005be8:	2101      	movs	r1, #1
10005bea:	9300      	str	r3, [sp, #0]
10005bec:	0013      	movs	r3, r2
10005bee:	424a      	negs	r2, r1
10005bf0:	a902      	add	r1, sp, #8
10005bf2:	4802      	ldr	r0, [pc, #8]	; (10005bfc <vfctprintf+0x1c>)
10005bf4:	f7ff fce2 	bl	100055bc <_vsnprintf>
10005bf8:	b005      	add	sp, #20
10005bfa:	bd00      	pop	{pc}
10005bfc:	10004ac3 	.word	0x10004ac3

10005c00 <__aeabi_bits_init>:
10005c00:	4801      	ldr	r0, [pc, #4]	; (10005c08 <__aeabi_bits_init+0x8>)
10005c02:	2104      	movs	r1, #4
10005c04:	4b01      	ldr	r3, [pc, #4]	; (10005c0c <__aeabi_bits_init+0xc>)
10005c06:	4718      	bx	r3
10005c08:	200004b0 	.word	0x200004b0
10005c0c:	10005c31 	.word	0x10005c31

10005c10 <rom_func_lookup>:
10005c10:	b510      	push	{r4, lr}
10005c12:	0001      	movs	r1, r0
10005c14:	2318      	movs	r3, #24
10005c16:	881b      	ldrh	r3, [r3, #0]
10005c18:	2214      	movs	r2, #20
10005c1a:	8810      	ldrh	r0, [r2, #0]
10005c1c:	4798      	blx	r3
10005c1e:	bd10      	pop	{r4, pc}

10005c20 <rom_data_lookup>:
10005c20:	b510      	push	{r4, lr}
10005c22:	0001      	movs	r1, r0
10005c24:	2318      	movs	r3, #24
10005c26:	881b      	ldrh	r3, [r3, #0]
10005c28:	2216      	movs	r2, #22
10005c2a:	8810      	ldrh	r0, [r2, #0]
10005c2c:	4798      	blx	r3
10005c2e:	bd10      	pop	{r4, pc}

10005c30 <rom_funcs_lookup>:
10005c30:	b5f0      	push	{r4, r5, r6, r7, lr}
10005c32:	46c6      	mov	lr, r8
10005c34:	b500      	push	{lr}
10005c36:	0007      	movs	r7, r0
10005c38:	000e      	movs	r6, r1
10005c3a:	2500      	movs	r5, #0
10005c3c:	2301      	movs	r3, #1
10005c3e:	4698      	mov	r8, r3
10005c40:	e000      	b.n	10005c44 <rom_funcs_lookup+0x14>
10005c42:	3501      	adds	r5, #1
10005c44:	42b5      	cmp	r5, r6
10005c46:	d20a      	bcs.n	10005c5e <rom_funcs_lookup+0x2e>
10005c48:	00ac      	lsls	r4, r5, #2
10005c4a:	193c      	adds	r4, r7, r4
10005c4c:	6820      	ldr	r0, [r4, #0]
10005c4e:	f7ff ffdf 	bl	10005c10 <rom_func_lookup>
10005c52:	6020      	str	r0, [r4, #0]
10005c54:	2800      	cmp	r0, #0
10005c56:	d1f4      	bne.n	10005c42 <rom_funcs_lookup+0x12>
10005c58:	2300      	movs	r3, #0
10005c5a:	4698      	mov	r8, r3
10005c5c:	e7f1      	b.n	10005c42 <rom_funcs_lookup+0x12>
10005c5e:	4640      	mov	r0, r8
10005c60:	bc80      	pop	{r7}
10005c62:	46b8      	mov	r8, r7
10005c64:	bdf0      	pop	{r4, r5, r6, r7, pc}
	...

10005c68 <__wrap___aeabi_idiv>:
10005c68:	4a12      	ldr	r2, [pc, #72]	; (10005cb4 <divmod_s32s32_savestate+0x18>)
10005c6a:	6f93      	ldr	r3, [r2, #120]	; 0x78
10005c6c:	089b      	lsrs	r3, r3, #2
10005c6e:	d215      	bcs.n	10005c9c <divmod_s32s32_savestate>

10005c70 <divmod_s32s32_unsafe>:
10005c70:	6690      	str	r0, [r2, #104]	; 0x68
10005c72:	66d1      	str	r1, [r2, #108]	; 0x6c
10005c74:	2900      	cmp	r1, #0
10005c76:	d005      	beq.n	10005c84 <divmod_s32s32_unsafe+0x14>
10005c78:	e7ff      	b.n	10005c7a <divmod_s32s32_unsafe+0xa>
10005c7a:	e7ff      	b.n	10005c7c <divmod_s32s32_unsafe+0xc>
10005c7c:	e7ff      	b.n	10005c7e <divmod_s32s32_unsafe+0xe>
10005c7e:	6f51      	ldr	r1, [r2, #116]	; 0x74
10005c80:	6f10      	ldr	r0, [r2, #112]	; 0x70
10005c82:	4770      	bx	lr
10005c84:	b504      	push	{r2, lr}
10005c86:	2180      	movs	r1, #128	; 0x80
10005c88:	0609      	lsls	r1, r1, #24
10005c8a:	17c2      	asrs	r2, r0, #31
10005c8c:	4051      	eors	r1, r2
10005c8e:	2800      	cmp	r0, #0
10005c90:	d000      	beq.n	10005c94 <divmod_s32s32_unsafe+0x24>
10005c92:	43c8      	mvns	r0, r1
10005c94:	f004 fe9c 	bl	1000a9d0 <____aeabi_idiv0_veneer>
10005c98:	2100      	movs	r1, #0
10005c9a:	bd04      	pop	{r2, pc}

10005c9c <divmod_s32s32_savestate>:
10005c9c:	b5f0      	push	{r4, r5, r6, r7, lr}
10005c9e:	6e14      	ldr	r4, [r2, #96]	; 0x60
10005ca0:	6e55      	ldr	r5, [r2, #100]	; 0x64
10005ca2:	6f57      	ldr	r7, [r2, #116]	; 0x74
10005ca4:	6f16      	ldr	r6, [r2, #112]	; 0x70
10005ca6:	f7ff ffe3 	bl	10005c70 <divmod_s32s32_unsafe>
10005caa:	6614      	str	r4, [r2, #96]	; 0x60
10005cac:	6655      	str	r5, [r2, #100]	; 0x64
10005cae:	6757      	str	r7, [r2, #116]	; 0x74
10005cb0:	6716      	str	r6, [r2, #112]	; 0x70
10005cb2:	bdf0      	pop	{r4, r5, r6, r7, pc}
10005cb4:	d0000000 	.word	0xd0000000

10005cb8 <__wrap___aeabi_uidiv>:
10005cb8:	4a11      	ldr	r2, [pc, #68]	; (10005d00 <divmod_u32u32_savestate+0x18>)
10005cba:	6f93      	ldr	r3, [r2, #120]	; 0x78
10005cbc:	089b      	lsrs	r3, r3, #2
10005cbe:	d213      	bcs.n	10005ce8 <divmod_u32u32_savestate>

10005cc0 <divmod_u32u32_unsafe>:
10005cc0:	6610      	str	r0, [r2, #96]	; 0x60
10005cc2:	6651      	str	r1, [r2, #100]	; 0x64
10005cc4:	2900      	cmp	r1, #0
10005cc6:	d005      	beq.n	10005cd4 <divmod_u32u32_unsafe+0x14>
10005cc8:	e7ff      	b.n	10005cca <divmod_u32u32_unsafe+0xa>
10005cca:	e7ff      	b.n	10005ccc <divmod_u32u32_unsafe+0xc>
10005ccc:	e7ff      	b.n	10005cce <divmod_u32u32_unsafe+0xe>
10005cce:	6f51      	ldr	r1, [r2, #116]	; 0x74
10005cd0:	6f10      	ldr	r0, [r2, #112]	; 0x70
10005cd2:	4770      	bx	lr
10005cd4:	b504      	push	{r2, lr}
10005cd6:	2800      	cmp	r0, #0
10005cd8:	d001      	beq.n	10005cde <divmod_u32u32_unsafe+0x1e>
10005cda:	2000      	movs	r0, #0
10005cdc:	43c0      	mvns	r0, r0
10005cde:	f004 fe77 	bl	1000a9d0 <____aeabi_idiv0_veneer>
10005ce2:	2100      	movs	r1, #0
10005ce4:	bd04      	pop	{r2, pc}
10005ce6:	46c0      	nop			; (mov r8, r8)

10005ce8 <divmod_u32u32_savestate>:
10005ce8:	b5f0      	push	{r4, r5, r6, r7, lr}
10005cea:	6e14      	ldr	r4, [r2, #96]	; 0x60
10005cec:	6e55      	ldr	r5, [r2, #100]	; 0x64
10005cee:	6f57      	ldr	r7, [r2, #116]	; 0x74
10005cf0:	6f16      	ldr	r6, [r2, #112]	; 0x70
10005cf2:	f7ff ffe5 	bl	10005cc0 <divmod_u32u32_unsafe>
10005cf6:	6614      	str	r4, [r2, #96]	; 0x60
10005cf8:	6655      	str	r5, [r2, #100]	; 0x64
10005cfa:	6757      	str	r7, [r2, #116]	; 0x74
10005cfc:	6716      	str	r6, [r2, #112]	; 0x70
10005cfe:	bdf0      	pop	{r4, r5, r6, r7, pc}
10005d00:	d0000000 	.word	0xd0000000

10005d04 <__wrap___aeabi_ldivmod>:
10005d04:	4694      	mov	ip, r2
10005d06:	4a4e      	ldr	r2, [pc, #312]	; (10005e40 <udiv0+0x1a>)
10005d08:	6f92      	ldr	r2, [r2, #120]	; 0x78
10005d0a:	0892      	lsrs	r2, r2, #2
10005d0c:	4662      	mov	r2, ip
10005d0e:	d201      	bcs.n	10005d14 <divmod_s64s64_savestate>
10005d10:	e030      	b.n	10005d74 <divmod_s64s64_unsafe>
10005d12:	46c0      	nop			; (mov r8, r8)

10005d14 <divmod_s64s64_savestate>:
10005d14:	b5f0      	push	{r4, r5, r6, r7, lr}
10005d16:	4e4a      	ldr	r6, [pc, #296]	; (10005e40 <udiv0+0x1a>)
10005d18:	6fb5      	ldr	r5, [r6, #120]	; 0x78
10005d1a:	086d      	lsrs	r5, r5, #1
10005d1c:	d3fc      	bcc.n	10005d18 <divmod_s64s64_savestate+0x4>
10005d1e:	6e34      	ldr	r4, [r6, #96]	; 0x60
10005d20:	6e75      	ldr	r5, [r6, #100]	; 0x64
10005d22:	6f77      	ldr	r7, [r6, #116]	; 0x74
10005d24:	6f36      	ldr	r6, [r6, #112]	; 0x70
10005d26:	f000 f825 	bl	10005d74 <divmod_s64s64_unsafe>
10005d2a:	4694      	mov	ip, r2
10005d2c:	4a44      	ldr	r2, [pc, #272]	; (10005e40 <udiv0+0x1a>)
10005d2e:	6614      	str	r4, [r2, #96]	; 0x60
10005d30:	6655      	str	r5, [r2, #100]	; 0x64
10005d32:	6757      	str	r7, [r2, #116]	; 0x74
10005d34:	6716      	str	r6, [r2, #112]	; 0x70
10005d36:	4662      	mov	r2, ip
10005d38:	bdf0      	pop	{r4, r5, r6, r7, pc}
10005d3a:	46c0      	nop			; (mov r8, r8)

10005d3c <__wrap___aeabi_uldivmod>:
10005d3c:	4694      	mov	ip, r2
10005d3e:	4a40      	ldr	r2, [pc, #256]	; (10005e40 <udiv0+0x1a>)
10005d40:	6f92      	ldr	r2, [r2, #120]	; 0x78
10005d42:	0892      	lsrs	r2, r2, #2
10005d44:	4662      	mov	r2, ip
10005d46:	d201      	bcs.n	10005d4c <divmod_u64u64_savestate>
10005d48:	e058      	b.n	10005dfc <divmod_u64u64_unsafe>
10005d4a:	46c0      	nop			; (mov r8, r8)

10005d4c <divmod_u64u64_savestate>:
10005d4c:	b5f0      	push	{r4, r5, r6, r7, lr}
10005d4e:	4e3c      	ldr	r6, [pc, #240]	; (10005e40 <udiv0+0x1a>)
10005d50:	6fb5      	ldr	r5, [r6, #120]	; 0x78
10005d52:	086d      	lsrs	r5, r5, #1
10005d54:	d3fc      	bcc.n	10005d50 <divmod_u64u64_savestate+0x4>
10005d56:	6e34      	ldr	r4, [r6, #96]	; 0x60
10005d58:	6e75      	ldr	r5, [r6, #100]	; 0x64
10005d5a:	6f77      	ldr	r7, [r6, #116]	; 0x74
10005d5c:	6f36      	ldr	r6, [r6, #112]	; 0x70
10005d5e:	f000 f84d 	bl	10005dfc <divmod_u64u64_unsafe>
10005d62:	4694      	mov	ip, r2
10005d64:	4a36      	ldr	r2, [pc, #216]	; (10005e40 <udiv0+0x1a>)
10005d66:	6614      	str	r4, [r2, #96]	; 0x60
10005d68:	6655      	str	r5, [r2, #100]	; 0x64
10005d6a:	6757      	str	r7, [r2, #116]	; 0x74
10005d6c:	6716      	str	r6, [r2, #112]	; 0x70
10005d6e:	4662      	mov	r2, ip
10005d70:	bdf0      	pop	{r4, r5, r6, r7, pc}
10005d72:	46c0      	nop			; (mov r8, r8)

10005d74 <divmod_s64s64_unsafe>:
10005d74:	2b00      	cmp	r3, #0
10005d76:	db24      	blt.n	10005dc2 <l41_1+0x26>
10005d78:	d011      	beq.n	10005d9e <l41_1+0x2>
10005d7a:	2900      	cmp	r1, #0
10005d7c:	da3e      	bge.n	10005dfc <divmod_u64u64_unsafe>
10005d7e:	b500      	push	{lr}
10005d80:	43c9      	mvns	r1, r1
10005d82:	4240      	negs	r0, r0
10005d84:	d100      	bne.n	10005d88 <l39_1>
10005d86:	3101      	adds	r1, #1

10005d88 <l39_1>:
10005d88:	f000 f838 	bl	10005dfc <divmod_u64u64_unsafe>
10005d8c:	43c9      	mvns	r1, r1
10005d8e:	4240      	negs	r0, r0
10005d90:	d100      	bne.n	10005d94 <l40_1>
10005d92:	3101      	adds	r1, #1

10005d94 <l40_1>:
10005d94:	43db      	mvns	r3, r3
10005d96:	4252      	negs	r2, r2
10005d98:	d100      	bne.n	10005d9c <l41_1>
10005d9a:	3301      	adds	r3, #1

10005d9c <l41_1>:
10005d9c:	bd00      	pop	{pc}
10005d9e:	2a00      	cmp	r2, #0
10005da0:	d1eb      	bne.n	10005d7a <divmod_s64s64_unsafe+0x6>
10005da2:	2800      	cmp	r0, #0
10005da4:	d101      	bne.n	10005daa <l41_1+0xe>
10005da6:	2900      	cmp	r1, #0
10005da8:	d005      	beq.n	10005db6 <l41_1+0x1a>
10005daa:	2000      	movs	r0, #0
10005dac:	0fc9      	lsrs	r1, r1, #31
10005dae:	07c9      	lsls	r1, r1, #31
10005db0:	d101      	bne.n	10005db6 <l41_1+0x1a>
10005db2:	43c0      	mvns	r0, r0
10005db4:	0841      	lsrs	r1, r0, #1
10005db6:	b500      	push	{lr}
10005db8:	f004 fe02 	bl	1000a9c0 <____aeabi_ldiv0_veneer>
10005dbc:	2200      	movs	r2, #0
10005dbe:	2300      	movs	r3, #0
10005dc0:	bd00      	pop	{pc}
10005dc2:	b500      	push	{lr}
10005dc4:	2900      	cmp	r1, #0
10005dc6:	db0a      	blt.n	10005dde <l43_1+0x2>
10005dc8:	43db      	mvns	r3, r3
10005dca:	4252      	negs	r2, r2
10005dcc:	d100      	bne.n	10005dd0 <l42_1>
10005dce:	3301      	adds	r3, #1

10005dd0 <l42_1>:
10005dd0:	f000 f814 	bl	10005dfc <divmod_u64u64_unsafe>
10005dd4:	43c9      	mvns	r1, r1
10005dd6:	4240      	negs	r0, r0
10005dd8:	d100      	bne.n	10005ddc <l43_1>
10005dda:	3101      	adds	r1, #1

10005ddc <l43_1>:
10005ddc:	bd00      	pop	{pc}
10005dde:	43c9      	mvns	r1, r1
10005de0:	4240      	negs	r0, r0
10005de2:	d100      	bne.n	10005de6 <l44_1>
10005de4:	3101      	adds	r1, #1

10005de6 <l44_1>:
10005de6:	43db      	mvns	r3, r3
10005de8:	4252      	negs	r2, r2
10005dea:	d100      	bne.n	10005dee <l45_1>
10005dec:	3301      	adds	r3, #1

10005dee <l45_1>:
10005dee:	f000 f805 	bl	10005dfc <divmod_u64u64_unsafe>
10005df2:	43db      	mvns	r3, r3
10005df4:	4252      	negs	r2, r2
10005df6:	d100      	bne.n	10005dfa <l46_1>
10005df8:	3301      	adds	r3, #1

10005dfa <l46_1>:
10005dfa:	bd00      	pop	{pc}

10005dfc <divmod_u64u64_unsafe>:
10005dfc:	2900      	cmp	r1, #0
10005dfe:	d123      	bne.n	10005e48 <y64>
10005e00:	2b00      	cmp	r3, #0
10005e02:	d118      	bne.n	10005e36 <udiv0+0x10>
10005e04:	2a00      	cmp	r2, #0
10005e06:	d00c      	beq.n	10005e22 <divmod_u64u64_unsafe+0x26>
10005e08:	46bc      	mov	ip, r7
10005e0a:	4f0d      	ldr	r7, [pc, #52]	; (10005e40 <udiv0+0x1a>)
10005e0c:	6638      	str	r0, [r7, #96]	; 0x60
10005e0e:	667a      	str	r2, [r7, #100]	; 0x64
10005e10:	2100      	movs	r1, #0
10005e12:	2300      	movs	r3, #0
10005e14:	e7ff      	b.n	10005e16 <divmod_u64u64_unsafe+0x1a>
10005e16:	e7ff      	b.n	10005e18 <divmod_u64u64_unsafe+0x1c>
10005e18:	e7ff      	b.n	10005e1a <divmod_u64u64_unsafe+0x1e>
10005e1a:	6f7a      	ldr	r2, [r7, #116]	; 0x74
10005e1c:	6f38      	ldr	r0, [r7, #112]	; 0x70
10005e1e:	4667      	mov	r7, ip
10005e20:	4770      	bx	lr
10005e22:	2800      	cmp	r0, #0
10005e24:	d001      	beq.n	10005e2a <udiv0+0x4>

10005e26 <udiv0>:
10005e26:	4807      	ldr	r0, [pc, #28]	; (10005e44 <udiv0+0x1e>)
10005e28:	0001      	movs	r1, r0
10005e2a:	b500      	push	{lr}
10005e2c:	f004 fdc8 	bl	1000a9c0 <____aeabi_ldiv0_veneer>
10005e30:	2200      	movs	r2, #0
10005e32:	2300      	movs	r3, #0
10005e34:	bd00      	pop	{pc}
10005e36:	0002      	movs	r2, r0
10005e38:	000b      	movs	r3, r1
10005e3a:	2000      	movs	r0, #0
10005e3c:	2100      	movs	r1, #0
10005e3e:	4770      	bx	lr
10005e40:	d0000000 	.word	0xd0000000
10005e44:	ffffffff 	.word	0xffffffff

10005e48 <y64>:
10005e48:	2b00      	cmp	r3, #0
10005e4a:	d000      	beq.n	10005e4e <y64+0x6>
10005e4c:	e0bf      	b.n	10005fce <y64_x48>
10005e4e:	0c13      	lsrs	r3, r2, #16
10005e50:	d128      	bne.n	10005ea4 <y64_x32>
10005e52:	2a00      	cmp	r2, #0
10005e54:	d0e7      	beq.n	10005e26 <udiv0>
10005e56:	b480      	push	{r7}
10005e58:	4f11      	ldr	r7, [pc, #68]	; (10005ea0 <y64+0x58>)
10005e5a:	6639      	str	r1, [r7, #96]	; 0x60
10005e5c:	667a      	str	r2, [r7, #100]	; 0x64
10005e5e:	e7ff      	b.n	10005e60 <y64+0x18>
10005e60:	e7ff      	b.n	10005e62 <y64+0x1a>
10005e62:	b430      	push	{r4, r5}
10005e64:	0c04      	lsrs	r4, r0, #16
10005e66:	6f7b      	ldr	r3, [r7, #116]	; 0x74
10005e68:	6f39      	ldr	r1, [r7, #112]	; 0x70
10005e6a:	041b      	lsls	r3, r3, #16
10005e6c:	4323      	orrs	r3, r4
10005e6e:	663b      	str	r3, [r7, #96]	; 0x60
10005e70:	667a      	str	r2, [r7, #100]	; 0x64
10005e72:	e7ff      	b.n	10005e74 <y64+0x2c>
10005e74:	e7ff      	b.n	10005e76 <y64+0x2e>
10005e76:	e7ff      	b.n	10005e78 <y64+0x30>
10005e78:	46c0      	nop			; (mov r8, r8)
10005e7a:	b284      	uxth	r4, r0
10005e7c:	6f7b      	ldr	r3, [r7, #116]	; 0x74
10005e7e:	6f3d      	ldr	r5, [r7, #112]	; 0x70
10005e80:	041b      	lsls	r3, r3, #16
10005e82:	4323      	orrs	r3, r4
10005e84:	663b      	str	r3, [r7, #96]	; 0x60
10005e86:	667a      	str	r2, [r7, #100]	; 0x64
10005e88:	e7ff      	b.n	10005e8a <y64+0x42>
10005e8a:	e7ff      	b.n	10005e8c <y64+0x44>
10005e8c:	46c0      	nop			; (mov r8, r8)
10005e8e:	2300      	movs	r3, #0
10005e90:	042c      	lsls	r4, r5, #16
10005e92:	0c2d      	lsrs	r5, r5, #16
10005e94:	6f7a      	ldr	r2, [r7, #116]	; 0x74
10005e96:	6f38      	ldr	r0, [r7, #112]	; 0x70
10005e98:	1900      	adds	r0, r0, r4
10005e9a:	4169      	adcs	r1, r5
10005e9c:	bcb0      	pop	{r4, r5, r7}
10005e9e:	4770      	bx	lr
10005ea0:	d0000000 	.word	0xd0000000

10005ea4 <y64_x32>:
10005ea4:	b5f0      	push	{r4, r5, r6, r7, lr}
10005ea6:	4694      	mov	ip, r2
10005ea8:	2500      	movs	r5, #0
10005eaa:	0e14      	lsrs	r4, r2, #24
10005eac:	d101      	bne.n	10005eb2 <y64_x32+0xe>
10005eae:	0212      	lsls	r2, r2, #8
10005eb0:	3508      	adds	r5, #8
10005eb2:	0f14      	lsrs	r4, r2, #28
10005eb4:	d101      	bne.n	10005eba <y64_x32+0x16>
10005eb6:	0112      	lsls	r2, r2, #4
10005eb8:	3504      	adds	r5, #4
10005eba:	0f94      	lsrs	r4, r2, #30
10005ebc:	d101      	bne.n	10005ec2 <y64_x32+0x1e>
10005ebe:	0092      	lsls	r2, r2, #2
10005ec0:	3502      	adds	r5, #2
10005ec2:	0fd4      	lsrs	r4, r2, #31
10005ec4:	d101      	bne.n	10005eca <y64_x32+0x26>
10005ec6:	0052      	lsls	r2, r2, #1
10005ec8:	3501      	adds	r5, #1
10005eca:	0bd4      	lsrs	r4, r2, #15
10005ecc:	3401      	adds	r4, #1
10005ece:	4f25      	ldr	r7, [pc, #148]	; (10005f64 <y64_x32+0xc0>)
10005ed0:	667c      	str	r4, [r7, #100]	; 0x64
10005ed2:	4c25      	ldr	r4, [pc, #148]	; (10005f68 <y64_x32+0xc4>)
10005ed4:	663c      	str	r4, [r7, #96]	; 0x60
10005ed6:	0c0e      	lsrs	r6, r1, #16
10005ed8:	b293      	uxth	r3, r2
10005eda:	e7ff      	b.n	10005edc <y64_x32+0x38>
10005edc:	e7ff      	b.n	10005ede <y64_x32+0x3a>
10005ede:	e7ff      	b.n	10005ee0 <y64_x32+0x3c>
10005ee0:	6f3c      	ldr	r4, [r7, #112]	; 0x70
10005ee2:	4366      	muls	r6, r4
10005ee4:	0c36      	lsrs	r6, r6, #16
10005ee6:	0377      	lsls	r7, r6, #13
10005ee8:	46be      	mov	lr, r7
10005eea:	4373      	muls	r3, r6
10005eec:	0bdf      	lsrs	r7, r3, #15
10005eee:	045b      	lsls	r3, r3, #17
10005ef0:	1ac0      	subs	r0, r0, r3
10005ef2:	41b9      	sbcs	r1, r7
10005ef4:	0c13      	lsrs	r3, r2, #16
10005ef6:	4373      	muls	r3, r6
10005ef8:	18db      	adds	r3, r3, r3
10005efa:	1ac9      	subs	r1, r1, r3
10005efc:	08ce      	lsrs	r6, r1, #3
10005efe:	4366      	muls	r6, r4
10005f00:	0c36      	lsrs	r6, r6, #16
10005f02:	44b6      	add	lr, r6
10005f04:	b293      	uxth	r3, r2
10005f06:	4373      	muls	r3, r6
10005f08:	0f1f      	lsrs	r7, r3, #28
10005f0a:	011b      	lsls	r3, r3, #4
10005f0c:	1ac0      	subs	r0, r0, r3
10005f0e:	41b9      	sbcs	r1, r7
10005f10:	0c13      	lsrs	r3, r2, #16
10005f12:	4373      	muls	r3, r6
10005f14:	0b1f      	lsrs	r7, r3, #12
10005f16:	051b      	lsls	r3, r3, #20
10005f18:	1ac0      	subs	r0, r0, r3
10005f1a:	41b9      	sbcs	r1, r7
10005f1c:	0d86      	lsrs	r6, r0, #22
10005f1e:	028f      	lsls	r7, r1, #10
10005f20:	433e      	orrs	r6, r7
10005f22:	4366      	muls	r6, r4
10005f24:	0c36      	lsrs	r6, r6, #16
10005f26:	2d09      	cmp	r5, #9
10005f28:	db24      	blt.n	10005f74 <last0>
10005f2a:	0a52      	lsrs	r2, r2, #9
10005f2c:	4372      	muls	r2, r6
10005f2e:	1a80      	subs	r0, r0, r2
10005f30:	0377      	lsls	r7, r6, #13
10005f32:	0a46      	lsrs	r6, r0, #9
10005f34:	4366      	muls	r6, r4
10005f36:	0c36      	lsrs	r6, r6, #16
10005f38:	2316      	movs	r3, #22
10005f3a:	1b5b      	subs	r3, r3, r5
10005f3c:	40de      	lsrs	r6, r3
10005f3e:	40df      	lsrs	r7, r3
10005f40:	19bf      	adds	r7, r7, r6
10005f42:	4664      	mov	r4, ip
10005f44:	4366      	muls	r6, r4
10005f46:	1b82      	subs	r2, r0, r6
10005f48:	4670      	mov	r0, lr
10005f4a:	3504      	adds	r5, #4
10005f4c:	3306      	adds	r3, #6
10005f4e:	0001      	movs	r1, r0
10005f50:	40d9      	lsrs	r1, r3
10005f52:	40a8      	lsls	r0, r5
10005f54:	19c0      	adds	r0, r0, r7
10005f56:	d300      	bcc.n	10005f5a <y64_x32+0xb6>
10005f58:	3101      	adds	r1, #1
10005f5a:	42a2      	cmp	r2, r4
10005f5c:	d206      	bcs.n	10005f6c <y64_x32+0xc8>
10005f5e:	2300      	movs	r3, #0
10005f60:	bdf0      	pop	{r4, r5, r6, r7, pc}
10005f62:	0000      	.short	0x0000
10005f64:	d0000000 	.word	0xd0000000
10005f68:	ffffffff 	.word	0xffffffff
10005f6c:	1b12      	subs	r2, r2, r4
10005f6e:	3001      	adds	r0, #1
10005f70:	d3f3      	bcc.n	10005f5a <y64_x32+0xb6>
10005f72:	e7f1      	b.n	10005f58 <y64_x32+0xb4>

10005f74 <last0>:
10005f74:	2709      	movs	r7, #9
10005f76:	1b7f      	subs	r7, r7, r5
10005f78:	40fe      	lsrs	r6, r7
10005f7a:	4664      	mov	r4, ip
10005f7c:	b2a2      	uxth	r2, r4
10005f7e:	4372      	muls	r2, r6
10005f80:	1a80      	subs	r0, r0, r2
10005f82:	d200      	bcs.n	10005f86 <last0+0x12>
10005f84:	3901      	subs	r1, #1
10005f86:	0c22      	lsrs	r2, r4, #16
10005f88:	4372      	muls	r2, r6
10005f8a:	0c13      	lsrs	r3, r2, #16
10005f8c:	0412      	lsls	r2, r2, #16
10005f8e:	1a82      	subs	r2, r0, r2
10005f90:	4199      	sbcs	r1, r3
10005f92:	000b      	movs	r3, r1
10005f94:	4670      	mov	r0, lr
10005f96:	3504      	adds	r5, #4
10005f98:	3713      	adds	r7, #19
10005f9a:	0001      	movs	r1, r0
10005f9c:	40f9      	lsrs	r1, r7
10005f9e:	40a8      	lsls	r0, r5
10005fa0:	1980      	adds	r0, r0, r6
10005fa2:	d300      	bcc.n	10005fa6 <last0+0x32>
10005fa4:	3101      	adds	r1, #1
10005fa6:	2b00      	cmp	r3, #0
10005fa8:	d102      	bne.n	10005fb0 <last0+0x3c>
10005faa:	42a2      	cmp	r2, r4
10005fac:	d20a      	bcs.n	10005fc4 <last0+0x50>
10005fae:	bdf0      	pop	{r4, r5, r6, r7, pc}
10005fb0:	3001      	adds	r0, #1
10005fb2:	d300      	bcc.n	10005fb6 <last0+0x42>
10005fb4:	3101      	adds	r1, #1
10005fb6:	1b12      	subs	r2, r2, r4
10005fb8:	d2fa      	bcs.n	10005fb0 <last0+0x3c>
10005fba:	3b01      	subs	r3, #1
10005fbc:	d1f8      	bne.n	10005fb0 <last0+0x3c>
10005fbe:	42a2      	cmp	r2, r4
10005fc0:	d200      	bcs.n	10005fc4 <last0+0x50>
10005fc2:	bdf0      	pop	{r4, r5, r6, r7, pc}
10005fc4:	3001      	adds	r0, #1
10005fc6:	d300      	bcc.n	10005fca <last0+0x56>
10005fc8:	3101      	adds	r1, #1
10005fca:	1b12      	subs	r2, r2, r4
10005fcc:	e7f7      	b.n	10005fbe <last0+0x4a>

10005fce <y64_x48>:
10005fce:	b5f0      	push	{r4, r5, r6, r7, lr}
10005fd0:	0c1c      	lsrs	r4, r3, #16
10005fd2:	d000      	beq.n	10005fd6 <y64_x48+0x8>
10005fd4:	e080      	b.n	100060d8 <y64_x64>
10005fd6:	b40c      	push	{r2, r3}
10005fd8:	2500      	movs	r5, #0
10005fda:	0a1c      	lsrs	r4, r3, #8
10005fdc:	d104      	bne.n	10005fe8 <y64_x48+0x1a>
10005fde:	021b      	lsls	r3, r3, #8
10005fe0:	0e16      	lsrs	r6, r2, #24
10005fe2:	4333      	orrs	r3, r6
10005fe4:	0212      	lsls	r2, r2, #8
10005fe6:	3508      	adds	r5, #8
10005fe8:	0b1c      	lsrs	r4, r3, #12
10005fea:	d104      	bne.n	10005ff6 <y64_x48+0x28>
10005fec:	011b      	lsls	r3, r3, #4
10005fee:	0f16      	lsrs	r6, r2, #28
10005ff0:	4333      	orrs	r3, r6
10005ff2:	0112      	lsls	r2, r2, #4
10005ff4:	3504      	adds	r5, #4
10005ff6:	0b9c      	lsrs	r4, r3, #14
10005ff8:	d104      	bne.n	10006004 <y64_x48+0x36>
10005ffa:	009b      	lsls	r3, r3, #2
10005ffc:	0f96      	lsrs	r6, r2, #30
10005ffe:	4333      	orrs	r3, r6
10006000:	0092      	lsls	r2, r2, #2
10006002:	3502      	adds	r5, #2
10006004:	0bdc      	lsrs	r4, r3, #15
10006006:	d102      	bne.n	1000600e <y64_x48+0x40>
10006008:	1892      	adds	r2, r2, r2
1000600a:	415b      	adcs	r3, r3
1000600c:	3501      	adds	r5, #1
1000600e:	001c      	movs	r4, r3
10006010:	1897      	adds	r7, r2, r2
10006012:	4164      	adcs	r4, r4
10006014:	3401      	adds	r4, #1
10006016:	4f46      	ldr	r7, [pc, #280]	; (10006130 <y64_x64+0x58>)
10006018:	667c      	str	r4, [r7, #100]	; 0x64
1000601a:	4c46      	ldr	r4, [pc, #280]	; (10006134 <y64_x64+0x5c>)
1000601c:	663c      	str	r4, [r7, #96]	; 0x60
1000601e:	0c0e      	lsrs	r6, r1, #16
10006020:	e7ff      	b.n	10006022 <y64_x48+0x54>
10006022:	e7ff      	b.n	10006024 <y64_x48+0x56>
10006024:	e7ff      	b.n	10006026 <y64_x48+0x58>
10006026:	46c0      	nop			; (mov r8, r8)
10006028:	6f3c      	ldr	r4, [r7, #112]	; 0x70
1000602a:	4366      	muls	r6, r4
1000602c:	0c36      	lsrs	r6, r6, #16
1000602e:	0377      	lsls	r7, r6, #13
10006030:	46be      	mov	lr, r7
10006032:	b297      	uxth	r7, r2
10006034:	4377      	muls	r7, r6
10006036:	1bc0      	subs	r0, r0, r7
10006038:	d200      	bcs.n	1000603c <y64_x48+0x6e>
1000603a:	3901      	subs	r1, #1
1000603c:	1bc0      	subs	r0, r0, r7
1000603e:	d200      	bcs.n	10006042 <y64_x48+0x74>
10006040:	3901      	subs	r1, #1
10006042:	b29f      	uxth	r7, r3
10006044:	4377      	muls	r7, r6
10006046:	1bc9      	subs	r1, r1, r7
10006048:	1bc9      	subs	r1, r1, r7
1000604a:	0c17      	lsrs	r7, r2, #16
1000604c:	4377      	muls	r7, r6
1000604e:	047e      	lsls	r6, r7, #17
10006050:	0bff      	lsrs	r7, r7, #15
10006052:	1b80      	subs	r0, r0, r6
10006054:	41b9      	sbcs	r1, r7
10006056:	08ce      	lsrs	r6, r1, #3
10006058:	4366      	muls	r6, r4
1000605a:	0c36      	lsrs	r6, r6, #16
1000605c:	2d0c      	cmp	r5, #12
1000605e:	db33      	blt.n	100060c8 <last1>
10006060:	44b6      	add	lr, r6
10006062:	0b12      	lsrs	r2, r2, #12
10006064:	051f      	lsls	r7, r3, #20
10006066:	433a      	orrs	r2, r7
10006068:	0b1b      	lsrs	r3, r3, #12
1000606a:	b297      	uxth	r7, r2
1000606c:	4377      	muls	r7, r6
1000606e:	1bc0      	subs	r0, r0, r7
10006070:	d200      	bcs.n	10006074 <y64_x48+0xa6>
10006072:	3901      	subs	r1, #1
10006074:	b29f      	uxth	r7, r3
10006076:	4377      	muls	r7, r6
10006078:	1bc9      	subs	r1, r1, r7
1000607a:	0c17      	lsrs	r7, r2, #16
1000607c:	4377      	muls	r7, r6
1000607e:	043e      	lsls	r6, r7, #16
10006080:	0c3f      	lsrs	r7, r7, #16
10006082:	1b80      	subs	r0, r0, r6
10006084:	41b9      	sbcs	r1, r7
10006086:	0d86      	lsrs	r6, r0, #22
10006088:	028f      	lsls	r7, r1, #10
1000608a:	433e      	orrs	r6, r7
1000608c:	4366      	muls	r6, r4
1000608e:	2729      	movs	r7, #41	; 0x29
10006090:	1b7f      	subs	r7, r7, r5
10006092:	40fe      	lsrs	r6, r7
10006094:	3d0c      	subs	r5, #12
10006096:	4677      	mov	r7, lr
10006098:	40af      	lsls	r7, r5
1000609a:	19bf      	adds	r7, r7, r6
1000609c:	bc30      	pop	{r4, r5}
1000609e:	b2a2      	uxth	r2, r4
100060a0:	b2ab      	uxth	r3, r5
100060a2:	4372      	muls	r2, r6
100060a4:	4373      	muls	r3, r6
100060a6:	1a80      	subs	r0, r0, r2
100060a8:	4199      	sbcs	r1, r3
100060aa:	0c22      	lsrs	r2, r4, #16
100060ac:	4372      	muls	r2, r6
100060ae:	0c13      	lsrs	r3, r2, #16
100060b0:	0412      	lsls	r2, r2, #16
100060b2:	1a80      	subs	r0, r0, r2
100060b4:	4199      	sbcs	r1, r3
100060b6:	0002      	movs	r2, r0
100060b8:	000b      	movs	r3, r1
100060ba:	3701      	adds	r7, #1
100060bc:	1b00      	subs	r0, r0, r4
100060be:	41a9      	sbcs	r1, r5
100060c0:	d2f9      	bcs.n	100060b6 <y64_x48+0xe8>
100060c2:	1e78      	subs	r0, r7, #1
100060c4:	2100      	movs	r1, #0
100060c6:	bdf0      	pop	{r4, r5, r6, r7, pc}

100060c8 <last1>:
100060c8:	270c      	movs	r7, #12
100060ca:	1b7f      	subs	r7, r7, r5
100060cc:	40fe      	lsrs	r6, r7
100060ce:	4677      	mov	r7, lr
100060d0:	0b7f      	lsrs	r7, r7, #13
100060d2:	40af      	lsls	r7, r5
100060d4:	19ff      	adds	r7, r7, r7
100060d6:	e7e0      	b.n	1000609a <y64_x48+0xcc>

100060d8 <y64_x64>:
100060d8:	2400      	movs	r4, #0
100060da:	1c5d      	adds	r5, r3, #1
100060dc:	d007      	beq.n	100060ee <y64_x64+0x16>
100060de:	4f14      	ldr	r7, [pc, #80]	; (10006130 <y64_x64+0x58>)
100060e0:	667d      	str	r5, [r7, #100]	; 0x64
100060e2:	6639      	str	r1, [r7, #96]	; 0x60
100060e4:	e7ff      	b.n	100060e6 <y64_x64+0xe>
100060e6:	e7ff      	b.n	100060e8 <y64_x64+0x10>
100060e8:	e7ff      	b.n	100060ea <y64_x64+0x12>
100060ea:	e7ff      	b.n	100060ec <y64_x64+0x14>
100060ec:	6f3c      	ldr	r4, [r7, #112]	; 0x70
100060ee:	b295      	uxth	r5, r2
100060f0:	b29e      	uxth	r6, r3
100060f2:	4365      	muls	r5, r4
100060f4:	4366      	muls	r6, r4
100060f6:	1b40      	subs	r0, r0, r5
100060f8:	41b1      	sbcs	r1, r6
100060fa:	0c15      	lsrs	r5, r2, #16
100060fc:	0c1e      	lsrs	r6, r3, #16
100060fe:	4365      	muls	r5, r4
10006100:	4366      	muls	r6, r4
10006102:	0436      	lsls	r6, r6, #16
10006104:	0c2f      	lsrs	r7, r5, #16
10006106:	433e      	orrs	r6, r7
10006108:	042d      	lsls	r5, r5, #16
1000610a:	1b40      	subs	r0, r0, r5
1000610c:	41b1      	sbcs	r1, r6
1000610e:	4299      	cmp	r1, r3
10006110:	d204      	bcs.n	1000611c <y64_x64+0x44>
10006112:	0002      	movs	r2, r0
10006114:	000b      	movs	r3, r1
10006116:	0020      	movs	r0, r4
10006118:	2100      	movs	r1, #0
1000611a:	bdf0      	pop	{r4, r5, r6, r7, pc}
1000611c:	d101      	bne.n	10006122 <y64_x64+0x4a>
1000611e:	4290      	cmp	r0, r2
10006120:	d3f7      	bcc.n	10006112 <y64_x64+0x3a>
10006122:	1a80      	subs	r0, r0, r2
10006124:	4199      	sbcs	r1, r3
10006126:	3401      	adds	r4, #1
10006128:	4299      	cmp	r1, r3
1000612a:	d3f2      	bcc.n	10006112 <y64_x64+0x3a>
1000612c:	e7f6      	b.n	1000611c <y64_x64+0x44>
1000612e:	0000      	.short	0x0000
10006130:	d0000000 	.word	0xd0000000
10006134:	ffffffff 	.word	0xffffffff

10006138 <push_r8_r11>:
10006138:	4644      	mov	r4, r8
1000613a:	464d      	mov	r5, r9
1000613c:	4656      	mov	r6, sl
1000613e:	465f      	mov	r7, fp
10006140:	b4f0      	push	{r4, r5, r6, r7}
10006142:	4770      	bx	lr

10006144 <pop_r8_r11>:
10006144:	bcf0      	pop	{r4, r5, r6, r7}
10006146:	46a0      	mov	r8, r4
10006148:	46a9      	mov	r9, r5
1000614a:	46b2      	mov	sl, r6
1000614c:	46bb      	mov	fp, r7
1000614e:	4770      	bx	lr

10006150 <__wrap___aeabi_drsub>:
10006150:	4048      	eors	r0, r1
10006152:	4041      	eors	r1, r0
10006154:	4048      	eors	r0, r1

10006156 <__wrap___aeabi_dsub>:
10006156:	b418      	push	{r3, r4}
10006158:	4b1b      	ldr	r3, [pc, #108]	; (100061c8 <__wrap___aeabi_dmul+0x12>)
1000615a:	685b      	ldr	r3, [r3, #4]
1000615c:	46fc      	mov	ip, pc
1000615e:	9301      	str	r3, [sp, #4]
10006160:	bd08      	pop	{r3, pc}
10006162:	df04      	.short	0xdf04
10006164:	1000676f 	.word	0x1000676f

10006168 <__wrap___aeabi_dadd>:
10006168:	b418      	push	{r3, r4}
1000616a:	4b17      	ldr	r3, [pc, #92]	; (100061c8 <__wrap___aeabi_dmul+0x12>)
1000616c:	681b      	ldr	r3, [r3, #0]
1000616e:	46fc      	mov	ip, pc
10006170:	9301      	str	r3, [sp, #4]
10006172:	bd08      	pop	{r3, pc}
10006174:	6779df00 	.word	0x6779df00
10006178:	1000      	.short	0x1000

1000617a <__wrap___aeabi_ddiv>:
1000617a:	4694      	mov	ip, r2
1000617c:	4a13      	ldr	r2, [pc, #76]	; (100061cc <__wrap___aeabi_dmul+0x16>)
1000617e:	6f92      	ldr	r2, [r2, #120]	; 0x78
10006180:	0892      	lsrs	r2, r2, #2
10006182:	d209      	bcs.n	10006198 <ddiv_save_state>
10006184:	4662      	mov	r2, ip

10006186 <ddiv_shim_call>:
10006186:	b418      	push	{r3, r4}
10006188:	4b0f      	ldr	r3, [pc, #60]	; (100061c8 <__wrap___aeabi_dmul+0x12>)
1000618a:	68db      	ldr	r3, [r3, #12]
1000618c:	46fc      	mov	ip, pc
1000618e:	9301      	str	r3, [sp, #4]
10006190:	bd08      	pop	{r3, pc}
10006192:	df0c      	.short	0xdf0c
10006194:	10006a31 	.word	0x10006a31

10006198 <ddiv_save_state>:
10006198:	4a0c      	ldr	r2, [pc, #48]	; (100061cc <__wrap___aeabi_dmul+0x16>)
1000619a:	b5f0      	push	{r4, r5, r6, r7, lr}
1000619c:	6e14      	ldr	r4, [r2, #96]	; 0x60
1000619e:	6e55      	ldr	r5, [r2, #100]	; 0x64
100061a0:	6f57      	ldr	r7, [r2, #116]	; 0x74
100061a2:	6f16      	ldr	r6, [r2, #112]	; 0x70
100061a4:	4662      	mov	r2, ip
100061a6:	f7ff ffee 	bl	10006186 <ddiv_shim_call>
100061aa:	4a08      	ldr	r2, [pc, #32]	; (100061cc <__wrap___aeabi_dmul+0x16>)
100061ac:	6614      	str	r4, [r2, #96]	; 0x60
100061ae:	6655      	str	r5, [r2, #100]	; 0x64
100061b0:	6757      	str	r7, [r2, #116]	; 0x74
100061b2:	6716      	str	r6, [r2, #112]	; 0x70
100061b4:	bdf0      	pop	{r4, r5, r6, r7, pc}

100061b6 <__wrap___aeabi_dmul>:
100061b6:	b418      	push	{r3, r4}
100061b8:	4b03      	ldr	r3, [pc, #12]	; (100061c8 <__wrap___aeabi_dmul+0x12>)
100061ba:	689b      	ldr	r3, [r3, #8]
100061bc:	46fc      	mov	ip, pc
100061be:	9301      	str	r3, [sp, #4]
100061c0:	bd08      	pop	{r3, pc}
100061c2:	df08      	.short	0xdf08
100061c4:	100068d5 	.word	0x100068d5
100061c8:	20001e60 	.word	0x20001e60
100061cc:	d0000000 	.word	0xd0000000

100061d0 <__wrap___aeabi_cdrcmple>:
100061d0:	b5ff      	push	{r0, r1, r2, r3, r4, r5, r6, r7, lr}
100061d2:	4050      	eors	r0, r2
100061d4:	4042      	eors	r2, r0
100061d6:	4050      	eors	r0, r2
100061d8:	4059      	eors	r1, r3
100061da:	404b      	eors	r3, r1
100061dc:	4059      	eors	r1, r3
100061de:	e000      	b.n	100061e2 <__aeabi_dfcmple_guts>

100061e0 <__wrap___aeabi_cdcmpeq>:
100061e0:	b5ff      	push	{r0, r1, r2, r3, r4, r5, r6, r7, lr}

100061e2 <__aeabi_dfcmple_guts>:
100061e2:	4f15      	ldr	r7, [pc, #84]	; (10006238 <__aeabi_dfcmple_guts+0x56>)
100061e4:	004c      	lsls	r4, r1, #1
100061e6:	0d64      	lsrs	r4, r4, #21
100061e8:	d003      	beq.n	100061f2 <__aeabi_dfcmple_guts+0x10>
100061ea:	42bc      	cmp	r4, r7
100061ec:	d104      	bne.n	100061f8 <__aeabi_dfcmple_guts+0x16>
100061ee:	030c      	lsls	r4, r1, #12
100061f0:	d814      	bhi.n	1000621c <__aeabi_dfcmple_guts+0x3a>
100061f2:	2000      	movs	r0, #0
100061f4:	0d09      	lsrs	r1, r1, #20
100061f6:	0509      	lsls	r1, r1, #20
100061f8:	005c      	lsls	r4, r3, #1
100061fa:	0d64      	lsrs	r4, r4, #21
100061fc:	d003      	beq.n	10006206 <__aeabi_dfcmple_guts+0x24>
100061fe:	42bc      	cmp	r4, r7
10006200:	d104      	bne.n	1000620c <__aeabi_dfcmple_guts+0x2a>
10006202:	031c      	lsls	r4, r3, #12
10006204:	d80a      	bhi.n	1000621c <__aeabi_dfcmple_guts+0x3a>
10006206:	2200      	movs	r2, #0
10006208:	0d1b      	lsrs	r3, r3, #20
1000620a:	051b      	lsls	r3, r3, #20
1000620c:	2601      	movs	r6, #1
1000620e:	404b      	eors	r3, r1
10006210:	d409      	bmi.n	10006226 <__aeabi_dfcmple_guts+0x44>
10006212:	404b      	eors	r3, r1
10006214:	d503      	bpl.n	1000621e <__aeabi_dfcmple_guts+0x3c>
10006216:	428b      	cmp	r3, r1
10006218:	d100      	bne.n	1000621c <__aeabi_dfcmple_guts+0x3a>
1000621a:	4282      	cmp	r2, r0
1000621c:	bdff      	pop	{r0, r1, r2, r3, r4, r5, r6, r7, pc}
1000621e:	4299      	cmp	r1, r3
10006220:	d1fc      	bne.n	1000621c <__aeabi_dfcmple_guts+0x3a>
10006222:	4290      	cmp	r0, r2
10006224:	bdff      	pop	{r0, r1, r2, r3, r4, r5, r6, r7, pc}
10006226:	430b      	orrs	r3, r1
10006228:	18db      	adds	r3, r3, r3
1000622a:	4303      	orrs	r3, r0
1000622c:	4313      	orrs	r3, r2
1000622e:	d0f5      	beq.n	1000621c <__aeabi_dfcmple_guts+0x3a>
10006230:	43c9      	mvns	r1, r1
10006232:	1849      	adds	r1, r1, r1
10006234:	bdff      	pop	{r0, r1, r2, r3, r4, r5, r6, r7, pc}
10006236:	0000      	.short	0x0000
10006238:	000007ff 	.word	0x000007ff

1000623c <__wrap___aeabi_dcmplt>:
1000623c:	b500      	push	{lr}
1000623e:	f7ff ffcf 	bl	100061e0 <__wrap___aeabi_cdcmpeq>
10006242:	4180      	sbcs	r0, r0
10006244:	bd00      	pop	{pc}
10006246:	46c0      	nop			; (mov r8, r8)

10006248 <__wrap___aeabi_dcmple>:
10006248:	b500      	push	{lr}
1000624a:	f7ff ffc9 	bl	100061e0 <__wrap___aeabi_cdcmpeq>
1000624e:	d901      	bls.n	10006254 <__wrap___aeabi_dcmple+0xc>
10006250:	2000      	movs	r0, #0
10006252:	bd00      	pop	{pc}
10006254:	2001      	movs	r0, #1
10006256:	bd00      	pop	{pc}

10006258 <__wrap___aeabi_dcmpge>:
10006258:	b500      	push	{lr}
1000625a:	f7ff ffb9 	bl	100061d0 <__wrap___aeabi_cdrcmple>
1000625e:	d901      	bls.n	10006264 <__wrap___aeabi_dcmpge+0xc>
10006260:	2000      	movs	r0, #0
10006262:	bd00      	pop	{pc}
10006264:	2001      	movs	r0, #1
10006266:	bd00      	pop	{pc}

10006268 <__wrap___aeabi_dcmpgt>:
10006268:	b500      	push	{lr}
1000626a:	f7ff ffb1 	bl	100061d0 <__wrap___aeabi_cdrcmple>
1000626e:	4180      	sbcs	r0, r0
10006270:	bd00      	pop	{pc}

10006272 <__wrap___aeabi_dcmpun>:
10006272:	2001      	movs	r0, #1
10006274:	0540      	lsls	r0, r0, #21
10006276:	004a      	lsls	r2, r1, #1
10006278:	1812      	adds	r2, r2, r0
1000627a:	d804      	bhi.n	10006286 <__wrap___aeabi_dcmpun+0x14>
1000627c:	005a      	lsls	r2, r3, #1
1000627e:	1812      	adds	r2, r2, r0
10006280:	d801      	bhi.n	10006286 <__wrap___aeabi_dcmpun+0x14>
10006282:	2000      	movs	r0, #0
10006284:	4770      	bx	lr
10006286:	2001      	movs	r0, #1
10006288:	4770      	bx	lr
1000628a:	2000      	movs	r0, #0
1000628c:	4770      	bx	lr
	...

10006290 <__wrap___aeabi_ui2d>:
10006290:	2100      	movs	r1, #0
10006292:	2800      	cmp	r0, #0
10006294:	d105      	bne.n	100062a2 <__wrap___aeabi_i2d+0xa>
10006296:	4770      	bx	lr

10006298 <__wrap___aeabi_i2d>:
10006298:	17c1      	asrs	r1, r0, #31
1000629a:	4048      	eors	r0, r1
1000629c:	1a40      	subs	r0, r0, r1
1000629e:	d0fa      	beq.n	10006296 <__wrap___aeabi_ui2d+0x6>
100062a0:	07c9      	lsls	r1, r1, #31
100062a2:	b513      	push	{r0, r1, r4, lr}
100062a4:	4b06      	ldr	r3, [pc, #24]	; (100062c0 <__wrap___aeabi_i2d+0x28>)
100062a6:	681b      	ldr	r3, [r3, #0]
100062a8:	4798      	blx	r3
100062aa:	bc0c      	pop	{r2, r3}
100062ac:	1c44      	adds	r4, r0, #1
100062ae:	40a2      	lsls	r2, r4
100062b0:	0510      	lsls	r0, r2, #20
100062b2:	0b12      	lsrs	r2, r2, #12
100062b4:	4903      	ldr	r1, [pc, #12]	; (100062c4 <__wrap___aeabi_i2d+0x2c>)
100062b6:	1b09      	subs	r1, r1, r4
100062b8:	0509      	lsls	r1, r1, #20
100062ba:	4319      	orrs	r1, r3
100062bc:	4311      	orrs	r1, r2
100062be:	bd10      	pop	{r4, pc}
100062c0:	20001f60 	.word	0x20001f60
100062c4:	0000041f 	.word	0x0000041f

100062c8 <__wrap___aeabi_d2iz>:
100062c8:	b510      	push	{r4, lr}
100062ca:	004c      	lsls	r4, r1, #1
100062cc:	0d62      	lsrs	r2, r4, #21
100062ce:	2380      	movs	r3, #128	; 0x80
100062d0:	18d2      	adds	r2, r2, r3
100062d2:	00db      	lsls	r3, r3, #3
100062d4:	1ad2      	subs	r2, r2, r3
100062d6:	055b      	lsls	r3, r3, #21
100062d8:	2a7e      	cmp	r2, #126	; 0x7e
100062da:	dd10      	ble.n	100062fe <__wrap___aeabi_d2iz+0x36>
100062dc:	3a9e      	subs	r2, #158	; 0x9e
100062de:	da13      	bge.n	10006308 <__wrap___aeabi_d2iz+0x40>
100062e0:	17cc      	asrs	r4, r1, #31
100062e2:	0309      	lsls	r1, r1, #12
100062e4:	0849      	lsrs	r1, r1, #1
100062e6:	4319      	orrs	r1, r3
100062e8:	4252      	negs	r2, r2
100062ea:	40d1      	lsrs	r1, r2
100062ec:	0064      	lsls	r4, r4, #1
100062ee:	3401      	adds	r4, #1
100062f0:	3215      	adds	r2, #21
100062f2:	2a20      	cmp	r2, #32
100062f4:	da05      	bge.n	10006302 <__wrap___aeabi_d2iz+0x3a>
100062f6:	40d0      	lsrs	r0, r2
100062f8:	4308      	orrs	r0, r1
100062fa:	4360      	muls	r0, r4
100062fc:	bd10      	pop	{r4, pc}
100062fe:	2000      	movs	r0, #0
10006300:	bd10      	pop	{r4, pc}
10006302:	4608      	mov	r0, r1
10006304:	4360      	muls	r0, r4
10006306:	bd10      	pop	{r4, pc}
10006308:	0fc8      	lsrs	r0, r1, #31
1000630a:	18c0      	adds	r0, r0, r3
1000630c:	3801      	subs	r0, #1
1000630e:	bd10      	pop	{r4, pc}

10006310 <__wrap___aeabi_d2uiz>:
10006310:	b418      	push	{r3, r4}
10006312:	4b04      	ldr	r3, [pc, #16]	; (10006324 <__wrap___aeabi_d2uiz+0x14>)
10006314:	6a5b      	ldr	r3, [r3, #36]	; 0x24
10006316:	46fc      	mov	ip, pc
10006318:	9301      	str	r3, [sp, #4]
1000631a:	bd08      	pop	{r3, pc}
1000631c:	6c65df24 	.word	0x6c65df24
10006320:	00001000 	.word	0x00001000
10006324:	20001e60 	.word	0x20001e60

10006328 <fix642double>:
10006328:	b418      	push	{r3, r4}
1000632a:	4b04      	ldr	r3, [pc, #16]	; (1000633c <fix642double+0x14>)
1000632c:	6e1b      	ldr	r3, [r3, #96]	; 0x60
1000632e:	46fc      	mov	ip, pc
10006330:	9301      	str	r3, [sp, #4]
10006332:	bd08      	pop	{r3, pc}
10006334:	6d73df60 	.word	0x6d73df60
10006338:	00001000 	.word	0x00001000
1000633c:	20001e60 	.word	0x20001e60

10006340 <__wrap___aeabi_d2f>:
10006340:	b418      	push	{r3, r4}
10006342:	4b04      	ldr	r3, [pc, #16]	; (10006354 <__wrap___aeabi_d2f+0x14>)
10006344:	6fdb      	ldr	r3, [r3, #124]	; 0x7c
10006346:	46fc      	mov	ip, pc
10006348:	9301      	str	r3, [sp, #4]
1000634a:	bd08      	pop	{r3, pc}
1000634c:	6cfddf7c 	.word	0x6cfddf7c
10006350:	00001000 	.word	0x00001000
10006354:	20001e60 	.word	0x20001e60

10006358 <sincostan_remainder>:
10006358:	4a02      	ldr	r2, [pc, #8]	; (10006364 <sincostan_remainder+0xc>)
1000635a:	4b03      	ldr	r3, [pc, #12]	; (10006368 <sincostan_remainder+0x10>)
1000635c:	b500      	push	{lr}
1000635e:	f000 f9e1 	bl	10006724 <__wrap_remainder>
10006362:	bd00      	pop	{pc}
10006364:	54442d18 	.word	0x54442d18
10006368:	401921fb 	.word	0x401921fb

1000636c <__wrap_sin>:
1000636c:	008a      	lsls	r2, r1, #2
1000636e:	d302      	bcc.n	10006376 <__wrap_sin+0xa>
10006370:	0d92      	lsrs	r2, r2, #22
10006372:	2a09      	cmp	r2, #9
10006374:	da08      	bge.n	10006388 <__wrap_sin+0x1c>
10006376:	b418      	push	{r3, r4}
10006378:	4b06      	ldr	r3, [pc, #24]	; (10006394 <__wrap_sin+0x28>)
1000637a:	6c1b      	ldr	r3, [r3, #64]	; 0x40
1000637c:	46fc      	mov	ip, pc
1000637e:	9301      	str	r3, [sp, #4]
10006380:	bd08      	pop	{r3, pc}
10006382:	df40      	.short	0xdf40
10006384:	10006ea7 	.word	0x10006ea7
10006388:	b500      	push	{lr}
1000638a:	f7ff ffe5 	bl	10006358 <sincostan_remainder>
1000638e:	bc04      	pop	{r2}
10006390:	4696      	mov	lr, r2
10006392:	e7f0      	b.n	10006376 <__wrap_sin+0xa>
10006394:	20001e60 	.word	0x20001e60

10006398 <__wrap_atan2>:
10006398:	b418      	push	{r3, r4}
1000639a:	4b04      	ldr	r3, [pc, #16]	; (100063ac <__wrap_atan2+0x14>)
1000639c:	6d9b      	ldr	r3, [r3, #88]	; 0x58
1000639e:	46fc      	mov	ip, pc
100063a0:	9301      	str	r3, [sp, #4]
100063a2:	bd08      	pop	{r3, pc}
100063a4:	6f95df58 	.word	0x6f95df58
100063a8:	00001000 	.word	0x00001000
100063ac:	20001e60 	.word	0x20001e60

100063b0 <__aeabi_double_init>:
100063b0:	b570      	push	{r4, r5, r6, lr}
100063b2:	2313      	movs	r3, #19
100063b4:	781c      	ldrb	r4, [r3, #0]
100063b6:	2c01      	cmp	r4, #1
100063b8:	d014      	beq.n	100063e4 <__aeabi_double_init+0x34>
100063ba:	2c01      	cmp	r4, #1
100063bc:	dc14      	bgt.n	100063e8 <__aeabi_double_init+0x38>
100063be:	2c02      	cmp	r4, #2
100063c0:	dc02      	bgt.n	100063c8 <__aeabi_double_init+0x18>
100063c2:	4a1f      	ldr	r2, [pc, #124]	; (10006440 <__aeabi_double_init+0x90>)
100063c4:	4b1f      	ldr	r3, [pc, #124]	; (10006444 <__aeabi_double_init+0x94>)
100063c6:	649a      	str	r2, [r3, #72]	; 0x48
100063c8:	481f      	ldr	r0, [pc, #124]	; (10006448 <__aeabi_double_init+0x98>)
100063ca:	f7ff fc21 	bl	10005c10 <rom_func_lookup>
100063ce:	4b1f      	ldr	r3, [pc, #124]	; (1000644c <__aeabi_double_init+0x9c>)
100063d0:	6018      	str	r0, [r3, #0]
100063d2:	bd70      	pop	{r4, r5, r6, pc}
100063d4:	0099      	lsls	r1, r3, #2
100063d6:	481a      	ldr	r0, [pc, #104]	; (10006440 <__aeabi_double_init+0x90>)
100063d8:	4a1a      	ldr	r2, [pc, #104]	; (10006444 <__aeabi_double_init+0x94>)
100063da:	5088      	str	r0, [r1, r2]
100063dc:	3301      	adds	r3, #1
100063de:	2b1f      	cmp	r3, #31
100063e0:	d9f8      	bls.n	100063d4 <__aeabi_double_init+0x24>
100063e2:	e7ea      	b.n	100063ba <__aeabi_double_init+0xa>
100063e4:	2300      	movs	r3, #0
100063e6:	e7fa      	b.n	100063de <__aeabi_double_init+0x2e>
100063e8:	4819      	ldr	r0, [pc, #100]	; (10006450 <__aeabi_double_init+0xa0>)
100063ea:	f7ff fc19 	bl	10005c20 <rom_data_lookup>
100063ee:	0005      	movs	r5, r0
100063f0:	4818      	ldr	r0, [pc, #96]	; (10006454 <__aeabi_double_init+0xa4>)
100063f2:	f7ff fc15 	bl	10005c20 <rom_data_lookup>
100063f6:	3802      	subs	r0, #2
100063f8:	7803      	ldrb	r3, [r0, #0]
100063fa:	009b      	lsls	r3, r3, #2
100063fc:	2b7f      	cmp	r3, #127	; 0x7f
100063fe:	dd19      	ble.n	10006434 <__aeabi_double_init+0x84>
10006400:	2280      	movs	r2, #128	; 0x80
10006402:	0029      	movs	r1, r5
10006404:	480f      	ldr	r0, [pc, #60]	; (10006444 <__aeabi_double_init+0x94>)
10006406:	f001 f8af 	bl	10007568 <__wrap___aeabi_memcpy>
1000640a:	2c02      	cmp	r4, #2
1000640c:	d1d7      	bne.n	100063be <__aeabi_double_init+0xe>
1000640e:	4b12      	ldr	r3, [pc, #72]	; (10006458 <__aeabi_double_init+0xa8>)
10006410:	881a      	ldrh	r2, [r3, #0]
10006412:	23b5      	movs	r3, #181	; 0xb5
10006414:	021b      	lsls	r3, r3, #8
10006416:	429a      	cmp	r2, r3
10006418:	d109      	bne.n	1000642e <__aeabi_double_init+0x7e>
1000641a:	4b10      	ldr	r3, [pc, #64]	; (1000645c <__aeabi_double_init+0xac>)
1000641c:	881a      	ldrh	r2, [r3, #0]
1000641e:	4b10      	ldr	r3, [pc, #64]	; (10006460 <__aeabi_double_init+0xb0>)
10006420:	429a      	cmp	r2, r3
10006422:	d104      	bne.n	1000642e <__aeabi_double_init+0x7e>
10006424:	4b0f      	ldr	r3, [pc, #60]	; (10006464 <__aeabi_double_init+0xb4>)
10006426:	881a      	ldrh	r2, [r3, #0]
10006428:	4b0f      	ldr	r3, [pc, #60]	; (10006468 <__aeabi_double_init+0xb8>)
1000642a:	429a      	cmp	r2, r3
1000642c:	d0c7      	beq.n	100063be <__aeabi_double_init+0xe>
1000642e:	2000      	movs	r0, #0
10006430:	f7fe f900 	bl	10004634 <panic>
10006434:	4b0d      	ldr	r3, [pc, #52]	; (1000646c <__aeabi_double_init+0xbc>)
10006436:	4a0e      	ldr	r2, [pc, #56]	; (10006470 <__aeabi_double_init+0xc0>)
10006438:	2132      	movs	r1, #50	; 0x32
1000643a:	480e      	ldr	r0, [pc, #56]	; (10006474 <__aeabi_double_init+0xc4>)
1000643c:	f7fe f860 	bl	10004500 <__assert_func>
10006440:	10006735 	.word	0x10006735
10006444:	20001e60 	.word	0x20001e60
10006448:	0000334c 	.word	0x0000334c
1000644c:	20001f60 	.word	0x20001f60
10006450:	00004453 	.word	0x00004453
10006454:	00004653 	.word	0x00004653
10006458:	00003854 	.word	0x00003854
1000645c:	000038d8 	.word	0x000038d8
10006460:	00004649 	.word	0x00004649
10006464:	0000389c 	.word	0x0000389c
10006468:	00004659 	.word	0x00004659
1000646c:	1000bdb0 	.word	0x1000bdb0
10006470:	1000be58 	.word	0x1000be58
10006474:	1000be10 	.word	0x1000be10

10006478 <drem_0>:
10006478:	b5f0      	push	{r4, r5, r6, r7, lr}
1000647a:	46de      	mov	lr, fp
1000647c:	4657      	mov	r7, sl
1000647e:	464e      	mov	r6, r9
10006480:	4645      	mov	r5, r8
10006482:	b5e0      	push	{r5, r6, r7, lr}
10006484:	b085      	sub	sp, #20
10006486:	0004      	movs	r4, r0
10006488:	000d      	movs	r5, r1
1000648a:	9200      	str	r2, [sp, #0]
1000648c:	9301      	str	r3, [sp, #4]
1000648e:	9b0e      	ldr	r3, [sp, #56]	; 0x38
10006490:	469a      	mov	sl, r3
10006492:	2b00      	cmp	r3, #0
10006494:	dd45      	ble.n	10006522 <drem_0+0xaa>
10006496:	9b01      	ldr	r3, [sp, #4]
10006498:	1119      	asrs	r1, r3, #4
1000649a:	2001      	movs	r0, #1
1000649c:	4240      	negs	r0, r0
1000649e:	f7ff fc0b 	bl	10005cb8 <__wrap___aeabi_uidiv>
100064a2:	9003      	str	r0, [sp, #12]
100064a4:	2300      	movs	r3, #0
100064a6:	469b      	mov	fp, r3
100064a8:	e029      	b.n	100064fe <drem_0+0x86>
100064aa:	230c      	movs	r3, #12
100064ac:	4699      	mov	r9, r3
100064ae:	11ab      	asrs	r3, r5, #6
100064b0:	9a03      	ldr	r2, [sp, #12]
100064b2:	4353      	muls	r3, r2
100064b4:	221d      	movs	r2, #29
100064b6:	4649      	mov	r1, r9
100064b8:	1a52      	subs	r2, r2, r1
100064ba:	4113      	asrs	r3, r2
100064bc:	3301      	adds	r3, #1
100064be:	105b      	asrs	r3, r3, #1
100064c0:	4698      	mov	r8, r3
100064c2:	2220      	movs	r2, #32
100064c4:	4252      	negs	r2, r2
100064c6:	188b      	adds	r3, r1, r2
100064c8:	d421      	bmi.n	1000650e <drem_0+0x96>
100064ca:	0022      	movs	r2, r4
100064cc:	409a      	lsls	r2, r3
100064ce:	0017      	movs	r7, r2
100064d0:	0023      	movs	r3, r4
100064d2:	464a      	mov	r2, r9
100064d4:	4093      	lsls	r3, r2
100064d6:	001e      	movs	r6, r3
100064d8:	4643      	mov	r3, r8
100064da:	17d9      	asrs	r1, r3, #31
100064dc:	9a00      	ldr	r2, [sp, #0]
100064de:	9b01      	ldr	r3, [sp, #4]
100064e0:	4640      	mov	r0, r8
100064e2:	f000 fe61 	bl	100071a8 <__wrap___aeabi_lmul>
100064e6:	0034      	movs	r4, r6
100064e8:	003d      	movs	r5, r7
100064ea:	1a24      	subs	r4, r4, r0
100064ec:	418d      	sbcs	r5, r1
100064ee:	465b      	mov	r3, fp
100064f0:	464a      	mov	r2, r9
100064f2:	4093      	lsls	r3, r2
100064f4:	4443      	add	r3, r8
100064f6:	469b      	mov	fp, r3
100064f8:	4653      	mov	r3, sl
100064fa:	1a9b      	subs	r3, r3, r2
100064fc:	469a      	mov	sl, r3
100064fe:	4653      	mov	r3, sl
10006500:	2b00      	cmp	r3, #0
10006502:	dd11      	ble.n	10006528 <drem_0+0xb0>
10006504:	4653      	mov	r3, sl
10006506:	2b0c      	cmp	r3, #12
10006508:	dccf      	bgt.n	100064aa <drem_0+0x32>
1000650a:	46d1      	mov	r9, sl
1000650c:	e7cf      	b.n	100064ae <drem_0+0x36>
1000650e:	2320      	movs	r3, #32
10006510:	1a5b      	subs	r3, r3, r1
10006512:	0022      	movs	r2, r4
10006514:	40da      	lsrs	r2, r3
10006516:	0013      	movs	r3, r2
10006518:	002a      	movs	r2, r5
1000651a:	408a      	lsls	r2, r1
1000651c:	0017      	movs	r7, r2
1000651e:	431f      	orrs	r7, r3
10006520:	e7d6      	b.n	100064d0 <drem_0+0x58>
10006522:	2300      	movs	r3, #0
10006524:	9303      	str	r3, [sp, #12]
10006526:	e7bd      	b.n	100064a4 <drem_0+0x2c>
10006528:	9a00      	ldr	r2, [sp, #0]
1000652a:	9b01      	ldr	r3, [sp, #4]
1000652c:	42ab      	cmp	r3, r5
1000652e:	dc09      	bgt.n	10006544 <drem_0+0xcc>
10006530:	d101      	bne.n	10006536 <drem_0+0xbe>
10006532:	42a2      	cmp	r2, r4
10006534:	d806      	bhi.n	10006544 <drem_0+0xcc>
10006536:	9a00      	ldr	r2, [sp, #0]
10006538:	9b01      	ldr	r3, [sp, #4]
1000653a:	1aa4      	subs	r4, r4, r2
1000653c:	419d      	sbcs	r5, r3
1000653e:	2301      	movs	r3, #1
10006540:	469c      	mov	ip, r3
10006542:	44e3      	add	fp, ip
10006544:	9a00      	ldr	r2, [sp, #0]
10006546:	9b01      	ldr	r3, [sp, #4]
10006548:	42ab      	cmp	r3, r5
1000654a:	dc09      	bgt.n	10006560 <drem_0+0xe8>
1000654c:	d101      	bne.n	10006552 <drem_0+0xda>
1000654e:	42a2      	cmp	r2, r4
10006550:	d806      	bhi.n	10006560 <drem_0+0xe8>
10006552:	9a00      	ldr	r2, [sp, #0]
10006554:	9b01      	ldr	r3, [sp, #4]
10006556:	1aa4      	subs	r4, r4, r2
10006558:	419d      	sbcs	r5, r3
1000655a:	2301      	movs	r3, #1
1000655c:	469c      	mov	ip, r3
1000655e:	44e3      	add	fp, ip
10006560:	2d00      	cmp	r5, #0
10006562:	db0f      	blt.n	10006584 <drem_0+0x10c>
10006564:	2d00      	cmp	r5, #0
10006566:	db16      	blt.n	10006596 <drem_0+0x11e>
10006568:	9b0f      	ldr	r3, [sp, #60]	; 0x3c
1000656a:	2b00      	cmp	r3, #0
1000656c:	d001      	beq.n	10006572 <drem_0+0xfa>
1000656e:	465a      	mov	r2, fp
10006570:	601a      	str	r2, [r3, #0]
10006572:	0020      	movs	r0, r4
10006574:	0029      	movs	r1, r5
10006576:	b005      	add	sp, #20
10006578:	bcf0      	pop	{r4, r5, r6, r7}
1000657a:	46bb      	mov	fp, r7
1000657c:	46b2      	mov	sl, r6
1000657e:	46a9      	mov	r9, r5
10006580:	46a0      	mov	r8, r4
10006582:	bdf0      	pop	{r4, r5, r6, r7, pc}
10006584:	9a00      	ldr	r2, [sp, #0]
10006586:	9b01      	ldr	r3, [sp, #4]
10006588:	18a4      	adds	r4, r4, r2
1000658a:	415d      	adcs	r5, r3
1000658c:	2301      	movs	r3, #1
1000658e:	425b      	negs	r3, r3
10006590:	469c      	mov	ip, r3
10006592:	44e3      	add	fp, ip
10006594:	e7e6      	b.n	10006564 <drem_0+0xec>
10006596:	9a00      	ldr	r2, [sp, #0]
10006598:	9b01      	ldr	r3, [sp, #4]
1000659a:	18a4      	adds	r4, r4, r2
1000659c:	415d      	adcs	r5, r3
1000659e:	2301      	movs	r3, #1
100065a0:	425b      	negs	r3, r3
100065a2:	469c      	mov	ip, r3
100065a4:	44e3      	add	fp, ip
100065a6:	e7df      	b.n	10006568 <drem_0+0xf0>

100065a8 <__wrap_remquo>:
100065a8:	b5f0      	push	{r4, r5, r6, r7, lr}
100065aa:	46c6      	mov	lr, r8
100065ac:	b500      	push	{lr}
100065ae:	b08a      	sub	sp, #40	; 0x28
100065b0:	9007      	str	r0, [sp, #28]
100065b2:	000f      	movs	r7, r1
100065b4:	0011      	movs	r1, r2
100065b6:	001a      	movs	r2, r3
100065b8:	0ffe      	lsrs	r6, r7, #31
100065ba:	0d3b      	lsrs	r3, r7, #20
100065bc:	055b      	lsls	r3, r3, #21
100065be:	0d5b      	lsrs	r3, r3, #21
100065c0:	033d      	lsls	r5, r7, #12
100065c2:	0b2d      	lsrs	r5, r5, #12
100065c4:	2480      	movs	r4, #128	; 0x80
100065c6:	0364      	lsls	r4, r4, #13
100065c8:	9004      	str	r0, [sp, #16]
100065ca:	4325      	orrs	r5, r4
100065cc:	9505      	str	r5, [sp, #20]
100065ce:	0fd5      	lsrs	r5, r2, #31
100065d0:	46a8      	mov	r8, r5
100065d2:	0d15      	lsrs	r5, r2, #20
100065d4:	056d      	lsls	r5, r5, #21
100065d6:	0d6d      	lsrs	r5, r5, #21
100065d8:	0312      	lsls	r2, r2, #12
100065da:	0b12      	lsrs	r2, r2, #12
100065dc:	9102      	str	r1, [sp, #8]
100065de:	4314      	orrs	r4, r2
100065e0:	9403      	str	r4, [sp, #12]
100065e2:	9a10      	ldr	r2, [sp, #64]	; 0x40
100065e4:	2a00      	cmp	r2, #0
100065e6:	d002      	beq.n	100065ee <__wrap_remquo+0x46>
100065e8:	2200      	movs	r2, #0
100065ea:	9910      	ldr	r1, [sp, #64]	; 0x40
100065ec:	600a      	str	r2, [r1, #0]
100065ee:	4a4a      	ldr	r2, [pc, #296]	; (10006718 <__wrap_remquo+0x170>)
100065f0:	4293      	cmp	r3, r2
100065f2:	d100      	bne.n	100065f6 <__wrap_remquo+0x4e>
100065f4:	e07d      	b.n	100066f2 <__wrap_remquo+0x14a>
100065f6:	2d00      	cmp	r5, #0
100065f8:	d100      	bne.n	100065fc <__wrap_remquo+0x54>
100065fa:	e07d      	b.n	100066f8 <__wrap_remquo+0x150>
100065fc:	2b00      	cmp	r3, #0
100065fe:	d100      	bne.n	10006602 <__wrap_remquo+0x5a>
10006600:	e082      	b.n	10006708 <__wrap_remquo+0x160>
10006602:	4295      	cmp	r5, r2
10006604:	d100      	bne.n	10006608 <__wrap_remquo+0x60>
10006606:	e082      	b.n	1000670e <__wrap_remquo+0x166>
10006608:	1e6a      	subs	r2, r5, #1
1000660a:	429a      	cmp	r2, r3
1000660c:	dd00      	ble.n	10006610 <__wrap_remquo+0x68>
1000660e:	e080      	b.n	10006712 <__wrap_remquo+0x16a>
10006610:	d044      	beq.n	1000669c <__wrap_remquo+0xf4>
10006612:	2e00      	cmp	r6, #0
10006614:	d006      	beq.n	10006624 <__wrap_remquo+0x7c>
10006616:	9e04      	ldr	r6, [sp, #16]
10006618:	9f05      	ldr	r7, [sp, #20]
1000661a:	2200      	movs	r2, #0
1000661c:	4271      	negs	r1, r6
1000661e:	41ba      	sbcs	r2, r7
10006620:	9104      	str	r1, [sp, #16]
10006622:	9205      	str	r2, [sp, #20]
10006624:	aa09      	add	r2, sp, #36	; 0x24
10006626:	9201      	str	r2, [sp, #4]
10006628:	1b5b      	subs	r3, r3, r5
1000662a:	9300      	str	r3, [sp, #0]
1000662c:	9a02      	ldr	r2, [sp, #8]
1000662e:	9b03      	ldr	r3, [sp, #12]
10006630:	9804      	ldr	r0, [sp, #16]
10006632:	9905      	ldr	r1, [sp, #20]
10006634:	f7ff ff20 	bl	10006478 <drem_0>
10006638:	0006      	movs	r6, r0
1000663a:	000f      	movs	r7, r1
1000663c:	0003      	movs	r3, r0
1000663e:	000c      	movs	r4, r1
10006640:	199b      	adds	r3, r3, r6
10006642:	417c      	adcs	r4, r7
10006644:	0022      	movs	r2, r4
10006646:	9802      	ldr	r0, [sp, #8]
10006648:	9903      	ldr	r1, [sp, #12]
1000664a:	428c      	cmp	r4, r1
1000664c:	dc0b      	bgt.n	10006666 <__wrap_remquo+0xbe>
1000664e:	d101      	bne.n	10006654 <__wrap_remquo+0xac>
10006650:	4283      	cmp	r3, r0
10006652:	d808      	bhi.n	10006666 <__wrap_remquo+0xbe>
10006654:	9902      	ldr	r1, [sp, #8]
10006656:	428b      	cmp	r3, r1
10006658:	d10c      	bne.n	10006674 <__wrap_remquo+0xcc>
1000665a:	9b03      	ldr	r3, [sp, #12]
1000665c:	429a      	cmp	r2, r3
1000665e:	d109      	bne.n	10006674 <__wrap_remquo+0xcc>
10006660:	9b09      	ldr	r3, [sp, #36]	; 0x24
10006662:	07db      	lsls	r3, r3, #31
10006664:	d506      	bpl.n	10006674 <__wrap_remquo+0xcc>
10006666:	9b02      	ldr	r3, [sp, #8]
10006668:	9c03      	ldr	r4, [sp, #12]
1000666a:	1af6      	subs	r6, r6, r3
1000666c:	41a7      	sbcs	r7, r4
1000666e:	9b09      	ldr	r3, [sp, #36]	; 0x24
10006670:	3301      	adds	r3, #1
10006672:	9309      	str	r3, [sp, #36]	; 0x24
10006674:	4643      	mov	r3, r8
10006676:	2b00      	cmp	r3, #0
10006678:	d002      	beq.n	10006680 <__wrap_remquo+0xd8>
1000667a:	9b09      	ldr	r3, [sp, #36]	; 0x24
1000667c:	425b      	negs	r3, r3
1000667e:	9309      	str	r3, [sp, #36]	; 0x24
10006680:	9b10      	ldr	r3, [sp, #64]	; 0x40
10006682:	2b00      	cmp	r3, #0
10006684:	d001      	beq.n	1000668a <__wrap_remquo+0xe2>
10006686:	9a09      	ldr	r2, [sp, #36]	; 0x24
10006688:	601a      	str	r2, [r3, #0]
1000668a:	4a24      	ldr	r2, [pc, #144]	; (1000671c <__wrap_remquo+0x174>)
1000668c:	1b52      	subs	r2, r2, r5
1000668e:	0030      	movs	r0, r6
10006690:	0039      	movs	r1, r7
10006692:	f7ff fe49 	bl	10006328 <fix642double>
10006696:	0006      	movs	r6, r0
10006698:	000f      	movs	r7, r1
1000669a:	e02f      	b.n	100066fc <__wrap_remquo+0x154>
1000669c:	9b03      	ldr	r3, [sp, #12]
1000669e:	9905      	ldr	r1, [sp, #20]
100066a0:	4299      	cmp	r1, r3
100066a2:	dd0f      	ble.n	100066c4 <__wrap_remquo+0x11c>
100066a4:	2e00      	cmp	r6, #0
100066a6:	d117      	bne.n	100066d8 <__wrap_remquo+0x130>
100066a8:	9c02      	ldr	r4, [sp, #8]
100066aa:	9d03      	ldr	r5, [sp, #12]
100066ac:	1924      	adds	r4, r4, r4
100066ae:	416d      	adcs	r5, r5
100066b0:	9804      	ldr	r0, [sp, #16]
100066b2:	9905      	ldr	r1, [sp, #20]
100066b4:	1b00      	subs	r0, r0, r4
100066b6:	41a9      	sbcs	r1, r5
100066b8:	0006      	movs	r6, r0
100066ba:	000f      	movs	r7, r1
100066bc:	2301      	movs	r3, #1
100066be:	9309      	str	r3, [sp, #36]	; 0x24
100066c0:	0015      	movs	r5, r2
100066c2:	e7d7      	b.n	10006674 <__wrap_remquo+0xcc>
100066c4:	9b02      	ldr	r3, [sp, #8]
100066c6:	9c03      	ldr	r4, [sp, #12]
100066c8:	9805      	ldr	r0, [sp, #20]
100066ca:	42a0      	cmp	r0, r4
100066cc:	d102      	bne.n	100066d4 <__wrap_remquo+0x12c>
100066ce:	9904      	ldr	r1, [sp, #16]
100066d0:	4299      	cmp	r1, r3
100066d2:	d8e7      	bhi.n	100066a4 <__wrap_remquo+0xfc>
100066d4:	9e07      	ldr	r6, [sp, #28]
100066d6:	e011      	b.n	100066fc <__wrap_remquo+0x154>
100066d8:	9e02      	ldr	r6, [sp, #8]
100066da:	9f03      	ldr	r7, [sp, #12]
100066dc:	19b6      	adds	r6, r6, r6
100066de:	417f      	adcs	r7, r7
100066e0:	9b04      	ldr	r3, [sp, #16]
100066e2:	9c05      	ldr	r4, [sp, #20]
100066e4:	1af6      	subs	r6, r6, r3
100066e6:	41a7      	sbcs	r7, r4
100066e8:	2301      	movs	r3, #1
100066ea:	425b      	negs	r3, r3
100066ec:	9309      	str	r3, [sp, #36]	; 0x24
100066ee:	0015      	movs	r5, r2
100066f0:	e7c0      	b.n	10006674 <__wrap_remquo+0xcc>
100066f2:	2600      	movs	r6, #0
100066f4:	4f0a      	ldr	r7, [pc, #40]	; (10006720 <__wrap_remquo+0x178>)
100066f6:	e001      	b.n	100066fc <__wrap_remquo+0x154>
100066f8:	2600      	movs	r6, #0
100066fa:	4f09      	ldr	r7, [pc, #36]	; (10006720 <__wrap_remquo+0x178>)
100066fc:	0030      	movs	r0, r6
100066fe:	0039      	movs	r1, r7
10006700:	b00a      	add	sp, #40	; 0x28
10006702:	bc80      	pop	{r7}
10006704:	46b8      	mov	r8, r7
10006706:	bdf0      	pop	{r4, r5, r6, r7, pc}
10006708:	2600      	movs	r6, #0
1000670a:	2700      	movs	r7, #0
1000670c:	e7f6      	b.n	100066fc <__wrap_remquo+0x154>
1000670e:	9e07      	ldr	r6, [sp, #28]
10006710:	e7f4      	b.n	100066fc <__wrap_remquo+0x154>
10006712:	9e07      	ldr	r6, [sp, #28]
10006714:	e7f2      	b.n	100066fc <__wrap_remquo+0x154>
10006716:	46c0      	nop			; (mov r8, r8)
10006718:	000007ff 	.word	0x000007ff
1000671c:	00000433 	.word	0x00000433
10006720:	7ff00000 	.word	0x7ff00000

10006724 <__wrap_remainder>:
10006724:	b510      	push	{r4, lr}
10006726:	b082      	sub	sp, #8
10006728:	2400      	movs	r4, #0
1000672a:	9400      	str	r4, [sp, #0]
1000672c:	f7ff ff3c 	bl	100065a8 <__wrap_remquo>
10006730:	b002      	add	sp, #8
10006732:	bd10      	pop	{r4, pc}

10006734 <double_table_shim_on_use_helper>:
10006734:	b507      	push	{r0, r1, r2, lr}
10006736:	4660      	mov	r0, ip
10006738:	2800      	cmp	r0, #0
1000673a:	d100      	bne.n	1000673e <double_table_shim_on_use_helper+0xa>
1000673c:	be00      	bkpt	0x0000
1000673e:	8801      	ldrh	r1, [r0, #0]
10006740:	0a0a      	lsrs	r2, r1, #8
10006742:	3002      	adds	r0, #2
10006744:	2adf      	cmp	r2, #223	; 0xdf
10006746:	d1fa      	bne.n	1000673e <double_table_shim_on_use_helper+0xa>
10006748:	b2c9      	uxtb	r1, r1
1000674a:	0882      	lsrs	r2, r0, #2
1000674c:	d304      	bcc.n	10006758 <double_table_shim_on_use_helper+0x24>
1000674e:	8802      	ldrh	r2, [r0, #0]
10006750:	8840      	ldrh	r0, [r0, #2]
10006752:	0400      	lsls	r0, r0, #16
10006754:	4310      	orrs	r0, r2
10006756:	e000      	b.n	1000675a <double_table_shim_on_use_helper+0x26>
10006758:	6800      	ldr	r0, [r0, #0]
1000675a:	4a02      	ldr	r2, [pc, #8]	; (10006764 <double_table_shim_on_use_helper+0x30>)
1000675c:	5050      	str	r0, [r2, r1]
1000675e:	9003      	str	r0, [sp, #12]
10006760:	bd07      	pop	{r0, r1, r2, pc}
10006762:	0000      	.short	0x0000
10006764:	20001e60 	.word	0x20001e60

10006768 <drsub_shim>:
10006768:	b40f      	push	{r0, r1, r2, r3}
1000676a:	bc03      	pop	{r0, r1}
1000676c:	bc0c      	pop	{r2, r3}

1000676e <dsub_shim>:
1000676e:	b5f0      	push	{r4, r5, r6, r7, lr}
10006770:	2401      	movs	r4, #1
10006772:	07e4      	lsls	r4, r4, #31
10006774:	4063      	eors	r3, r4
10006776:	e000      	b.n	1000677a <da_entry>

10006778 <dadd_shim>:
10006778:	b5f0      	push	{r4, r5, r6, r7, lr}

1000677a <da_entry>:
1000677a:	0d0c      	lsrs	r4, r1, #20
1000677c:	0fcf      	lsrs	r7, r1, #31
1000677e:	1e66      	subs	r6, r4, #1
10006780:	0536      	lsls	r6, r6, #20
10006782:	1b89      	subs	r1, r1, r6
10006784:	0564      	lsls	r4, r4, #21
10006786:	d303      	bcc.n	10006790 <l7_1>
10006788:	43c9      	mvns	r1, r1
1000678a:	4240      	negs	r0, r0
1000678c:	d300      	bcc.n	10006790 <l7_1>
1000678e:	3101      	adds	r1, #1

10006790 <l7_1>:
10006790:	0d64      	lsrs	r4, r4, #21
10006792:	d003      	beq.n	1000679c <l7_2>
10006794:	1c66      	adds	r6, r4, #1
10006796:	0af6      	lsrs	r6, r6, #11
10006798:	d007      	beq.n	100067aa <l7_3>
1000679a:	1be4      	subs	r4, r4, r7

1000679c <l7_2>:
1000679c:	2000      	movs	r0, #0
1000679e:	007f      	lsls	r7, r7, #1
100067a0:	1c79      	adds	r1, r7, #1
100067a2:	0789      	lsls	r1, r1, #30
100067a4:	1289      	asrs	r1, r1, #10
100067a6:	3c80      	subs	r4, #128	; 0x80
100067a8:	0324      	lsls	r4, r4, #12

100067aa <l7_3>:
100067aa:	0d1d      	lsrs	r5, r3, #20
100067ac:	0fdf      	lsrs	r7, r3, #31
100067ae:	1e6e      	subs	r6, r5, #1
100067b0:	0536      	lsls	r6, r6, #20
100067b2:	1b9b      	subs	r3, r3, r6
100067b4:	056d      	lsls	r5, r5, #21
100067b6:	d303      	bcc.n	100067c0 <l8_1>
100067b8:	43db      	mvns	r3, r3
100067ba:	4252      	negs	r2, r2
100067bc:	d300      	bcc.n	100067c0 <l8_1>
100067be:	3301      	adds	r3, #1

100067c0 <l8_1>:
100067c0:	0d6d      	lsrs	r5, r5, #21
100067c2:	d003      	beq.n	100067cc <l8_2>
100067c4:	1c6e      	adds	r6, r5, #1
100067c6:	0af6      	lsrs	r6, r6, #11
100067c8:	d007      	beq.n	100067da <l8_3>
100067ca:	1bed      	subs	r5, r5, r7

100067cc <l8_2>:
100067cc:	2200      	movs	r2, #0
100067ce:	007f      	lsls	r7, r7, #1
100067d0:	1c7b      	adds	r3, r7, #1
100067d2:	079b      	lsls	r3, r3, #30
100067d4:	129b      	asrs	r3, r3, #10
100067d6:	3d80      	subs	r5, #128	; 0x80
100067d8:	032d      	lsls	r5, r5, #12

100067da <l8_3>:
100067da:	1b2f      	subs	r7, r5, r4
100067dc:	1b66      	subs	r6, r4, r5
100067de:	d458      	bmi.n	10006892 <da_ygtx>
100067e0:	46a4      	mov	ip, r4
100067e2:	2e20      	cmp	r6, #32
100067e4:	da46      	bge.n	10006874 <da_xrgty>
100067e6:	3720      	adds	r7, #32
100067e8:	0014      	movs	r4, r2
100067ea:	40bc      	lsls	r4, r7

100067ec <da_xgty0>:
100067ec:	001d      	movs	r5, r3
100067ee:	40bd      	lsls	r5, r7
100067f0:	40f2      	lsrs	r2, r6
100067f2:	4133      	asrs	r3, r6
100067f4:	432a      	orrs	r2, r5

100067f6 <da_add>:
100067f6:	1880      	adds	r0, r0, r2
100067f8:	4159      	adcs	r1, r3

100067fa <da_pack>:
100067fa:	0fcb      	lsrs	r3, r1, #31
100067fc:	d005      	beq.n	1000680a <da_pack+0x10>
100067fe:	43c9      	mvns	r1, r1
10006800:	43c0      	mvns	r0, r0
10006802:	2200      	movs	r2, #0
10006804:	4264      	negs	r4, r4
10006806:	4150      	adcs	r0, r2
10006808:	4151      	adcs	r1, r2
1000680a:	4662      	mov	r2, ip
1000680c:	0d4d      	lsrs	r5, r1, #21
1000680e:	d128      	bne.n	10006862 <da_0>
10006810:	0d0d      	lsrs	r5, r1, #20
10006812:	d107      	bne.n	10006824 <da_1>
10006814:	2800      	cmp	r0, #0
10006816:	d01f      	beq.n	10006858 <da_5>

10006818 <da_2>:
10006818:	1924      	adds	r4, r4, r4
1000681a:	4140      	adcs	r0, r0
1000681c:	4149      	adcs	r1, r1
1000681e:	3a01      	subs	r2, #1
10006820:	0d0d      	lsrs	r5, r1, #20
10006822:	d0f9      	beq.n	10006818 <da_2>

10006824 <da_1>:
10006824:	0064      	lsls	r4, r4, #1
10006826:	d306      	bcc.n	10006836 <da_3>

10006828 <da_4>:
10006828:	3001      	adds	r0, #1
1000682a:	d300      	bcc.n	1000682e <da_4+0x6>
1000682c:	3101      	adds	r1, #1
1000682e:	2c00      	cmp	r4, #0
10006830:	d101      	bne.n	10006836 <da_3>
10006832:	0840      	lsrs	r0, r0, #1
10006834:	0040      	lsls	r0, r0, #1

10006836 <da_3>:
10006836:	3a01      	subs	r2, #1
10006838:	d40b      	bmi.n	10006852 <da_6>
1000683a:	1c94      	adds	r4, r2, #2
1000683c:	0ae4      	lsrs	r4, r4, #11
1000683e:	d104      	bne.n	1000684a <da_7>
10006840:	0512      	lsls	r2, r2, #20
10006842:	4411      	add	r1, r2
10006844:	07db      	lsls	r3, r3, #31
10006846:	4419      	add	r1, r3
10006848:	bdf0      	pop	{r4, r5, r6, r7, pc}

1000684a <da_7>:
1000684a:	07d9      	lsls	r1, r3, #31
1000684c:	4b20      	ldr	r3, [pc, #128]	; (100068d0 <da_xmgty+0x4>)
1000684e:	4319      	orrs	r1, r3
10006850:	e000      	b.n	10006854 <da_6+0x2>

10006852 <da_6>:
10006852:	07d9      	lsls	r1, r3, #31
10006854:	2000      	movs	r0, #0
10006856:	bdf0      	pop	{r4, r5, r6, r7, pc}

10006858 <da_5>:
10006858:	2900      	cmp	r1, #0
1000685a:	d1dd      	bne.n	10006818 <da_2>
1000685c:	2c00      	cmp	r4, #0
1000685e:	d1db      	bne.n	10006818 <da_2>
10006860:	bdf0      	pop	{r4, r5, r6, r7, pc}

10006862 <da_0>:
10006862:	3201      	adds	r2, #1
10006864:	07c6      	lsls	r6, r0, #31
10006866:	0840      	lsrs	r0, r0, #1
10006868:	07cd      	lsls	r5, r1, #31
1000686a:	4328      	orrs	r0, r5
1000686c:	0849      	lsrs	r1, r1, #1
1000686e:	2e00      	cmp	r6, #0
10006870:	d0e1      	beq.n	10006836 <da_3>
10006872:	e7d9      	b.n	10006828 <da_4>

10006874 <da_xrgty>:
10006874:	2e3c      	cmp	r6, #60	; 0x3c
10006876:	da29      	bge.n	100068cc <da_xmgty>
10006878:	3e20      	subs	r6, #32
1000687a:	3740      	adds	r7, #64	; 0x40
1000687c:	0014      	movs	r4, r2
1000687e:	40bc      	lsls	r4, r7
10006880:	d000      	beq.n	10006884 <da_xrgty+0x10>
10006882:	2401      	movs	r4, #1
10006884:	40f2      	lsrs	r2, r6
10006886:	4314      	orrs	r4, r2
10006888:	001a      	movs	r2, r3
1000688a:	40bb      	lsls	r3, r7
1000688c:	431c      	orrs	r4, r3
1000688e:	17d3      	asrs	r3, r2, #31
10006890:	e7ac      	b.n	100067ec <da_xgty0>

10006892 <da_ygtx>:
10006892:	46ac      	mov	ip, r5
10006894:	2f20      	cmp	r7, #32
10006896:	da08      	bge.n	100068aa <da_yrgtx>
10006898:	3620      	adds	r6, #32
1000689a:	0004      	movs	r4, r0
1000689c:	40b4      	lsls	r4, r6

1000689e <da_ygtx0>:
1000689e:	000d      	movs	r5, r1
100068a0:	40b5      	lsls	r5, r6
100068a2:	40f8      	lsrs	r0, r7
100068a4:	4139      	asrs	r1, r7
100068a6:	4328      	orrs	r0, r5
100068a8:	e7a5      	b.n	100067f6 <da_add>

100068aa <da_yrgtx>:
100068aa:	2f3c      	cmp	r7, #60	; 0x3c
100068ac:	da0c      	bge.n	100068c8 <da_ymgtx>
100068ae:	3f20      	subs	r7, #32
100068b0:	3640      	adds	r6, #64	; 0x40
100068b2:	0004      	movs	r4, r0
100068b4:	40b4      	lsls	r4, r6
100068b6:	d000      	beq.n	100068ba <da_yrgtx+0x10>
100068b8:	2401      	movs	r4, #1
100068ba:	40f8      	lsrs	r0, r7
100068bc:	4304      	orrs	r4, r0
100068be:	0008      	movs	r0, r1
100068c0:	40b1      	lsls	r1, r6
100068c2:	430c      	orrs	r4, r1
100068c4:	17c1      	asrs	r1, r0, #31
100068c6:	e7ea      	b.n	1000689e <da_ygtx0>

100068c8 <da_ymgtx>:
100068c8:	0010      	movs	r0, r2
100068ca:	0019      	movs	r1, r3

100068cc <da_xmgty>:
100068cc:	2400      	movs	r4, #0
100068ce:	e794      	b.n	100067fa <da_pack>
100068d0:	7ff00000 	.word	0x7ff00000

100068d4 <dmul_shim>:
100068d4:	b5f0      	push	{r4, r5, r6, r7, lr}
100068d6:	0d0c      	lsrs	r4, r1, #20
100068d8:	1e66      	subs	r6, r4, #1
100068da:	0536      	lsls	r6, r6, #20
100068dc:	1b89      	subs	r1, r1, r6
100068de:	0ae6      	lsrs	r6, r4, #11
100068e0:	0564      	lsls	r4, r4, #21
100068e2:	0d64      	lsrs	r4, r4, #21
100068e4:	d002      	beq.n	100068ec <l11_1>
100068e6:	1c65      	adds	r5, r4, #1
100068e8:	0aed      	lsrs	r5, r5, #11
100068ea:	d004      	beq.n	100068f6 <l11_2>

100068ec <l11_1>:
100068ec:	2000      	movs	r0, #0
100068ee:	2101      	movs	r1, #1
100068f0:	0509      	lsls	r1, r1, #20
100068f2:	3c80      	subs	r4, #128	; 0x80
100068f4:	0324      	lsls	r4, r4, #12

100068f6 <l11_2>:
100068f6:	46a4      	mov	ip, r4
100068f8:	0d1c      	lsrs	r4, r3, #20
100068fa:	1e67      	subs	r7, r4, #1
100068fc:	053f      	lsls	r7, r7, #20
100068fe:	1bdb      	subs	r3, r3, r7
10006900:	0ae7      	lsrs	r7, r4, #11
10006902:	0564      	lsls	r4, r4, #21
10006904:	0d64      	lsrs	r4, r4, #21
10006906:	d002      	beq.n	1000690e <l12_1>
10006908:	1c65      	adds	r5, r4, #1
1000690a:	0aed      	lsrs	r5, r5, #11
1000690c:	d004      	beq.n	10006918 <l12_2>

1000690e <l12_1>:
1000690e:	2200      	movs	r2, #0
10006910:	2301      	movs	r3, #1
10006912:	051b      	lsls	r3, r3, #20
10006914:	3c80      	subs	r4, #128	; 0x80
10006916:	0324      	lsls	r4, r4, #12

10006918 <l12_2>:
10006918:	4077      	eors	r7, r6
1000691a:	4464      	add	r4, ip
1000691c:	b497      	push	{r0, r1, r2, r4, r7}
1000691e:	b284      	uxth	r4, r0
10006920:	b296      	uxth	r6, r2
10006922:	4374      	muls	r4, r6
10006924:	0c07      	lsrs	r7, r0, #16
10006926:	437e      	muls	r6, r7
10006928:	0c15      	lsrs	r5, r2, #16
1000692a:	436f      	muls	r7, r5
1000692c:	b280      	uxth	r0, r0
1000692e:	4368      	muls	r0, r5
10006930:	1836      	adds	r6, r6, r0
10006932:	d302      	bcc.n	1000693a <l13_1>
10006934:	2001      	movs	r0, #1
10006936:	0400      	lsls	r0, r0, #16
10006938:	183f      	adds	r7, r7, r0

1000693a <l13_1>:
1000693a:	0430      	lsls	r0, r6, #16
1000693c:	0c35      	lsrs	r5, r6, #16
1000693e:	1900      	adds	r0, r0, r4
10006940:	417d      	adcs	r5, r7
10006942:	4684      	mov	ip, r0
10006944:	b288      	uxth	r0, r1
10006946:	b29a      	uxth	r2, r3
10006948:	4350      	muls	r0, r2
1000694a:	0c0c      	lsrs	r4, r1, #16
1000694c:	4362      	muls	r2, r4
1000694e:	0c1f      	lsrs	r7, r3, #16
10006950:	437c      	muls	r4, r7
10006952:	b28e      	uxth	r6, r1
10006954:	437e      	muls	r6, r7
10006956:	1992      	adds	r2, r2, r6
10006958:	d302      	bcc.n	10006960 <l14_1>
1000695a:	2601      	movs	r6, #1
1000695c:	0436      	lsls	r6, r6, #16
1000695e:	19a4      	adds	r4, r4, r6

10006960 <l14_1>:
10006960:	0416      	lsls	r6, r2, #16
10006962:	0c17      	lsrs	r7, r2, #16
10006964:	1836      	adds	r6, r6, r0
10006966:	4167      	adcs	r7, r4
10006968:	bc01      	pop	{r0}
1000696a:	b281      	uxth	r1, r0
1000696c:	b29a      	uxth	r2, r3
1000696e:	4351      	muls	r1, r2
10006970:	0c04      	lsrs	r4, r0, #16
10006972:	4362      	muls	r2, r4
10006974:	0c1b      	lsrs	r3, r3, #16
10006976:	435c      	muls	r4, r3
10006978:	b280      	uxth	r0, r0
1000697a:	4358      	muls	r0, r3
1000697c:	1812      	adds	r2, r2, r0
1000697e:	d302      	bcc.n	10006986 <l15_1>
10006980:	2001      	movs	r0, #1
10006982:	0400      	lsls	r0, r0, #16
10006984:	1824      	adds	r4, r4, r0

10006986 <l15_1>:
10006986:	0410      	lsls	r0, r2, #16
10006988:	0c13      	lsrs	r3, r2, #16
1000698a:	1840      	adds	r0, r0, r1
1000698c:	4163      	adcs	r3, r4
1000698e:	182d      	adds	r5, r5, r0
10006990:	415e      	adcs	r6, r3
10006992:	2000      	movs	r0, #0
10006994:	4147      	adcs	r7, r0
10006996:	bc06      	pop	{r1, r2}
10006998:	b288      	uxth	r0, r1
1000699a:	b293      	uxth	r3, r2
1000699c:	4358      	muls	r0, r3
1000699e:	0c0c      	lsrs	r4, r1, #16
100069a0:	4363      	muls	r3, r4
100069a2:	0c12      	lsrs	r2, r2, #16
100069a4:	4354      	muls	r4, r2
100069a6:	b289      	uxth	r1, r1
100069a8:	4351      	muls	r1, r2
100069aa:	185b      	adds	r3, r3, r1
100069ac:	d302      	bcc.n	100069b4 <l16_1>
100069ae:	2101      	movs	r1, #1
100069b0:	0409      	lsls	r1, r1, #16
100069b2:	1864      	adds	r4, r4, r1

100069b4 <l16_1>:
100069b4:	0419      	lsls	r1, r3, #16
100069b6:	0c1a      	lsrs	r2, r3, #16
100069b8:	1809      	adds	r1, r1, r0
100069ba:	4162      	adcs	r2, r4
100069bc:	186d      	adds	r5, r5, r1
100069be:	4156      	adcs	r6, r2
100069c0:	2000      	movs	r0, #0
100069c2:	4147      	adcs	r7, r0
100069c4:	bc18      	pop	{r3, r4}
100069c6:	02f9      	lsls	r1, r7, #11
100069c8:	0d72      	lsrs	r2, r6, #21
100069ca:	4311      	orrs	r1, r2
100069cc:	02f0      	lsls	r0, r6, #11
100069ce:	0d6a      	lsrs	r2, r5, #21
100069d0:	4310      	orrs	r0, r2
100069d2:	02ed      	lsls	r5, r5, #11
100069d4:	0d0a      	lsrs	r2, r1, #20
100069d6:	d103      	bne.n	100069e0 <l16_1+0x2c>
100069d8:	196d      	adds	r5, r5, r5
100069da:	4140      	adcs	r0, r0
100069dc:	4149      	adcs	r1, r1
100069de:	3b01      	subs	r3, #1
100069e0:	4e12      	ldr	r6, [pc, #72]	; (10006a2c <dm_1+0xa>)
100069e2:	1b9b      	subs	r3, r3, r6
100069e4:	0076      	lsls	r6, r6, #1
100069e6:	42b3      	cmp	r3, r6
100069e8:	d20e      	bcs.n	10006a08 <dm_0>
100069ea:	006d      	lsls	r5, r5, #1
100069ec:	d307      	bcc.n	100069fe <l16_1+0x4a>
100069ee:	3001      	adds	r0, #1
100069f0:	2600      	movs	r6, #0
100069f2:	4171      	adcs	r1, r6
100069f4:	4666      	mov	r6, ip
100069f6:	4335      	orrs	r5, r6
100069f8:	d101      	bne.n	100069fe <l16_1+0x4a>
100069fa:	0840      	lsrs	r0, r0, #1
100069fc:	0040      	lsls	r0, r0, #1
100069fe:	051b      	lsls	r3, r3, #20
10006a00:	18c9      	adds	r1, r1, r3

10006a02 <dm_2>:
10006a02:	07e4      	lsls	r4, r4, #31
10006a04:	4421      	add	r1, r4
10006a06:	bdf0      	pop	{r4, r5, r6, r7, pc}

10006a08 <dm_0>:
10006a08:	da0b      	bge.n	10006a22 <dm_1>
10006a0a:	3301      	adds	r3, #1
10006a0c:	d106      	bne.n	10006a1c <dm_0+0x14>
10006a0e:	3001      	adds	r0, #1
10006a10:	d104      	bne.n	10006a1c <dm_0+0x14>
10006a12:	3101      	adds	r1, #1
10006a14:	0d4f      	lsrs	r7, r1, #21
10006a16:	d001      	beq.n	10006a1c <dm_0+0x14>
10006a18:	0849      	lsrs	r1, r1, #1
10006a1a:	e7f2      	b.n	10006a02 <dm_2>
10006a1c:	07e1      	lsls	r1, r4, #31
10006a1e:	2000      	movs	r0, #0
10006a20:	bdf0      	pop	{r4, r5, r6, r7, pc}

10006a22 <dm_1>:
10006a22:	3601      	adds	r6, #1
10006a24:	0531      	lsls	r1, r6, #20
10006a26:	2000      	movs	r0, #0
10006a28:	e7eb      	b.n	10006a02 <dm_2>
10006a2a:	0000      	.short	0x0000
10006a2c:	000003ff 	.word	0x000003ff

10006a30 <ddiv_shim>:
10006a30:	b5f0      	push	{r4, r5, r6, r7, lr}

10006a32 <ddiv0>:
10006a32:	0d1c      	lsrs	r4, r3, #20
10006a34:	1e67      	subs	r7, r4, #1
10006a36:	053f      	lsls	r7, r7, #20
10006a38:	1bdb      	subs	r3, r3, r7
10006a3a:	0ae7      	lsrs	r7, r4, #11
10006a3c:	0564      	lsls	r4, r4, #21
10006a3e:	0d64      	lsrs	r4, r4, #21
10006a40:	d002      	beq.n	10006a48 <l19_1>
10006a42:	1c66      	adds	r6, r4, #1
10006a44:	0af6      	lsrs	r6, r6, #11
10006a46:	d004      	beq.n	10006a52 <l19_2>

10006a48 <l19_1>:
10006a48:	2200      	movs	r2, #0
10006a4a:	2301      	movs	r3, #1
10006a4c:	051b      	lsls	r3, r3, #20
10006a4e:	3c80      	subs	r4, #128	; 0x80
10006a50:	0324      	lsls	r4, r4, #12

10006a52 <l19_2>:
10006a52:	25d0      	movs	r5, #208	; 0xd0
10006a54:	062d      	lsls	r5, r5, #24
10006a56:	2600      	movs	r6, #0
10006a58:	43f6      	mvns	r6, r6
10006a5a:	662e      	str	r6, [r5, #96]	; 0x60
10006a5c:	091e      	lsrs	r6, r3, #4
10006a5e:	666e      	str	r6, [r5, #100]	; 0x64
10006a60:	0fce      	lsrs	r6, r1, #31
10006a62:	19f6      	adds	r6, r6, r7
10006a64:	46b4      	mov	ip, r6
10006a66:	0049      	lsls	r1, r1, #1
10006a68:	0d4f      	lsrs	r7, r1, #21
10006a6a:	d002      	beq.n	10006a72 <l19_2+0x20>
10006a6c:	1c7e      	adds	r6, r7, #1
10006a6e:	0af6      	lsrs	r6, r6, #11
10006a70:	d003      	beq.n	10006a7a <l19_2+0x28>
10006a72:	2000      	movs	r0, #0
10006a74:	2100      	movs	r1, #0
10006a76:	3f40      	subs	r7, #64	; 0x40
10006a78:	033f      	lsls	r7, r7, #12
10006a7a:	1b3e      	subs	r6, r7, r4
10006a7c:	00b6      	lsls	r6, r6, #2
10006a7e:	44b4      	add	ip, r6
10006a80:	3f01      	subs	r7, #1
10006a82:	057f      	lsls	r7, r7, #21
10006a84:	1bc9      	subs	r1, r1, r7
10006a86:	0849      	lsrs	r1, r1, #1
10006a88:	6f2e      	ldr	r6, [r5, #112]	; 0x70
10006a8a:	3601      	adds	r6, #1
10006a8c:	0876      	lsrs	r6, r6, #1
10006a8e:	029c      	lsls	r4, r3, #10
10006a90:	0d95      	lsrs	r5, r2, #22
10006a92:	4325      	orrs	r5, r4
10006a94:	4375      	muls	r5, r6
10006a96:	13ed      	asrs	r5, r5, #15
10006a98:	4375      	muls	r5, r6
10006a9a:	13ad      	asrs	r5, r5, #14
10006a9c:	3501      	adds	r5, #1
10006a9e:	106d      	asrs	r5, r5, #1
10006aa0:	03f6      	lsls	r6, r6, #15
10006aa2:	1b76      	subs	r6, r6, r5
10006aa4:	b40c      	push	{r2, r3}
10006aa6:	02cc      	lsls	r4, r1, #11
10006aa8:	0d45      	lsrs	r5, r0, #21
10006aaa:	432c      	orrs	r4, r5
10006aac:	b2a2      	uxth	r2, r4
10006aae:	b2b3      	uxth	r3, r6
10006ab0:	435a      	muls	r2, r3
10006ab2:	0c27      	lsrs	r7, r4, #16
10006ab4:	437b      	muls	r3, r7
10006ab6:	0c35      	lsrs	r5, r6, #16
10006ab8:	436f      	muls	r7, r5
10006aba:	b2a4      	uxth	r4, r4
10006abc:	436c      	muls	r4, r5
10006abe:	191b      	adds	r3, r3, r4
10006ac0:	d302      	bcc.n	10006ac8 <l20_1>
10006ac2:	2401      	movs	r4, #1
10006ac4:	0424      	lsls	r4, r4, #16
10006ac6:	193f      	adds	r7, r7, r4

10006ac8 <l20_1>:
10006ac8:	041c      	lsls	r4, r3, #16
10006aca:	0c1d      	lsrs	r5, r3, #16
10006acc:	18a4      	adds	r4, r4, r2
10006ace:	417d      	adcs	r5, r7
10006ad0:	1924      	adds	r4, r4, r4
10006ad2:	416d      	adcs	r5, r5
10006ad4:	9a00      	ldr	r2, [sp, #0]
10006ad6:	b291      	uxth	r1, r2
10006ad8:	b2ac      	uxth	r4, r5
10006ada:	4361      	muls	r1, r4
10006adc:	0c17      	lsrs	r7, r2, #16
10006ade:	437c      	muls	r4, r7
10006ae0:	0c2b      	lsrs	r3, r5, #16
10006ae2:	435f      	muls	r7, r3
10006ae4:	b292      	uxth	r2, r2
10006ae6:	435a      	muls	r2, r3
10006ae8:	18a4      	adds	r4, r4, r2
10006aea:	d302      	bcc.n	10006af2 <l21_1>
10006aec:	2201      	movs	r2, #1
10006aee:	0412      	lsls	r2, r2, #16
10006af0:	18bf      	adds	r7, r7, r2

10006af2 <l21_1>:
10006af2:	0422      	lsls	r2, r4, #16
10006af4:	0c23      	lsrs	r3, r4, #16
10006af6:	1852      	adds	r2, r2, r1
10006af8:	417b      	adcs	r3, r7
10006afa:	9c01      	ldr	r4, [sp, #4]
10006afc:	436c      	muls	r4, r5
10006afe:	191b      	adds	r3, r3, r4
10006b00:	0e52      	lsrs	r2, r2, #25
10006b02:	01d9      	lsls	r1, r3, #7
10006b04:	430a      	orrs	r2, r1
10006b06:	0144      	lsls	r4, r0, #5
10006b08:	1aa0      	subs	r0, r4, r2
10006b0a:	b281      	uxth	r1, r0
10006b0c:	b2b2      	uxth	r2, r6
10006b0e:	4351      	muls	r1, r2
10006b10:	1403      	asrs	r3, r0, #16
10006b12:	435a      	muls	r2, r3
10006b14:	0c36      	lsrs	r6, r6, #16
10006b16:	4373      	muls	r3, r6
10006b18:	b287      	uxth	r7, r0
10006b1a:	4377      	muls	r7, r6
10006b1c:	17d6      	asrs	r6, r2, #31
10006b1e:	19d2      	adds	r2, r2, r7
10006b20:	2700      	movs	r7, #0
10006b22:	417e      	adcs	r6, r7
10006b24:	0436      	lsls	r6, r6, #16
10006b26:	199b      	adds	r3, r3, r6
10006b28:	0417      	lsls	r7, r2, #16
10006b2a:	0c16      	lsrs	r6, r2, #16
10006b2c:	187f      	adds	r7, r7, r1
10006b2e:	415e      	adcs	r6, r3
10006b30:	1673      	asrs	r3, r6, #25
10006b32:	18ed      	adds	r5, r5, r3
10006b34:	01f3      	lsls	r3, r6, #7
10006b36:	2600      	movs	r6, #0
10006b38:	3380      	adds	r3, #128	; 0x80
10006b3a:	4175      	adcs	r5, r6
10006b3c:	0fa9      	lsrs	r1, r5, #30
10006b3e:	d106      	bne.n	10006b4e <dd_0>
10006b40:	0064      	lsls	r4, r4, #1
10006b42:	0a69      	lsrs	r1, r5, #9
10006b44:	05e8      	lsls	r0, r5, #23
10006b46:	0a5b      	lsrs	r3, r3, #9
10006b48:	4318      	orrs	r0, r3
10006b4a:	d209      	bcs.n	10006b60 <dd_1>
10006b4c:	e02f      	b.n	10006bae <dd_2>

10006b4e <dd_0>:
10006b4e:	2204      	movs	r2, #4
10006b50:	4494      	add	ip, r2
10006b52:	3380      	adds	r3, #128	; 0x80
10006b54:	4175      	adcs	r5, r6
10006b56:	0aa9      	lsrs	r1, r5, #10
10006b58:	05a8      	lsls	r0, r5, #22
10006b5a:	0a9b      	lsrs	r3, r3, #10
10006b5c:	4318      	orrs	r0, r3
10006b5e:	d326      	bcc.n	10006bae <dd_2>

10006b60 <dd_1>:
10006b60:	4140      	adcs	r0, r0
10006b62:	4149      	adcs	r1, r1
10006b64:	0424      	lsls	r4, r4, #16
10006b66:	9a00      	ldr	r2, [sp, #0]
10006b68:	9b01      	ldr	r3, [sp, #4]
10006b6a:	000d      	movs	r5, r1
10006b6c:	4355      	muls	r5, r2
10006b6e:	1b64      	subs	r4, r4, r5
10006b70:	4343      	muls	r3, r0
10006b72:	1ae4      	subs	r4, r4, r3
10006b74:	b295      	uxth	r5, r2
10006b76:	b286      	uxth	r6, r0
10006b78:	4375      	muls	r5, r6
10006b7a:	0c17      	lsrs	r7, r2, #16
10006b7c:	437e      	muls	r6, r7
10006b7e:	0c03      	lsrs	r3, r0, #16
10006b80:	435f      	muls	r7, r3
10006b82:	b292      	uxth	r2, r2
10006b84:	435a      	muls	r2, r3
10006b86:	18b6      	adds	r6, r6, r2
10006b88:	d302      	bcc.n	10006b90 <l23_1>
10006b8a:	2201      	movs	r2, #1
10006b8c:	0412      	lsls	r2, r2, #16
10006b8e:	18bf      	adds	r7, r7, r2

10006b90 <l23_1>:
10006b90:	0432      	lsls	r2, r6, #16
10006b92:	0c33      	lsrs	r3, r6, #16
10006b94:	1952      	adds	r2, r2, r5
10006b96:	417b      	adcs	r3, r7
10006b98:	4252      	negs	r2, r2
10006b9a:	419c      	sbcs	r4, r3
10006b9c:	2c00      	cmp	r4, #0
10006b9e:	d402      	bmi.n	10006ba6 <l23_1+0x16>
10006ba0:	2200      	movs	r2, #0
10006ba2:	3001      	adds	r0, #1
10006ba4:	4151      	adcs	r1, r2
10006ba6:	0840      	lsrs	r0, r0, #1
10006ba8:	07ca      	lsls	r2, r1, #31
10006baa:	4310      	orrs	r0, r2
10006bac:	0849      	lsrs	r1, r1, #1

10006bae <dd_2>:
10006bae:	b002      	add	sp, #8
10006bb0:	4662      	mov	r2, ip
10006bb2:	07d7      	lsls	r7, r2, #31
10006bb4:	1092      	asrs	r2, r2, #2
10006bb6:	4b08      	ldr	r3, [pc, #32]	; (10006bd8 <dd_4+0x6>)
10006bb8:	18d2      	adds	r2, r2, r3
10006bba:	4b08      	ldr	r3, [pc, #32]	; (10006bdc <dd_4+0xa>)
10006bbc:	429a      	cmp	r2, r3
10006bbe:	d203      	bcs.n	10006bc8 <dd_3>
10006bc0:	0512      	lsls	r2, r2, #20
10006bc2:	1889      	adds	r1, r1, r2

10006bc4 <dd_5>:
10006bc4:	19c9      	adds	r1, r1, r7
10006bc6:	bdf0      	pop	{r4, r5, r6, r7, pc}

10006bc8 <dd_3>:
10006bc8:	2000      	movs	r0, #0
10006bca:	2a00      	cmp	r2, #0
10006bcc:	dc01      	bgt.n	10006bd2 <dd_4>
10006bce:	0039      	movs	r1, r7
10006bd0:	bdf0      	pop	{r4, r5, r6, r7, pc}

10006bd2 <dd_4>:
10006bd2:	3301      	adds	r3, #1
10006bd4:	0519      	lsls	r1, r3, #20
10006bd6:	e7f5      	b.n	10006bc4 <dd_5>
10006bd8:	000003fd 	.word	0x000003fd
10006bdc:	000007fe 	.word	0x000007fe

10006be0 <dcordic_vec_step>:
10006be0:	4662      	mov	r2, ip
10006be2:	ca18      	ldmia	r2!, {r3, r4}
10006be4:	4694      	mov	ip, r2
10006be6:	465a      	mov	r2, fp
10006be8:	2a00      	cmp	r2, #0
10006bea:	db20      	blt.n	10006c2e <dcordic_rot_step+0x40>
10006bec:	e004      	b.n	10006bf8 <dcordic_rot_step+0xa>

10006bee <dcordic_rot_step>:
10006bee:	4662      	mov	r2, ip
10006bf0:	ca18      	ldmia	r2!, {r3, r4}
10006bf2:	4694      	mov	ip, r2
10006bf4:	2900      	cmp	r1, #0
10006bf6:	da1a      	bge.n	10006c2e <dcordic_rot_step+0x40>
10006bf8:	18c0      	adds	r0, r0, r3
10006bfa:	4161      	adcs	r1, r4
10006bfc:	465b      	mov	r3, fp
10006bfe:	413b      	asrs	r3, r7
10006c00:	465c      	mov	r4, fp
10006c02:	40b4      	lsls	r4, r6
10006c04:	4652      	mov	r2, sl
10006c06:	40fa      	lsrs	r2, r7
10006c08:	4322      	orrs	r2, r4
10006c0a:	4644      	mov	r4, r8
10006c0c:	464d      	mov	r5, r9
10006c0e:	4162      	adcs	r2, r4
10006c10:	416b      	adcs	r3, r5
10006c12:	4690      	mov	r8, r2
10006c14:	4699      	mov	r9, r3
10006c16:	462b      	mov	r3, r5
10006c18:	40b3      	lsls	r3, r6
10006c1a:	413d      	asrs	r5, r7
10006c1c:	40fc      	lsrs	r4, r7
10006c1e:	431c      	orrs	r4, r3
10006c20:	4652      	mov	r2, sl
10006c22:	465b      	mov	r3, fp
10006c24:	41a2      	sbcs	r2, r4
10006c26:	41ab      	sbcs	r3, r5
10006c28:	4692      	mov	sl, r2
10006c2a:	469b      	mov	fp, r3
10006c2c:	4770      	bx	lr
10006c2e:	1ac0      	subs	r0, r0, r3
10006c30:	41a1      	sbcs	r1, r4
10006c32:	464b      	mov	r3, r9
10006c34:	413b      	asrs	r3, r7
10006c36:	464c      	mov	r4, r9
10006c38:	40b4      	lsls	r4, r6
10006c3a:	4642      	mov	r2, r8
10006c3c:	40fa      	lsrs	r2, r7
10006c3e:	4322      	orrs	r2, r4
10006c40:	4654      	mov	r4, sl
10006c42:	465d      	mov	r5, fp
10006c44:	4162      	adcs	r2, r4
10006c46:	416b      	adcs	r3, r5
10006c48:	4692      	mov	sl, r2
10006c4a:	469b      	mov	fp, r3
10006c4c:	462b      	mov	r3, r5
10006c4e:	40b3      	lsls	r3, r6
10006c50:	413d      	asrs	r5, r7
10006c52:	40fc      	lsrs	r4, r7
10006c54:	431c      	orrs	r4, r3
10006c56:	4642      	mov	r2, r8
10006c58:	464b      	mov	r3, r9
10006c5a:	41a2      	sbcs	r2, r4
10006c5c:	41ab      	sbcs	r3, r5
10006c5e:	4690      	mov	r8, r2
10006c60:	4699      	mov	r9, r3
10006c62:	4770      	bx	lr

10006c64 <double2uint_shim>:
10006c64:	2200      	movs	r2, #0

10006c66 <double2ufix_shim>:
10006c66:	b500      	push	{lr}
10006c68:	3220      	adds	r2, #32
10006c6a:	f000 f810 	bl	10006c8e <double2ufix64_shim>
10006c6e:	0008      	movs	r0, r1
10006c70:	bd00      	pop	{pc}

10006c72 <double2int64_shim>:
10006c72:	2200      	movs	r2, #0

10006c74 <double2fix64_shim>:
10006c74:	b500      	push	{lr}
10006c76:	f000 f80c 	bl	10006c92 <d2fix>
10006c7a:	17ca      	asrs	r2, r1, #31
10006c7c:	429a      	cmp	r2, r3
10006c7e:	d100      	bne.n	10006c82 <double2fix64_shim+0xe>
10006c80:	bd00      	pop	{pc}
10006c82:	43d8      	mvns	r0, r3
10006c84:	2101      	movs	r1, #1
10006c86:	07c9      	lsls	r1, r1, #31
10006c88:	4041      	eors	r1, r0
10006c8a:	bd00      	pop	{pc}

10006c8c <double2uint64_shim>:
10006c8c:	2200      	movs	r2, #0

10006c8e <double2ufix64_shim>:
10006c8e:	150b      	asrs	r3, r1, #20
10006c90:	d40a      	bmi.n	10006ca8 <ret_dzero>

10006c92 <d2fix>:
10006c92:	b510      	push	{r4, lr}
10006c94:	4694      	mov	ip, r2
10006c96:	f000 f8a7 	bl	10006de8 <dunpacks>
10006c9a:	1414      	asrs	r4, r2, #16
10006c9c:	3401      	adds	r4, #1
10006c9e:	da00      	bge.n	10006ca2 <d2fix+0x10>
10006ca0:	2100      	movs	r1, #0
10006ca2:	17cb      	asrs	r3, r1, #31
10006ca4:	4c14      	ldr	r4, [pc, #80]	; (10006cf8 <d2fix_a+0x4a>)
10006ca6:	4720      	bx	r4

10006ca8 <ret_dzero>:
10006ca8:	2000      	movs	r0, #0
10006caa:	2100      	movs	r1, #0
10006cac:	4770      	bx	lr

10006cae <d2fix_a>:
10006cae:	4462      	add	r2, ip
10006cb0:	3a34      	subs	r2, #52	; 0x34
10006cb2:	d40c      	bmi.n	10006cce <d2fix_a+0x20>
10006cb4:	2a0c      	cmp	r2, #12
10006cb6:	da07      	bge.n	10006cc8 <d2fix_a+0x1a>
10006cb8:	0004      	movs	r4, r0
10006cba:	4091      	lsls	r1, r2
10006cbc:	4090      	lsls	r0, r2
10006cbe:	4252      	negs	r2, r2
10006cc0:	3220      	adds	r2, #32
10006cc2:	40d4      	lsrs	r4, r2
10006cc4:	4321      	orrs	r1, r4
10006cc6:	bd10      	pop	{r4, pc}
10006cc8:	43d8      	mvns	r0, r3
10006cca:	43d9      	mvns	r1, r3
10006ccc:	bd10      	pop	{r4, pc}
10006cce:	3220      	adds	r2, #32
10006cd0:	d407      	bmi.n	10006ce2 <d2fix_a+0x34>
10006cd2:	460c      	mov	r4, r1
10006cd4:	4094      	lsls	r4, r2
10006cd6:	4252      	negs	r2, r2
10006cd8:	3220      	adds	r2, #32
10006cda:	4111      	asrs	r1, r2
10006cdc:	40d0      	lsrs	r0, r2
10006cde:	4320      	orrs	r0, r4
10006ce0:	bd10      	pop	{r4, pc}
10006ce2:	0008      	movs	r0, r1
10006ce4:	17c9      	asrs	r1, r1, #31
10006ce6:	3220      	adds	r2, #32
10006ce8:	d403      	bmi.n	10006cf2 <d2fix_a+0x44>
10006cea:	4252      	negs	r2, r2
10006cec:	3220      	adds	r2, #32
10006cee:	4110      	asrs	r0, r2
10006cf0:	bd10      	pop	{r4, pc}
10006cf2:	0018      	movs	r0, r3
10006cf4:	0019      	movs	r1, r3
10006cf6:	bd10      	pop	{r4, pc}
10006cf8:	10006caf 	.word	0x10006caf

10006cfc <double2float_shim>:
10006cfc:	004a      	lsls	r2, r1, #1
10006cfe:	0d52      	lsrs	r2, r2, #21
10006d00:	4b14      	ldr	r3, [pc, #80]	; (10006d54 <double2float_shim+0x58>)
10006d02:	1ad2      	subs	r2, r2, r3
10006d04:	dd13      	ble.n	10006d2e <double2float_shim+0x32>
10006d06:	2aff      	cmp	r2, #255	; 0xff
10006d08:	da1e      	bge.n	10006d48 <double2float_shim+0x4c>
10006d0a:	05d2      	lsls	r2, r2, #23
10006d0c:	0fcb      	lsrs	r3, r1, #31
10006d0e:	07db      	lsls	r3, r3, #31
10006d10:	431a      	orrs	r2, r3
10006d12:	00c3      	lsls	r3, r0, #3
10006d14:	0f40      	lsrs	r0, r0, #29
10006d16:	0309      	lsls	r1, r1, #12
10006d18:	0a49      	lsrs	r1, r1, #9
10006d1a:	4308      	orrs	r0, r1
10006d1c:	4310      	orrs	r0, r2
10006d1e:	005b      	lsls	r3, r3, #1
10006d20:	d301      	bcc.n	10006d26 <double2float_shim+0x2a>
10006d22:	d001      	beq.n	10006d28 <double2float_shim+0x2c>
10006d24:	3001      	adds	r0, #1
10006d26:	4770      	bx	lr
10006d28:	0843      	lsrs	r3, r0, #1
10006d2a:	d2fb      	bcs.n	10006d24 <double2float_shim+0x28>
10006d2c:	4770      	bx	lr
10006d2e:	d002      	beq.n	10006d36 <double2float_shim+0x3a>
10006d30:	0fc8      	lsrs	r0, r1, #31
10006d32:	07c0      	lsls	r0, r0, #31
10006d34:	4770      	bx	lr
10006d36:	030a      	lsls	r2, r1, #12
10006d38:	1312      	asrs	r2, r2, #12
10006d3a:	3201      	adds	r2, #1
10006d3c:	d1f8      	bne.n	10006d30 <double2float_shim+0x34>
10006d3e:	0f42      	lsrs	r2, r0, #29
10006d40:	2a07      	cmp	r2, #7
10006d42:	d1f5      	bne.n	10006d30 <double2float_shim+0x34>
10006d44:	2201      	movs	r2, #1
10006d46:	e000      	b.n	10006d4a <double2float_shim+0x4e>
10006d48:	22ff      	movs	r2, #255	; 0xff
10006d4a:	0fc8      	lsrs	r0, r1, #31
10006d4c:	0200      	lsls	r0, r0, #8
10006d4e:	1880      	adds	r0, r0, r2
10006d50:	05c0      	lsls	r0, r0, #23
10006d52:	4770      	bx	lr
10006d54:	00000380 	.word	0x00000380

10006d58 <uint2double_shim>:
10006d58:	2100      	movs	r1, #0

10006d5a <ufix2double_shim>:
10006d5a:	000a      	movs	r2, r1
10006d5c:	2100      	movs	r1, #0
10006d5e:	e004      	b.n	10006d6a <ufix642double_shim>

10006d60 <int2double_shim>:
10006d60:	2100      	movs	r1, #0

10006d62 <fix2double_shim>:
10006d62:	000a      	movs	r2, r1
10006d64:	17c1      	asrs	r1, r0, #31
10006d66:	e004      	b.n	10006d72 <fix642double_shim>

10006d68 <uint642double_shim>:
10006d68:	2200      	movs	r2, #0

10006d6a <ufix642double_shim>:
10006d6a:	2300      	movs	r3, #0
10006d6c:	e006      	b.n	10006d7c <uf2d>
10006d6e:	46c0      	nop			; (mov r8, r8)

10006d70 <int642double_shim>:
10006d70:	2200      	movs	r2, #0

10006d72 <fix642double_shim>:
10006d72:	17cb      	asrs	r3, r1, #31
10006d74:	4058      	eors	r0, r3
10006d76:	4059      	eors	r1, r3
10006d78:	1ac0      	subs	r0, r0, r3
10006d7a:	4199      	sbcs	r1, r3

10006d7c <uf2d>:
10006d7c:	b530      	push	{r4, r5, lr}
10006d7e:	4c18      	ldr	r4, [pc, #96]	; (10006de0 <uf2d+0x64>)
10006d80:	1aa2      	subs	r2, r4, r2
10006d82:	2900      	cmp	r1, #0
10006d84:	d103      	bne.n	10006d8e <uf2d+0x12>
10006d86:	0001      	movs	r1, r0
10006d88:	d010      	beq.n	10006dac <uf2d+0x30>
10006d8a:	2000      	movs	r0, #0
10006d8c:	3a20      	subs	r2, #32
10006d8e:	154c      	asrs	r4, r1, #21
10006d90:	d112      	bne.n	10006db8 <uf2d+0x3c>
10006d92:	d204      	bcs.n	10006d9e <uf2d+0x22>
10006d94:	3a01      	subs	r2, #1
10006d96:	1800      	adds	r0, r0, r0
10006d98:	4149      	adcs	r1, r1
10006d9a:	0d4c      	lsrs	r4, r1, #21
10006d9c:	d3fa      	bcc.n	10006d94 <uf2d+0x18>
10006d9e:	4c11      	ldr	r4, [pc, #68]	; (10006de4 <uf2d+0x68>)
10006da0:	42a2      	cmp	r2, r4
10006da2:	d204      	bcs.n	10006dae <uf2d+0x32>
10006da4:	0512      	lsls	r2, r2, #20
10006da6:	1889      	adds	r1, r1, r2
10006da8:	07db      	lsls	r3, r3, #31
10006daa:	18c9      	adds	r1, r1, r3
10006dac:	bd30      	pop	{r4, r5, pc}
10006dae:	43d2      	mvns	r2, r2
10006db0:	0d52      	lsrs	r2, r2, #21
10006db2:	2000      	movs	r0, #0
10006db4:	2100      	movs	r1, #0
10006db6:	e7f5      	b.n	10006da4 <uf2d+0x28>
10006db8:	d403      	bmi.n	10006dc2 <uf2d+0x46>
10006dba:	3a01      	subs	r2, #1
10006dbc:	1800      	adds	r0, r0, r0
10006dbe:	4149      	adcs	r1, r1
10006dc0:	d5fb      	bpl.n	10006dba <uf2d+0x3e>
10006dc2:	320b      	adds	r2, #11
10006dc4:	0544      	lsls	r4, r0, #21
10006dc6:	0ac0      	lsrs	r0, r0, #11
10006dc8:	054d      	lsls	r5, r1, #21
10006dca:	4328      	orrs	r0, r5
10006dcc:	0ac9      	lsrs	r1, r1, #11
10006dce:	0064      	lsls	r4, r4, #1
10006dd0:	d003      	beq.n	10006dda <uf2d+0x5e>
10006dd2:	2400      	movs	r4, #0
10006dd4:	4160      	adcs	r0, r4
10006dd6:	4161      	adcs	r1, r4
10006dd8:	e7e1      	b.n	10006d9e <uf2d+0x22>
10006dda:	d3e0      	bcc.n	10006d9e <uf2d+0x22>
10006ddc:	0844      	lsrs	r4, r0, #1
10006dde:	e7f8      	b.n	10006dd2 <uf2d+0x56>
10006de0:	00000432 	.word	0x00000432
10006de4:	000007fe 	.word	0x000007fe

10006de8 <dunpacks>:
10006de8:	0d0a      	lsrs	r2, r1, #20
10006dea:	0fcc      	lsrs	r4, r1, #31
10006dec:	1e53      	subs	r3, r2, #1
10006dee:	051b      	lsls	r3, r3, #20
10006df0:	1ac9      	subs	r1, r1, r3
10006df2:	0552      	lsls	r2, r2, #21
10006df4:	d303      	bcc.n	10006dfe <l59_1>
10006df6:	43c9      	mvns	r1, r1
10006df8:	4240      	negs	r0, r0
10006dfa:	d300      	bcc.n	10006dfe <l59_1>
10006dfc:	3101      	adds	r1, #1

10006dfe <l59_1>:
10006dfe:	0d52      	lsrs	r2, r2, #21
10006e00:	d003      	beq.n	10006e0a <l59_2>
10006e02:	1c53      	adds	r3, r2, #1
10006e04:	0adb      	lsrs	r3, r3, #11
10006e06:	d007      	beq.n	10006e18 <l59_3>
10006e08:	1b12      	subs	r2, r2, r4

10006e0a <l59_2>:
10006e0a:	2000      	movs	r0, #0
10006e0c:	0064      	lsls	r4, r4, #1
10006e0e:	1c61      	adds	r1, r4, #1
10006e10:	0789      	lsls	r1, r1, #30
10006e12:	1289      	asrs	r1, r1, #10
10006e14:	3a80      	subs	r2, #128	; 0x80
10006e16:	0312      	lsls	r2, r2, #12

10006e18 <l59_3>:
10006e18:	4b01      	ldr	r3, [pc, #4]	; (10006e20 <l59_3+0x8>)
10006e1a:	1ad2      	subs	r2, r2, r3
10006e1c:	4770      	bx	lr
10006e1e:	0000      	.short	0x0000
10006e20:	000003ff 	.word	0x000003ff

10006e24 <dreduce>:
10006e24:	3202      	adds	r2, #2
10006e26:	d425      	bmi.n	10006e74 <dreduce+0x50>
10006e28:	2a0c      	cmp	r2, #12
10006e2a:	da1c      	bge.n	10006e66 <dreduce+0x42>
10006e2c:	2511      	movs	r5, #17
10006e2e:	1aad      	subs	r5, r5, r2
10006e30:	000b      	movs	r3, r1
10006e32:	412b      	asrs	r3, r5
10006e34:	3208      	adds	r2, #8
10006e36:	3507      	adds	r5, #7
10006e38:	0006      	movs	r6, r0
10006e3a:	40ee      	lsrs	r6, r5
10006e3c:	4090      	lsls	r0, r2
10006e3e:	4091      	lsls	r1, r2
10006e40:	4331      	orrs	r1, r6
10006e42:	ccf0      	ldmia	r4, {r4, r5, r6, r7}
10006e44:	4363      	muls	r3, r4
10006e46:	151a      	asrs	r2, r3, #20
10006e48:	2300      	movs	r3, #0
10006e4a:	415a      	adcs	r2, r3
10006e4c:	4355      	muls	r5, r2
10006e4e:	4356      	muls	r6, r2
10006e50:	4357      	muls	r7, r2
10006e52:	02bf      	lsls	r7, r7, #10
10006e54:	12f4      	asrs	r4, r6, #11
10006e56:	0576      	lsls	r6, r6, #21
10006e58:	1976      	adds	r6, r6, r5
10006e5a:	4167      	adcs	r7, r4
10006e5c:	17ed      	asrs	r5, r5, #31
10006e5e:	197f      	adds	r7, r7, r5
10006e60:	1b80      	subs	r0, r0, r6
10006e62:	41b9      	sbcs	r1, r7
10006e64:	4770      	bx	lr
10006e66:	220c      	movs	r2, #12
10006e68:	2000      	movs	r0, #0
10006e6a:	17c9      	asrs	r1, r1, #31
10006e6c:	0049      	lsls	r1, r1, #1
10006e6e:	3101      	adds	r1, #1
10006e70:	0509      	lsls	r1, r1, #20
10006e72:	e7db      	b.n	10006e2c <dreduce+0x8>
10006e74:	0209      	lsls	r1, r1, #8
10006e76:	0e03      	lsrs	r3, r0, #24
10006e78:	4319      	orrs	r1, r3
10006e7a:	0200      	lsls	r0, r0, #8
10006e7c:	4253      	negs	r3, r2
10006e7e:	3220      	adds	r2, #32
10006e80:	d408      	bmi.n	10006e94 <dreduce+0x70>
10006e82:	000c      	movs	r4, r1
10006e84:	4119      	asrs	r1, r3
10006e86:	4094      	lsls	r4, r2
10006e88:	40d8      	lsrs	r0, r3
10006e8a:	4320      	orrs	r0, r4
10006e8c:	2200      	movs	r2, #0
10006e8e:	4150      	adcs	r0, r2
10006e90:	4151      	adcs	r1, r2
10006e92:	4770      	bx	lr
10006e94:	0008      	movs	r0, r1
10006e96:	17c9      	asrs	r1, r1, #31
10006e98:	3b20      	subs	r3, #32
10006e9a:	3220      	adds	r2, #32
10006e9c:	d5f1      	bpl.n	10006e82 <dreduce+0x5e>
10006e9e:	2000      	movs	r0, #0
10006ea0:	2100      	movs	r1, #0
10006ea2:	2200      	movs	r2, #0
10006ea4:	4770      	bx	lr

10006ea6 <dsin_shim>:
10006ea6:	b5f0      	push	{r4, r5, r6, r7, lr}
10006ea8:	f7ff f946 	bl	10006138 <push_r8_r11>
10006eac:	f000 f806 	bl	10006ebc <dsincos_internal>
10006eb0:	f000 f846 	bl	10006f40 <dsin_finish>
10006eb4:	f7ff f946 	bl	10006144 <pop_r8_r11>
10006eb8:	bdf0      	pop	{r4, r5, r6, r7, pc}
	...

10006ebc <dsincos_internal>:
10006ebc:	b500      	push	{lr}
10006ebe:	f7ff ff93 	bl	10006de8 <dunpacks>
10006ec2:	a430      	add	r4, pc, #192	; (adr r4, 10006f84 <dreddata0>)
10006ec4:	f7ff ffae 	bl	10006e24 <dreduce>
10006ec8:	2400      	movs	r4, #0
10006eca:	4d2c      	ldr	r5, [pc, #176]	; (10006f7c <l72_1+0x20>)
10006ecc:	4e2c      	ldr	r6, [pc, #176]	; (10006f80 <l72_1+0x24>)
10006ece:	07d2      	lsls	r2, r2, #31
10006ed0:	d302      	bcc.n	10006ed8 <dsincos_internal+0x1c>
10006ed2:	43f6      	mvns	r6, r6
10006ed4:	426d      	negs	r5, r5
10006ed6:	4166      	adcs	r6, r4
10006ed8:	0052      	lsls	r2, r2, #1
10006eda:	d204      	bcs.n	10006ee6 <dsincos_internal+0x2a>
10006edc:	46a2      	mov	sl, r4
10006ede:	46a3      	mov	fp, r4
10006ee0:	46a8      	mov	r8, r5
10006ee2:	46b1      	mov	r9, r6
10006ee4:	e003      	b.n	10006eee <dsincos_internal+0x32>
10006ee6:	46a0      	mov	r8, r4
10006ee8:	46a1      	mov	r9, r4
10006eea:	46aa      	mov	sl, r5
10006eec:	46b3      	mov	fp, r6
10006eee:	a46e      	add	r4, pc, #440	; (adr r4, 100070a8 <dtab_cc>)
10006ef0:	46a4      	mov	ip, r4
10006ef2:	2701      	movs	r7, #1
10006ef4:	261f      	movs	r6, #31
10006ef6:	f7ff fe7a 	bl	10006bee <dcordic_rot_step>
10006efa:	3701      	adds	r7, #1
10006efc:	3e01      	subs	r6, #1
10006efe:	2f21      	cmp	r7, #33	; 0x21
10006f00:	d1f9      	bne.n	10006ef6 <dsincos_internal+0x3a>
10006f02:	bd00      	pop	{pc}

10006f04 <dcos_finish>:
10006f04:	4659      	mov	r1, fp
10006f06:	b284      	uxth	r4, r0
10006f08:	b28d      	uxth	r5, r1
10006f0a:	436c      	muls	r4, r5
10006f0c:	1406      	asrs	r6, r0, #16
10006f0e:	4375      	muls	r5, r6
10006f10:	140b      	asrs	r3, r1, #16
10006f12:	435e      	muls	r6, r3
10006f14:	b282      	uxth	r2, r0
10006f16:	435a      	muls	r2, r3
10006f18:	18ad      	adds	r5, r5, r2
10006f1a:	17ea      	asrs	r2, r5, #31
10006f1c:	d700      	bvc.n	10006f20 <l71_1>
10006f1e:	43d2      	mvns	r2, r2

10006f20 <l71_1>:
10006f20:	0412      	lsls	r2, r2, #16
10006f22:	18b6      	adds	r6, r6, r2
10006f24:	042a      	lsls	r2, r5, #16
10006f26:	0c2b      	lsrs	r3, r5, #16
10006f28:	1912      	adds	r2, r2, r4
10006f2a:	4173      	adcs	r3, r6
10006f2c:	4640      	mov	r0, r8
10006f2e:	4649      	mov	r1, r9
10006f30:	009d      	lsls	r5, r3, #2
10006f32:	179b      	asrs	r3, r3, #30
10006f34:	0f92      	lsrs	r2, r2, #30
10006f36:	432a      	orrs	r2, r5
10006f38:	4190      	sbcs	r0, r2
10006f3a:	4199      	sbcs	r1, r3
10006f3c:	223e      	movs	r2, #62	; 0x3e
10006f3e:	e718      	b.n	10006d72 <fix642double_shim>

10006f40 <dsin_finish>:
10006f40:	4649      	mov	r1, r9
10006f42:	b284      	uxth	r4, r0
10006f44:	b28d      	uxth	r5, r1
10006f46:	436c      	muls	r4, r5
10006f48:	1406      	asrs	r6, r0, #16
10006f4a:	4375      	muls	r5, r6
10006f4c:	140b      	asrs	r3, r1, #16
10006f4e:	435e      	muls	r6, r3
10006f50:	b282      	uxth	r2, r0
10006f52:	435a      	muls	r2, r3
10006f54:	18ad      	adds	r5, r5, r2
10006f56:	17ea      	asrs	r2, r5, #31
10006f58:	d700      	bvc.n	10006f5c <l72_1>
10006f5a:	43d2      	mvns	r2, r2

10006f5c <l72_1>:
10006f5c:	0412      	lsls	r2, r2, #16
10006f5e:	18b6      	adds	r6, r6, r2
10006f60:	042a      	lsls	r2, r5, #16
10006f62:	0c2b      	lsrs	r3, r5, #16
10006f64:	1912      	adds	r2, r2, r4
10006f66:	4173      	adcs	r3, r6
10006f68:	4650      	mov	r0, sl
10006f6a:	4659      	mov	r1, fp
10006f6c:	009d      	lsls	r5, r3, #2
10006f6e:	179b      	asrs	r3, r3, #30
10006f70:	0f92      	lsrs	r2, r2, #30
10006f72:	432a      	orrs	r2, r5
10006f74:	4150      	adcs	r0, r2
10006f76:	4159      	adcs	r1, r3
10006f78:	223e      	movs	r2, #62	; 0x3e
10006f7a:	e6fa      	b.n	10006d72 <fix642double_shim>
10006f7c:	9df04dbb 	.word	0x9df04dbb
10006f80:	36f656c5 	.word	0x36f656c5

10006f84 <dreddata0>:
10006f84:	0000517d 	.word	0x0000517d
10006f88:	0014611a 	.word	0x0014611a
10006f8c:	000a8885 	.word	0x000a8885
10006f90:	001921fb 	.word	0x001921fb

10006f94 <datan2_shim>:
10006f94:	b5f0      	push	{r4, r5, r6, r7, lr}
10006f96:	f7ff f8cf 	bl	10006138 <push_r8_r11>
10006f9a:	4d40      	ldr	r5, [pc, #256]	; (1000709c <datan2_shim+0x108>)
10006f9c:	000c      	movs	r4, r1
10006f9e:	402c      	ands	r4, r5
10006fa0:	d001      	beq.n	10006fa6 <datan2_shim+0x12>
10006fa2:	42ac      	cmp	r4, r5
10006fa4:	d102      	bne.n	10006fac <datan2_shim+0x18>
10006fa6:	0d09      	lsrs	r1, r1, #20
10006fa8:	0509      	lsls	r1, r1, #20
10006faa:	2000      	movs	r0, #0
10006fac:	001c      	movs	r4, r3
10006fae:	402c      	ands	r4, r5
10006fb0:	d001      	beq.n	10006fb6 <datan2_shim+0x22>
10006fb2:	42ac      	cmp	r4, r5
10006fb4:	d102      	bne.n	10006fbc <datan2_shim+0x28>
10006fb6:	0d1b      	lsrs	r3, r3, #20
10006fb8:	051b      	lsls	r3, r3, #20
10006fba:	2200      	movs	r2, #0
10006fbc:	2600      	movs	r6, #0
10006fbe:	02ed      	lsls	r5, r5, #11
10006fc0:	2b00      	cmp	r3, #0
10006fc2:	d504      	bpl.n	10006fce <datan2_shim+0x3a>
10006fc4:	2602      	movs	r6, #2
10006fc6:	406b      	eors	r3, r5
10006fc8:	4069      	eors	r1, r5
10006fca:	d400      	bmi.n	10006fce <datan2_shim+0x3a>
10006fcc:	4276      	negs	r6, r6
10006fce:	194f      	adds	r7, r1, r5
10006fd0:	d504      	bpl.n	10006fdc <datan2_shim+0x48>
10006fd2:	4299      	cmp	r1, r3
10006fd4:	dd0c      	ble.n	10006ff0 <datan2_shim+0x5c>
10006fd6:	3601      	adds	r6, #1
10006fd8:	4069      	eors	r1, r5
10006fda:	e003      	b.n	10006fe4 <datan2_shim+0x50>
10006fdc:	42bb      	cmp	r3, r7
10006fde:	da07      	bge.n	10006ff0 <datan2_shim+0x5c>
10006fe0:	3e01      	subs	r6, #1
10006fe2:	406b      	eors	r3, r5
10006fe4:	0007      	movs	r7, r0
10006fe6:	0010      	movs	r0, r2
10006fe8:	003a      	movs	r2, r7
10006fea:	000f      	movs	r7, r1
10006fec:	0019      	movs	r1, r3
10006fee:	003b      	movs	r3, r7
10006ff0:	b440      	push	{r6}
10006ff2:	2a00      	cmp	r2, #0
10006ff4:	d10f      	bne.n	10007016 <datan2_shim+0x82>
10006ff6:	2b00      	cmp	r3, #0
10006ff8:	d00a      	beq.n	10007010 <datan2_shim+0x7c>
10006ffa:	005c      	lsls	r4, r3, #1
10006ffc:	1564      	asrs	r4, r4, #21
10006ffe:	3401      	adds	r4, #1
10007000:	d109      	bne.n	10007016 <datan2_shim+0x82>
10007002:	004c      	lsls	r4, r1, #1
10007004:	1564      	asrs	r4, r4, #21
10007006:	3401      	adds	r4, #1
10007008:	d102      	bne.n	10007010 <datan2_shim+0x7c>
1000700a:	3901      	subs	r1, #1
1000700c:	3b01      	subs	r3, #1
1000700e:	e002      	b.n	10007016 <datan2_shim+0x82>
10007010:	2000      	movs	r0, #0
10007012:	2100      	movs	r1, #0
10007014:	e02e      	b.n	10007074 <datan2_shim+0xe0>
10007016:	f7ff fd0b 	bl	10006a30 <ddiv_shim>
1000701a:	223e      	movs	r2, #62	; 0x3e
1000701c:	f7ff fe2a 	bl	10006c74 <double2fix64_shim>
10007020:	4682      	mov	sl, r0
10007022:	468b      	mov	fp, r1
10007024:	2000      	movs	r0, #0
10007026:	2100      	movs	r1, #0
10007028:	4680      	mov	r8, r0
1000702a:	2201      	movs	r2, #1
1000702c:	0792      	lsls	r2, r2, #30
1000702e:	4691      	mov	r9, r2
10007030:	a41d      	add	r4, pc, #116	; (adr r4, 100070a8 <dtab_cc>)
10007032:	46a4      	mov	ip, r4
10007034:	2701      	movs	r7, #1
10007036:	261f      	movs	r6, #31
10007038:	f7ff fdd2 	bl	10006be0 <dcordic_vec_step>
1000703c:	3701      	adds	r7, #1
1000703e:	3e01      	subs	r6, #1
10007040:	2f21      	cmp	r7, #33	; 0x21
10007042:	d1f9      	bne.n	10007038 <datan2_shim+0xa4>
10007044:	464a      	mov	r2, r9
10007046:	4653      	mov	r3, sl
10007048:	3a0c      	subs	r2, #12
1000704a:	2401      	movs	r4, #1
1000704c:	0764      	lsls	r4, r4, #29
1000704e:	2700      	movs	r7, #0
10007050:	0852      	lsrs	r2, r2, #1
10007052:	001b      	movs	r3, r3
10007054:	d405      	bmi.n	10007062 <datan2_shim+0xce>
10007056:	4193      	sbcs	r3, r2
10007058:	1900      	adds	r0, r0, r4
1000705a:	4179      	adcs	r1, r7
1000705c:	0864      	lsrs	r4, r4, #1
1000705e:	d1f7      	bne.n	10007050 <datan2_shim+0xbc>
10007060:	e004      	b.n	1000706c <datan2_shim+0xd8>
10007062:	4153      	adcs	r3, r2
10007064:	1b00      	subs	r0, r0, r4
10007066:	41b9      	sbcs	r1, r7
10007068:	0864      	lsrs	r4, r4, #1
1000706a:	d1f1      	bne.n	10007050 <datan2_shim+0xbc>
1000706c:	07ce      	lsls	r6, r1, #31
1000706e:	1049      	asrs	r1, r1, #1
10007070:	0840      	lsrs	r0, r0, #1
10007072:	4330      	orrs	r0, r6
10007074:	bc40      	pop	{r6}
10007076:	2e00      	cmp	r6, #0
10007078:	d00a      	beq.n	10007090 <datan2_shim+0xfc>
1000707a:	4c09      	ldr	r4, [pc, #36]	; (100070a0 <datan2_shim+0x10c>)
1000707c:	4d09      	ldr	r5, [pc, #36]	; (100070a4 <datan2_shim+0x110>)
1000707e:	d501      	bpl.n	10007084 <datan2_shim+0xf0>
10007080:	43e4      	mvns	r4, r4
10007082:	43ed      	mvns	r5, r5
10007084:	07f6      	lsls	r6, r6, #31
10007086:	d101      	bne.n	1000708c <datan2_shim+0xf8>
10007088:	1900      	adds	r0, r0, r4
1000708a:	4169      	adcs	r1, r5
1000708c:	1900      	adds	r0, r0, r4
1000708e:	4169      	adcs	r1, r5
10007090:	223d      	movs	r2, #61	; 0x3d
10007092:	f7ff fe6e 	bl	10006d72 <fix642double_shim>
10007096:	f7ff f855 	bl	10006144 <pop_r8_r11>
1000709a:	bdf0      	pop	{r4, r5, r6, r7, pc}
1000709c:	7ff00000 	.word	0x7ff00000
100070a0:	885a308d 	.word	0x885a308d
100070a4:	3243f6a8 	.word	0x3243f6a8

100070a8 <dtab_cc>:
100070a8:	61bb4f69 	.word	0x61bb4f69
100070ac:	1dac6705 	.word	0x1dac6705
100070b0:	96406eb1 	.word	0x96406eb1
100070b4:	0fadbafc 	.word	0x0fadbafc
100070b8:	ab0bdb72 	.word	0xab0bdb72
100070bc:	07f56ea6 	.word	0x07f56ea6
100070c0:	e59fbd39 	.word	0xe59fbd39
100070c4:	03feab76 	.word	0x03feab76
100070c8:	ba97624b 	.word	0xba97624b
100070cc:	01ffd55b 	.word	0x01ffd55b
100070d0:	dddb94d6 	.word	0xdddb94d6
100070d4:	00fffaaa 	.word	0x00fffaaa
100070d8:	56eeea5d 	.word	0x56eeea5d
100070dc:	007fff55 	.word	0x007fff55
100070e0:	aab7776e 	.word	0xaab7776e
100070e4:	003fffea 	.word	0x003fffea
100070e8:	5555bbbc 	.word	0x5555bbbc
100070ec:	001ffffd 	.word	0x001ffffd
100070f0:	aaaaadde 	.word	0xaaaaadde
100070f4:	000fffff 	.word	0x000fffff
100070f8:	f555556f 	.word	0xf555556f
100070fc:	0007ffff 	.word	0x0007ffff
10007100:	feaaaaab 	.word	0xfeaaaaab
10007104:	0003ffff 	.word	0x0003ffff
10007108:	ffd55555 	.word	0xffd55555
1000710c:	0001ffff 	.word	0x0001ffff
10007110:	fffaaaab 	.word	0xfffaaaab
10007114:	0000ffff 	.word	0x0000ffff
10007118:	ffff5555 	.word	0xffff5555
1000711c:	00007fff 	.word	0x00007fff
10007120:	ffffeaab 	.word	0xffffeaab
10007124:	00003fff 	.word	0x00003fff
10007128:	fffffd55 	.word	0xfffffd55
1000712c:	00001fff 	.word	0x00001fff
10007130:	ffffffab 	.word	0xffffffab
10007134:	00000fff 	.word	0x00000fff
10007138:	fffffff5 	.word	0xfffffff5
1000713c:	000007ff 	.word	0x000007ff
10007140:	ffffffff 	.word	0xffffffff
10007144:	000003ff 	.word	0x000003ff
10007148:	00000000 	.word	0x00000000
1000714c:	00000200 	.word	0x00000200
10007150:	00000000 	.word	0x00000000
10007154:	00000100 	.word	0x00000100
10007158:	00000000 	.word	0x00000000
1000715c:	00000080 	.word	0x00000080
10007160:	00000000 	.word	0x00000000
10007164:	00000040 	.word	0x00000040
10007168:	00000000 	.word	0x00000000
1000716c:	00000020 	.word	0x00000020
10007170:	00000000 	.word	0x00000000
10007174:	00000010 	.word	0x00000010
10007178:	00000000 	.word	0x00000000
1000717c:	00000008 	.word	0x00000008
10007180:	00000000 	.word	0x00000000
10007184:	00000004 	.word	0x00000004
10007188:	00000000 	.word	0x00000000
1000718c:	00000002 	.word	0x00000002
10007190:	00000000 	.word	0x00000000
10007194:	00000001 	.word	0x00000001
10007198:	80000000 	.word	0x80000000
1000719c:	00000000 	.word	0x00000000
100071a0:	40000000 	.word	0x40000000
100071a4:	00000000 	.word	0x00000000

100071a8 <__wrap___aeabi_lmul>:
100071a8:	4351      	muls	r1, r2
100071aa:	4343      	muls	r3, r0
100071ac:	18c9      	adds	r1, r1, r3
100071ae:	468c      	mov	ip, r1
100071b0:	0c11      	lsrs	r1, r2, #16
100071b2:	b283      	uxth	r3, r0
100071b4:	434b      	muls	r3, r1
100071b6:	b410      	push	{r4}
100071b8:	0c04      	lsrs	r4, r0, #16
100071ba:	4361      	muls	r1, r4
100071bc:	b292      	uxth	r2, r2
100071be:	b280      	uxth	r0, r0
100071c0:	4350      	muls	r0, r2
100071c2:	4362      	muls	r2, r4
100071c4:	041c      	lsls	r4, r3, #16
100071c6:	0c1b      	lsrs	r3, r3, #16
100071c8:	1900      	adds	r0, r0, r4
100071ca:	bc10      	pop	{r4}
100071cc:	4159      	adcs	r1, r3
100071ce:	0413      	lsls	r3, r2, #16
100071d0:	0c12      	lsrs	r2, r2, #16
100071d2:	18c0      	adds	r0, r0, r3
100071d4:	4151      	adcs	r1, r2
100071d6:	4461      	add	r1, ip
100071d8:	4770      	bx	lr
	...

100071dc <__wrap___aeabi_frsub>:
100071dc:	4048      	eors	r0, r1
100071de:	4041      	eors	r1, r0
100071e0:	4048      	eors	r0, r1

100071e2 <__wrap___aeabi_fsub>:
100071e2:	2300      	movs	r3, #0
100071e4:	469c      	mov	ip, r3
100071e6:	4b11      	ldr	r3, [pc, #68]	; (1000722c <__wrap___aeabi_fmul+0xa>)
100071e8:	685b      	ldr	r3, [r3, #4]
100071ea:	4718      	bx	r3

100071ec <__wrap___aeabi_fadd>:
100071ec:	2300      	movs	r3, #0
100071ee:	469c      	mov	ip, r3
100071f0:	4b0e      	ldr	r3, [pc, #56]	; (1000722c <__wrap___aeabi_fmul+0xa>)
100071f2:	681b      	ldr	r3, [r3, #0]
100071f4:	4718      	bx	r3

100071f6 <__wrap___aeabi_fdiv>:
100071f6:	4a0e      	ldr	r2, [pc, #56]	; (10007230 <__wrap___aeabi_fmul+0xe>)
100071f8:	6f93      	ldr	r3, [r2, #120]	; 0x78
100071fa:	089b      	lsrs	r3, r3, #2
100071fc:	d204      	bcs.n	10007208 <fdiv_save_state>

100071fe <fdiv_shim_call>:
100071fe:	2300      	movs	r3, #0
10007200:	469c      	mov	ip, r3
10007202:	4b0a      	ldr	r3, [pc, #40]	; (1000722c <__wrap___aeabi_fmul+0xa>)
10007204:	68db      	ldr	r3, [r3, #12]
10007206:	4718      	bx	r3

10007208 <fdiv_save_state>:
10007208:	b5f0      	push	{r4, r5, r6, r7, lr}
1000720a:	6e14      	ldr	r4, [r2, #96]	; 0x60
1000720c:	6e55      	ldr	r5, [r2, #100]	; 0x64
1000720e:	6f57      	ldr	r7, [r2, #116]	; 0x74
10007210:	6f16      	ldr	r6, [r2, #112]	; 0x70
10007212:	f7ff fff4 	bl	100071fe <fdiv_shim_call>
10007216:	4a06      	ldr	r2, [pc, #24]	; (10007230 <__wrap___aeabi_fmul+0xe>)
10007218:	6614      	str	r4, [r2, #96]	; 0x60
1000721a:	6655      	str	r5, [r2, #100]	; 0x64
1000721c:	6757      	str	r7, [r2, #116]	; 0x74
1000721e:	6716      	str	r6, [r2, #112]	; 0x70
10007220:	bdf0      	pop	{r4, r5, r6, r7, pc}

10007222 <__wrap___aeabi_fmul>:
10007222:	2300      	movs	r3, #0
10007224:	469c      	mov	ip, r3
10007226:	4b01      	ldr	r3, [pc, #4]	; (1000722c <__wrap___aeabi_fmul+0xa>)
10007228:	689b      	ldr	r3, [r3, #8]
1000722a:	4718      	bx	r3
1000722c:	20001f64 	.word	0x20001f64
10007230:	d0000000 	.word	0xd0000000

10007234 <__wrap___aeabi_cfrcmple>:
10007234:	b507      	push	{r0, r1, r2, lr}
10007236:	4048      	eors	r0, r1
10007238:	4041      	eors	r1, r0
1000723a:	4048      	eors	r0, r1
1000723c:	e001      	b.n	10007242 <__aeabi_cfcmple_guts>
1000723e:	46c0      	nop			; (mov r8, r8)

10007240 <__wrap___aeabi_cfcmpeq>:
10007240:	b507      	push	{r0, r1, r2, lr}

10007242 <__aeabi_cfcmple_guts>:
10007242:	0042      	lsls	r2, r0, #1
10007244:	0e12      	lsrs	r2, r2, #24
10007246:	d003      	beq.n	10007250 <__aeabi_cfcmple_guts+0xe>
10007248:	2aff      	cmp	r2, #255	; 0xff
1000724a:	d103      	bne.n	10007254 <__aeabi_cfcmple_guts+0x12>
1000724c:	0242      	lsls	r2, r0, #9
1000724e:	d818      	bhi.n	10007282 <__aeabi_cfcmple_guts+0x40>
10007250:	0dc0      	lsrs	r0, r0, #23
10007252:	05c0      	lsls	r0, r0, #23
10007254:	004a      	lsls	r2, r1, #1
10007256:	0e12      	lsrs	r2, r2, #24
10007258:	d003      	beq.n	10007262 <__aeabi_cfcmple_guts+0x20>
1000725a:	2aff      	cmp	r2, #255	; 0xff
1000725c:	d103      	bne.n	10007266 <__aeabi_cfcmple_guts+0x24>
1000725e:	024a      	lsls	r2, r1, #9
10007260:	d80f      	bhi.n	10007282 <__aeabi_cfcmple_guts+0x40>
10007262:	0dc9      	lsrs	r1, r1, #23
10007264:	05c9      	lsls	r1, r1, #23
10007266:	2201      	movs	r2, #1
10007268:	4041      	eors	r1, r0
1000726a:	d405      	bmi.n	10007278 <__aeabi_cfcmple_guts+0x36>
1000726c:	4041      	eors	r1, r0
1000726e:	d501      	bpl.n	10007274 <__aeabi_cfcmple_guts+0x32>
10007270:	4281      	cmp	r1, r0
10007272:	bd07      	pop	{r0, r1, r2, pc}
10007274:	4288      	cmp	r0, r1
10007276:	bd07      	pop	{r0, r1, r2, pc}
10007278:	4301      	orrs	r1, r0
1000727a:	1849      	adds	r1, r1, r1
1000727c:	d001      	beq.n	10007282 <__aeabi_cfcmple_guts+0x40>
1000727e:	43c0      	mvns	r0, r0
10007280:	1800      	adds	r0, r0, r0
10007282:	bd07      	pop	{r0, r1, r2, pc}

10007284 <__wrap___aeabi_fcmplt>:
10007284:	b500      	push	{lr}
10007286:	f7ff ffdb 	bl	10007240 <__wrap___aeabi_cfcmpeq>
1000728a:	4180      	sbcs	r0, r0
1000728c:	bd00      	pop	{pc}
1000728e:	46c0      	nop			; (mov r8, r8)

10007290 <__wrap___aeabi_fcmpgt>:
10007290:	b500      	push	{lr}
10007292:	f7ff ffcf 	bl	10007234 <__wrap___aeabi_cfrcmple>
10007296:	4180      	sbcs	r0, r0
10007298:	bd00      	pop	{pc}

1000729a <__wrap___aeabi_ui2f>:
1000729a:	1a49      	subs	r1, r1, r1
1000729c:	2800      	cmp	r0, #0
1000729e:	d107      	bne.n	100072b0 <__aeabi_i2f_main>
100072a0:	4608      	mov	r0, r1
100072a2:	4770      	bx	lr

100072a4 <__wrap___aeabi_i2f>:
100072a4:	0fc1      	lsrs	r1, r0, #31
100072a6:	07c9      	lsls	r1, r1, #31
100072a8:	d500      	bpl.n	100072ac <__wrap___aeabi_i2f+0x8>
100072aa:	4240      	negs	r0, r0
100072ac:	2800      	cmp	r0, #0
100072ae:	d017      	beq.n	100072e0 <__aeabi_i2f_main+0x30>

100072b0 <__aeabi_i2f_main>:
100072b0:	46f4      	mov	ip, lr
100072b2:	b403      	push	{r0, r1}
100072b4:	4b0b      	ldr	r3, [pc, #44]	; (100072e4 <__aeabi_i2f_main+0x34>)
100072b6:	681b      	ldr	r3, [r3, #0]
100072b8:	4798      	blx	r3
100072ba:	bc06      	pop	{r1, r2}
100072bc:	4081      	lsls	r1, r0
100072be:	389e      	subs	r0, #158	; 0x9e
100072c0:	4240      	negs	r0, r0
100072c2:	3180      	adds	r1, #128	; 0x80
100072c4:	d207      	bcs.n	100072d6 <__aeabi_i2f_main+0x26>
100072c6:	060b      	lsls	r3, r1, #24
100072c8:	d007      	beq.n	100072da <__aeabi_i2f_main+0x2a>
100072ca:	0049      	lsls	r1, r1, #1
100072cc:	0a49      	lsrs	r1, r1, #9
100072ce:	05c0      	lsls	r0, r0, #23
100072d0:	4310      	orrs	r0, r2
100072d2:	4308      	orrs	r0, r1
100072d4:	4760      	bx	ip
100072d6:	3001      	adds	r0, #1
100072d8:	e7f8      	b.n	100072cc <__aeabi_i2f_main+0x1c>
100072da:	0a49      	lsrs	r1, r1, #9
100072dc:	0289      	lsls	r1, r1, #10
100072de:	e7f5      	b.n	100072cc <__aeabi_i2f_main+0x1c>
100072e0:	4770      	bx	lr
100072e2:	0000      	.short	0x0000
100072e4:	20001f60 	.word	0x20001f60

100072e8 <__wrap___aeabi_f2iz>:
100072e8:	0041      	lsls	r1, r0, #1
100072ea:	0e0a      	lsrs	r2, r1, #24
100072ec:	2380      	movs	r3, #128	; 0x80
100072ee:	061b      	lsls	r3, r3, #24
100072f0:	2a7e      	cmp	r2, #126	; 0x7e
100072f2:	dd0b      	ble.n	1000730c <__wrap___aeabi_f2iz+0x24>
100072f4:	3a9e      	subs	r2, #158	; 0x9e
100072f6:	da0b      	bge.n	10007310 <__wrap___aeabi_f2iz+0x28>
100072f8:	17c1      	asrs	r1, r0, #31
100072fa:	0240      	lsls	r0, r0, #9
100072fc:	0840      	lsrs	r0, r0, #1
100072fe:	4318      	orrs	r0, r3
10007300:	4252      	negs	r2, r2
10007302:	40d0      	lsrs	r0, r2
10007304:	0049      	lsls	r1, r1, #1
10007306:	3101      	adds	r1, #1
10007308:	4348      	muls	r0, r1
1000730a:	4770      	bx	lr
1000730c:	2000      	movs	r0, #0
1000730e:	4770      	bx	lr
10007310:	0fc0      	lsrs	r0, r0, #31
10007312:	18c0      	adds	r0, r0, r3
10007314:	3801      	subs	r0, #1
10007316:	4770      	bx	lr
10007318:	42c0      	cmn	r0, r0
1000731a:	d30d      	bcc.n	10007338 <float2int>
1000731c:	b500      	push	{lr}
1000731e:	0040      	lsls	r0, r0, #1
10007320:	0840      	lsrs	r0, r0, #1
10007322:	2100      	movs	r1, #0
10007324:	f000 f812 	bl	1000734c <__wrap___aeabi_f2uiz>
10007328:	2800      	cmp	r0, #0
1000732a:	d401      	bmi.n	10007330 <__wrap___aeabi_f2iz+0x48>
1000732c:	4240      	negs	r0, r0
1000732e:	bd00      	pop	{pc}
10007330:	2080      	movs	r0, #128	; 0x80
10007332:	0600      	lsls	r0, r0, #24
10007334:	bd00      	pop	{pc}
	...

10007338 <float2int>:
10007338:	4b03      	ldr	r3, [pc, #12]	; (10007348 <float2int+0x10>)
1000733a:	69db      	ldr	r3, [r3, #28]
1000733c:	46fc      	mov	ip, pc
1000733e:	4718      	bx	r3
10007340:	7505df1c 	.word	0x7505df1c
10007344:	00001000 	.word	0x00001000
10007348:	20001f64 	.word	0x20001f64

1000734c <__wrap___aeabi_f2uiz>:
1000734c:	2300      	movs	r3, #0
1000734e:	469c      	mov	ip, r3
10007350:	4b01      	ldr	r3, [pc, #4]	; (10007358 <__wrap___aeabi_f2uiz+0xc>)
10007352:	6a5b      	ldr	r3, [r3, #36]	; 0x24
10007354:	4718      	bx	r3
10007356:	0000      	.short	0x0000
10007358:	20001f64 	.word	0x20001f64
1000735c:	4a05      	ldr	r2, [pc, #20]	; (10007374 <__wrap___aeabi_l2f+0x14>)
1000735e:	4710      	bx	r2

10007360 <__wrap___aeabi_l2f>:
10007360:	17c2      	asrs	r2, r0, #31
10007362:	4291      	cmp	r1, r2
10007364:	d0fa      	beq.n	1000735c <__wrap___aeabi_f2uiz+0x10>
10007366:	4b04      	ldr	r3, [pc, #16]	; (10007378 <__wrap___aeabi_l2f+0x18>)
10007368:	6ddb      	ldr	r3, [r3, #92]	; 0x5c
1000736a:	46fc      	mov	ip, pc
1000736c:	4718      	bx	r3
1000736e:	df5c      	.short	0xdf5c
10007370:	100074d3 	.word	0x100074d3
10007374:	100072a5 	.word	0x100072a5
10007378:	20001f64 	.word	0x20001f64

1000737c <__wrap___aeabi_f2d>:
1000737c:	4b03      	ldr	r3, [pc, #12]	; (1000738c <__wrap___aeabi_f2d+0x10>)
1000737e:	6fdb      	ldr	r3, [r3, #124]	; 0x7c
10007380:	46fc      	mov	ip, pc
10007382:	4718      	bx	r3
10007384:	751ddf7c 	.word	0x751ddf7c
10007388:	00001000 	.word	0x00001000
1000738c:	20001f64 	.word	0x20001f64

10007390 <__aeabi_float_init>:
10007390:	b570      	push	{r4, r5, r6, lr}
10007392:	2313      	movs	r3, #19
10007394:	781d      	ldrb	r5, [r3, #0]
10007396:	482a      	ldr	r0, [pc, #168]	; (10007440 <__aeabi_float_init+0xb0>)
10007398:	f7fe fc42 	bl	10005c20 <rom_data_lookup>
1000739c:	0004      	movs	r4, r0
1000739e:	2d01      	cmp	r5, #1
100073a0:	d011      	beq.n	100073c6 <__aeabi_float_init+0x36>
100073a2:	2d01      	cmp	r5, #1
100073a4:	dd09      	ble.n	100073ba <__aeabi_float_init+0x2a>
100073a6:	1ea3      	subs	r3, r4, #2
100073a8:	781b      	ldrb	r3, [r3, #0]
100073aa:	009b      	lsls	r3, r3, #2
100073ac:	2b7f      	cmp	r3, #127	; 0x7f
100073ae:	dd40      	ble.n	10007432 <__aeabi_float_init+0xa2>
100073b0:	2280      	movs	r2, #128	; 0x80
100073b2:	0021      	movs	r1, r4
100073b4:	4823      	ldr	r0, [pc, #140]	; (10007444 <__aeabi_float_init+0xb4>)
100073b6:	f000 f8d7 	bl	10007568 <__wrap___aeabi_memcpy>
100073ba:	4823      	ldr	r0, [pc, #140]	; (10007448 <__aeabi_float_init+0xb8>)
100073bc:	f7fe fc28 	bl	10005c10 <rom_func_lookup>
100073c0:	4b22      	ldr	r3, [pc, #136]	; (1000744c <__aeabi_float_init+0xbc>)
100073c2:	6018      	str	r0, [r3, #0]
100073c4:	bd70      	pop	{r4, r5, r6, pc}
100073c6:	2254      	movs	r2, #84	; 0x54
100073c8:	0001      	movs	r1, r0
100073ca:	481e      	ldr	r0, [pc, #120]	; (10007444 <__aeabi_float_init+0xb4>)
100073cc:	f000 f8cc 	bl	10007568 <__wrap___aeabi_memcpy>
100073d0:	4b1f      	ldr	r3, [pc, #124]	; (10007450 <__aeabi_float_init+0xc0>)
100073d2:	881a      	ldrh	r2, [r3, #0]
100073d4:	4b1f      	ldr	r3, [pc, #124]	; (10007454 <__aeabi_float_init+0xc4>)
100073d6:	429a      	cmp	r2, r3
100073d8:	d11c      	bne.n	10007414 <__aeabi_float_init+0x84>
100073da:	23a7      	movs	r3, #167	; 0xa7
100073dc:	019b      	lsls	r3, r3, #6
100073de:	881a      	ldrh	r2, [r3, #0]
100073e0:	4b1d      	ldr	r3, [pc, #116]	; (10007458 <__aeabi_float_init+0xc8>)
100073e2:	429a      	cmp	r2, r3
100073e4:	d116      	bne.n	10007414 <__aeabi_float_init+0x84>
100073e6:	4b1d      	ldr	r3, [pc, #116]	; (1000745c <__aeabi_float_init+0xcc>)
100073e8:	881a      	ldrh	r2, [r3, #0]
100073ea:	4b1d      	ldr	r3, [pc, #116]	; (10007460 <__aeabi_float_init+0xd0>)
100073ec:	429a      	cmp	r2, r3
100073ee:	d111      	bne.n	10007414 <__aeabi_float_init+0x84>
100073f0:	4b1c      	ldr	r3, [pc, #112]	; (10007464 <__aeabi_float_init+0xd4>)
100073f2:	881a      	ldrh	r2, [r3, #0]
100073f4:	2394      	movs	r3, #148	; 0x94
100073f6:	019b      	lsls	r3, r3, #6
100073f8:	429a      	cmp	r2, r3
100073fa:	d10b      	bne.n	10007414 <__aeabi_float_init+0x84>
100073fc:	4b1a      	ldr	r3, [pc, #104]	; (10007468 <__aeabi_float_init+0xd8>)
100073fe:	881a      	ldrh	r2, [r3, #0]
10007400:	4b1a      	ldr	r3, [pc, #104]	; (1000746c <__aeabi_float_init+0xdc>)
10007402:	429a      	cmp	r2, r3
10007404:	d106      	bne.n	10007414 <__aeabi_float_init+0x84>
10007406:	4b1a      	ldr	r3, [pc, #104]	; (10007470 <__aeabi_float_init+0xe0>)
10007408:	681a      	ldr	r2, [r3, #0]
1000740a:	4b1a      	ldr	r3, [pc, #104]	; (10007474 <__aeabi_float_init+0xe4>)
1000740c:	429a      	cmp	r2, r3
1000740e:	d101      	bne.n	10007414 <__aeabi_float_init+0x84>
10007410:	2315      	movs	r3, #21
10007412:	e007      	b.n	10007424 <__aeabi_float_init+0x94>
10007414:	4818      	ldr	r0, [pc, #96]	; (10007478 <__aeabi_float_init+0xe8>)
10007416:	f7fd f90d 	bl	10004634 <panic>
1000741a:	0099      	lsls	r1, r3, #2
1000741c:	4817      	ldr	r0, [pc, #92]	; (1000747c <__aeabi_float_init+0xec>)
1000741e:	4a09      	ldr	r2, [pc, #36]	; (10007444 <__aeabi_float_init+0xb4>)
10007420:	5088      	str	r0, [r1, r2]
10007422:	3301      	adds	r3, #1
10007424:	2b1f      	cmp	r3, #31
10007426:	d9f8      	bls.n	1000741a <__aeabi_float_init+0x8a>
10007428:	4a14      	ldr	r2, [pc, #80]	; (1000747c <__aeabi_float_init+0xec>)
1000742a:	4b06      	ldr	r3, [pc, #24]	; (10007444 <__aeabi_float_init+0xb4>)
1000742c:	621a      	str	r2, [r3, #32]
1000742e:	61da      	str	r2, [r3, #28]
10007430:	e7b7      	b.n	100073a2 <__aeabi_float_init+0x12>
10007432:	4b13      	ldr	r3, [pc, #76]	; (10007480 <__aeabi_float_init+0xf0>)
10007434:	4a13      	ldr	r2, [pc, #76]	; (10007484 <__aeabi_float_init+0xf4>)
10007436:	2142      	movs	r1, #66	; 0x42
10007438:	4813      	ldr	r0, [pc, #76]	; (10007488 <__aeabi_float_init+0xf8>)
1000743a:	f7fd f861 	bl	10004500 <__assert_func>
1000743e:	46c0      	nop			; (mov r8, r8)
10007440:	00004653 	.word	0x00004653
10007444:	20001f64 	.word	0x20001f64
10007448:	0000334c 	.word	0x0000334c
1000744c:	20001f60 	.word	0x20001f60
10007450:	000029ee 	.word	0x000029ee
10007454:	00000fc4 	.word	0x00000fc4
10007458:	00000dc2 	.word	0x00000dc2
1000745c:	00002b96 	.word	0x00002b96
10007460:	0000b5c0 	.word	0x0000b5c0
10007464:	00002b18 	.word	0x00002b18
10007468:	00002acc 	.word	0x00002acc
1000746c:	0000b510 	.word	0x0000b510
10007470:	00002cfc 	.word	0x00002cfc
10007474:	6487ed51 	.word	0x6487ed51
10007478:	1000ab88 	.word	0x1000ab88
1000747c:	1000748d 	.word	0x1000748d
10007480:	1000be6c 	.word	0x1000be6c
10007484:	1000bee8 	.word	0x1000bee8
10007488:	1000bea0 	.word	0x1000bea0

1000748c <float_table_shim_on_use_helper>:
1000748c:	b507      	push	{r0, r1, r2, lr}
1000748e:	4660      	mov	r0, ip
10007490:	2800      	cmp	r0, #0
10007492:	d100      	bne.n	10007496 <float_table_shim_on_use_helper+0xa>
10007494:	be00      	bkpt	0x0000
10007496:	8801      	ldrh	r1, [r0, #0]
10007498:	0a0a      	lsrs	r2, r1, #8
1000749a:	3002      	adds	r0, #2
1000749c:	2adf      	cmp	r2, #223	; 0xdf
1000749e:	d1fa      	bne.n	10007496 <float_table_shim_on_use_helper+0xa>
100074a0:	b2c9      	uxtb	r1, r1
100074a2:	0882      	lsrs	r2, r0, #2
100074a4:	d304      	bcc.n	100074b0 <float_table_shim_on_use_helper+0x24>
100074a6:	8802      	ldrh	r2, [r0, #0]
100074a8:	8840      	ldrh	r0, [r0, #2]
100074aa:	0400      	lsls	r0, r0, #16
100074ac:	4310      	orrs	r0, r2
100074ae:	e000      	b.n	100074b2 <float_table_shim_on_use_helper+0x26>
100074b0:	6800      	ldr	r0, [r0, #0]
100074b2:	4a02      	ldr	r2, [pc, #8]	; (100074bc <float_table_shim_on_use_helper+0x30>)
100074b4:	5050      	str	r0, [r2, r1]
100074b6:	9003      	str	r0, [sp, #12]
100074b8:	bd07      	pop	{r0, r1, r2, pc}
100074ba:	0000      	.short	0x0000
100074bc:	20001f64 	.word	0x20001f64

100074c0 <uint642float_shim>:
100074c0:	2200      	movs	r2, #0

100074c2 <ufix642float_shim>:
100074c2:	b530      	push	{r4, r5, lr}
100074c4:	2900      	cmp	r1, #0
100074c6:	d506      	bpl.n	100074d6 <fix642float_shim+0x2>
100074c8:	07cd      	lsls	r5, r1, #31
100074ca:	4305      	orrs	r5, r0
100074cc:	0848      	lsrs	r0, r1, #1
100074ce:	3a01      	subs	r2, #1
100074d0:	e010      	b.n	100074f4 <fix642float_shim+0x20>

100074d2 <int642float_shim>:
100074d2:	2200      	movs	r2, #0

100074d4 <fix642float_shim>:
100074d4:	b530      	push	{r4, r5, lr}
100074d6:	0005      	movs	r5, r0
100074d8:	430d      	orrs	r5, r1
100074da:	d00f      	beq.n	100074fc <ret_pop45>
100074dc:	17cd      	asrs	r5, r1, #31
100074de:	160c      	asrs	r4, r1, #24
100074e0:	42ac      	cmp	r4, r5
100074e2:	d105      	bne.n	100074f0 <fix642float_shim+0x1c>
100074e4:	01c9      	lsls	r1, r1, #7
100074e6:	0e44      	lsrs	r4, r0, #25
100074e8:	4321      	orrs	r1, r4
100074ea:	01c0      	lsls	r0, r0, #7
100074ec:	3207      	adds	r2, #7
100074ee:	e7f6      	b.n	100074de <fix642float_shim+0xa>
100074f0:	0005      	movs	r5, r0
100074f2:	0008      	movs	r0, r1
100074f4:	4252      	negs	r2, r2
100074f6:	323d      	adds	r2, #61	; 0x3d
100074f8:	4901      	ldr	r1, [pc, #4]	; (10007500 <ret_pop45+0x4>)
100074fa:	4788      	blx	r1

100074fc <ret_pop45>:
100074fc:	bd30      	pop	{r4, r5, pc}
100074fe:	0000      	.short	0x0000
10007500:	000029ef 	.word	0x000029ef

10007504 <float2int_shim>:
10007504:	2100      	movs	r1, #0

10007506 <float2fix_shim>:
10007506:	15c2      	asrs	r2, r0, #23
10007508:	3280      	adds	r2, #128	; 0x80
1000750a:	3280      	adds	r2, #128	; 0x80
1000750c:	d001      	beq.n	10007512 <float2fix_shim+0xc>
1000750e:	4a02      	ldr	r2, [pc, #8]	; (10007518 <float2fix_shim+0x12>)
10007510:	4710      	bx	r2
10007512:	2000      	movs	r0, #0
10007514:	4770      	bx	lr
10007516:	0000      	.short	0x0000
10007518:	00002acd 	.word	0x00002acd

1000751c <float2double_shim>:
1000751c:	0fc3      	lsrs	r3, r0, #31
1000751e:	07db      	lsls	r3, r3, #31
10007520:	0041      	lsls	r1, r0, #1
10007522:	0e0a      	lsrs	r2, r1, #24
10007524:	d007      	beq.n	10007536 <float2double_shim+0x1a>
10007526:	2aff      	cmp	r2, #255	; 0xff
10007528:	d008      	beq.n	1000753c <float2double_shim+0x20>
1000752a:	0909      	lsrs	r1, r1, #4
1000752c:	4a05      	ldr	r2, [pc, #20]	; (10007544 <float2double_shim+0x28>)
1000752e:	1889      	adds	r1, r1, r2
10007530:	4319      	orrs	r1, r3
10007532:	0740      	lsls	r0, r0, #29
10007534:	4770      	bx	lr
10007536:	0019      	movs	r1, r3
10007538:	2000      	movs	r0, #0
1000753a:	4770      	bx	lr
1000753c:	4902      	ldr	r1, [pc, #8]	; (10007548 <float2double_shim+0x2c>)
1000753e:	18c9      	adds	r1, r1, r3
10007540:	e7fa      	b.n	10007538 <float2double_shim+0x1c>
10007542:	0000      	.short	0x0000
10007544:	38000000 	.word	0x38000000
10007548:	7ff00000 	.word	0x7ff00000

1000754c <__aeabi_mem_init>:
1000754c:	4801      	ldr	r0, [pc, #4]	; (10007554 <__aeabi_mem_init+0x8>)
1000754e:	2104      	movs	r1, #4
10007550:	4b01      	ldr	r3, [pc, #4]	; (10007558 <__aeabi_mem_init+0xc>)
10007552:	4718      	bx	r3
10007554:	200004c0 	.word	0x200004c0
10007558:	10005c31 	.word	0x10005c31

1000755c <__wrap_memset>:
1000755c:	4b01      	ldr	r3, [pc, #4]	; (10007564 <__wrap_memset+0x8>)
1000755e:	681b      	ldr	r3, [r3, #0]
10007560:	4718      	bx	r3
10007562:	0000      	.short	0x0000
10007564:	200004c0 	.word	0x200004c0

10007568 <__wrap___aeabi_memcpy>:
10007568:	4b01      	ldr	r3, [pc, #4]	; (10007570 <__wrap___aeabi_memcpy+0x8>)
1000756a:	685b      	ldr	r3, [r3, #4]
1000756c:	4718      	bx	r3
1000756e:	0000      	.short	0x0000
10007570:	200004c0 	.word	0x200004c0

10007574 <stdio_out_chars_no_crlf>:
10007574:	b510      	push	{r4, lr}
10007576:	0003      	movs	r3, r0
10007578:	0008      	movs	r0, r1
1000757a:	0011      	movs	r1, r2
1000757c:	681b      	ldr	r3, [r3, #0]
1000757e:	4798      	blx	r3
10007580:	bd10      	pop	{r4, pc}
	...

10007584 <stdio_out_chars_crlf>:
10007584:	b5f8      	push	{r3, r4, r5, r6, r7, lr}
10007586:	0007      	movs	r7, r0
10007588:	000d      	movs	r5, r1
1000758a:	0016      	movs	r6, r2
1000758c:	7c43      	ldrb	r3, [r0, #17]
1000758e:	2b00      	cmp	r3, #0
10007590:	d002      	beq.n	10007598 <stdio_out_chars_crlf+0x14>
10007592:	2400      	movs	r4, #0
10007594:	2000      	movs	r0, #0
10007596:	e00c      	b.n	100075b2 <stdio_out_chars_crlf+0x2e>
10007598:	6803      	ldr	r3, [r0, #0]
1000759a:	0011      	movs	r1, r2
1000759c:	0028      	movs	r0, r5
1000759e:	4798      	blx	r3
100075a0:	e02d      	b.n	100075fe <stdio_out_chars_crlf+0x7a>
100075a2:	7c3b      	ldrb	r3, [r7, #16]
100075a4:	e010      	b.n	100075c8 <stdio_out_chars_crlf+0x44>
100075a6:	2102      	movs	r1, #2
100075a8:	4815      	ldr	r0, [pc, #84]	; (10007600 <stdio_out_chars_crlf+0x7c>)
100075aa:	683b      	ldr	r3, [r7, #0]
100075ac:	4798      	blx	r3
100075ae:	1c60      	adds	r0, r4, #1
100075b0:	3401      	adds	r4, #1
100075b2:	42b4      	cmp	r4, r6
100075b4:	da14      	bge.n	100075e0 <stdio_out_chars_crlf+0x5c>
100075b6:	2c00      	cmp	r4, #0
100075b8:	ddf3      	ble.n	100075a2 <stdio_out_chars_crlf+0x1e>
100075ba:	192b      	adds	r3, r5, r4
100075bc:	3b01      	subs	r3, #1
100075be:	781b      	ldrb	r3, [r3, #0]
100075c0:	3b0d      	subs	r3, #13
100075c2:	425a      	negs	r2, r3
100075c4:	4153      	adcs	r3, r2
100075c6:	b2db      	uxtb	r3, r3
100075c8:	5d2a      	ldrb	r2, [r5, r4]
100075ca:	2a0a      	cmp	r2, #10
100075cc:	d1f0      	bne.n	100075b0 <stdio_out_chars_crlf+0x2c>
100075ce:	2b00      	cmp	r3, #0
100075d0:	d1ee      	bne.n	100075b0 <stdio_out_chars_crlf+0x2c>
100075d2:	42a0      	cmp	r0, r4
100075d4:	dae7      	bge.n	100075a6 <stdio_out_chars_crlf+0x22>
100075d6:	1a21      	subs	r1, r4, r0
100075d8:	1828      	adds	r0, r5, r0
100075da:	683b      	ldr	r3, [r7, #0]
100075dc:	4798      	blx	r3
100075de:	e7e2      	b.n	100075a6 <stdio_out_chars_crlf+0x22>
100075e0:	42b0      	cmp	r0, r6
100075e2:	da03      	bge.n	100075ec <stdio_out_chars_crlf+0x68>
100075e4:	1a31      	subs	r1, r6, r0
100075e6:	1828      	adds	r0, r5, r0
100075e8:	683b      	ldr	r3, [r7, #0]
100075ea:	4798      	blx	r3
100075ec:	2e00      	cmp	r6, #0
100075ee:	dd06      	ble.n	100075fe <stdio_out_chars_crlf+0x7a>
100075f0:	19ad      	adds	r5, r5, r6
100075f2:	3d01      	subs	r5, #1
100075f4:	782b      	ldrb	r3, [r5, #0]
100075f6:	3b0d      	subs	r3, #13
100075f8:	425a      	negs	r2, r3
100075fa:	4153      	adcs	r3, r2
100075fc:	743b      	strb	r3, [r7, #16]
100075fe:	bdf8      	pop	{r3, r4, r5, r6, r7, pc}
10007600:	1000bfb4 	.word	0x1000bfb4

10007604 <stdio_stack_buffer_flush>:
10007604:	b570      	push	{r4, r5, r6, lr}
10007606:	0005      	movs	r5, r0
10007608:	6803      	ldr	r3, [r0, #0]
1000760a:	2b00      	cmp	r3, #0
1000760c:	d016      	beq.n	1000763c <stdio_stack_buffer_flush+0x38>
1000760e:	4b0c      	ldr	r3, [pc, #48]	; (10007640 <stdio_stack_buffer_flush+0x3c>)
10007610:	681c      	ldr	r4, [r3, #0]
10007612:	e005      	b.n	10007620 <stdio_stack_buffer_flush+0x1c>
10007614:	0029      	movs	r1, r5
10007616:	c904      	ldmia	r1!, {r2}
10007618:	0020      	movs	r0, r4
1000761a:	f7ff ffb3 	bl	10007584 <stdio_out_chars_crlf>
1000761e:	68e4      	ldr	r4, [r4, #12]
10007620:	2c00      	cmp	r4, #0
10007622:	d009      	beq.n	10007638 <stdio_stack_buffer_flush+0x34>
10007624:	6823      	ldr	r3, [r4, #0]
10007626:	2b00      	cmp	r3, #0
10007628:	d0f9      	beq.n	1000761e <stdio_stack_buffer_flush+0x1a>
1000762a:	4b06      	ldr	r3, [pc, #24]	; (10007644 <stdio_stack_buffer_flush+0x40>)
1000762c:	681b      	ldr	r3, [r3, #0]
1000762e:	2b00      	cmp	r3, #0
10007630:	d0f0      	beq.n	10007614 <stdio_stack_buffer_flush+0x10>
10007632:	42a3      	cmp	r3, r4
10007634:	d1f3      	bne.n	1000761e <stdio_stack_buffer_flush+0x1a>
10007636:	e7ed      	b.n	10007614 <stdio_stack_buffer_flush+0x10>
10007638:	2300      	movs	r3, #0
1000763a:	602b      	str	r3, [r5, #0]
1000763c:	bd70      	pop	{r4, r5, r6, pc}
1000763e:	46c0      	nop			; (mov r8, r8)
10007640:	20000dbc 	.word	0x20000dbc
10007644:	20000dcc 	.word	0x20000dcc

10007648 <stdio_buffered_printer>:
10007648:	b570      	push	{r4, r5, r6, lr}
1000764a:	0005      	movs	r5, r0
1000764c:	000c      	movs	r4, r1
1000764e:	680b      	ldr	r3, [r1, #0]
10007650:	2b80      	cmp	r3, #128	; 0x80
10007652:	d005      	beq.n	10007660 <stdio_buffered_printer+0x18>
10007654:	6821      	ldr	r1, [r4, #0]
10007656:	1c4b      	adds	r3, r1, #1
10007658:	6023      	str	r3, [r4, #0]
1000765a:	1864      	adds	r4, r4, r1
1000765c:	7125      	strb	r5, [r4, #4]
1000765e:	bd70      	pop	{r4, r5, r6, pc}
10007660:	0008      	movs	r0, r1
10007662:	f7ff ffcf 	bl	10007604 <stdio_stack_buffer_flush>
10007666:	e7f5      	b.n	10007654 <stdio_buffered_printer+0xc>

10007668 <stdout_serialize_begin>:
10007668:	b510      	push	{r4, lr}
1000766a:	b082      	sub	sp, #8
1000766c:	23d0      	movs	r3, #208	; 0xd0
1000766e:	061b      	lsls	r3, r3, #24
10007670:	2400      	movs	r4, #0
10007672:	571c      	ldrsb	r4, [r3, r4]
10007674:	a901      	add	r1, sp, #4
10007676:	4807      	ldr	r0, [pc, #28]	; (10007694 <stdout_serialize_begin+0x2c>)
10007678:	f003 f9b2 	bl	1000a9e0 <__mutex_try_enter_veneer>
1000767c:	2800      	cmp	r0, #0
1000767e:	d106      	bne.n	1000768e <stdout_serialize_begin+0x26>
10007680:	9b01      	ldr	r3, [sp, #4]
10007682:	429c      	cmp	r4, r3
10007684:	d003      	beq.n	1000768e <stdout_serialize_begin+0x26>
10007686:	4803      	ldr	r0, [pc, #12]	; (10007694 <stdout_serialize_begin+0x2c>)
10007688:	f003 f9ba 	bl	1000aa00 <__mutex_enter_blocking_veneer>
1000768c:	2001      	movs	r0, #1
1000768e:	b002      	add	sp, #8
10007690:	bd10      	pop	{r4, pc}
10007692:	46c0      	nop			; (mov r8, r8)
10007694:	20000534 	.word	0x20000534

10007698 <stdout_serialize_end>:
10007698:	b510      	push	{r4, lr}
1000769a:	4802      	ldr	r0, [pc, #8]	; (100076a4 <stdout_serialize_end+0xc>)
1000769c:	f003 f988 	bl	1000a9b0 <__mutex_exit_veneer>
100076a0:	bd10      	pop	{r4, pc}
100076a2:	46c0      	nop			; (mov r8, r8)
100076a4:	20000534 	.word	0x20000534

100076a8 <stdio_put_string>:
100076a8:	b5f0      	push	{r4, r5, r6, r7, lr}
100076aa:	46ce      	mov	lr, r9
100076ac:	4647      	mov	r7, r8
100076ae:	b580      	push	{r7, lr}
100076b0:	b083      	sub	sp, #12
100076b2:	0006      	movs	r6, r0
100076b4:	000d      	movs	r5, r1
100076b6:	4690      	mov	r8, r2
100076b8:	001c      	movs	r4, r3
100076ba:	f7ff ffd5 	bl	10007668 <stdout_serialize_begin>
100076be:	4681      	mov	r9, r0
100076c0:	1c6b      	adds	r3, r5, #1
100076c2:	d005      	beq.n	100076d0 <stdio_put_string+0x28>
100076c4:	2c00      	cmp	r4, #0
100076c6:	d008      	beq.n	100076da <stdio_put_string+0x32>
100076c8:	4f19      	ldr	r7, [pc, #100]	; (10007730 <stdio_put_string+0x88>)
100076ca:	4b1a      	ldr	r3, [pc, #104]	; (10007734 <stdio_put_string+0x8c>)
100076cc:	681c      	ldr	r4, [r3, #0]
100076ce:	e007      	b.n	100076e0 <stdio_put_string+0x38>
100076d0:	0030      	movs	r0, r6
100076d2:	f003 f933 	bl	1000a93c <strlen>
100076d6:	0005      	movs	r5, r0
100076d8:	e7f4      	b.n	100076c4 <stdio_put_string+0x1c>
100076da:	4f17      	ldr	r7, [pc, #92]	; (10007738 <stdio_put_string+0x90>)
100076dc:	e7f5      	b.n	100076ca <stdio_put_string+0x22>
100076de:	68e4      	ldr	r4, [r4, #12]
100076e0:	2c00      	cmp	r4, #0
100076e2:	d017      	beq.n	10007714 <stdio_put_string+0x6c>
100076e4:	6823      	ldr	r3, [r4, #0]
100076e6:	2b00      	cmp	r3, #0
100076e8:	d0f9      	beq.n	100076de <stdio_put_string+0x36>
100076ea:	4b14      	ldr	r3, [pc, #80]	; (1000773c <stdio_put_string+0x94>)
100076ec:	681b      	ldr	r3, [r3, #0]
100076ee:	2b00      	cmp	r3, #0
100076f0:	d001      	beq.n	100076f6 <stdio_put_string+0x4e>
100076f2:	42a3      	cmp	r3, r4
100076f4:	d1f3      	bne.n	100076de <stdio_put_string+0x36>
100076f6:	002a      	movs	r2, r5
100076f8:	0031      	movs	r1, r6
100076fa:	0020      	movs	r0, r4
100076fc:	47b8      	blx	r7
100076fe:	4643      	mov	r3, r8
10007700:	2b00      	cmp	r3, #0
10007702:	d0ec      	beq.n	100076de <stdio_put_string+0x36>
10007704:	466b      	mov	r3, sp
10007706:	1dd9      	adds	r1, r3, #7
10007708:	230a      	movs	r3, #10
1000770a:	700b      	strb	r3, [r1, #0]
1000770c:	2201      	movs	r2, #1
1000770e:	0020      	movs	r0, r4
10007710:	47b8      	blx	r7
10007712:	e7e4      	b.n	100076de <stdio_put_string+0x36>
10007714:	464b      	mov	r3, r9
10007716:	2b00      	cmp	r3, #0
10007718:	d107      	bne.n	1000772a <stdio_put_string+0x82>
1000771a:	1e6b      	subs	r3, r5, #1
1000771c:	419d      	sbcs	r5, r3
1000771e:	b2e8      	uxtb	r0, r5
10007720:	b003      	add	sp, #12
10007722:	bcc0      	pop	{r6, r7}
10007724:	46b9      	mov	r9, r7
10007726:	46b0      	mov	r8, r6
10007728:	bdf0      	pop	{r4, r5, r6, r7, pc}
1000772a:	f7ff ffb5 	bl	10007698 <stdout_serialize_end>
1000772e:	e7f4      	b.n	1000771a <stdio_put_string+0x72>
10007730:	10007575 	.word	0x10007575
10007734:	20000dbc 	.word	0x20000dbc
10007738:	10007585 	.word	0x10007585
1000773c:	20000dcc 	.word	0x20000dcc

10007740 <stdio_set_driver_enabled>:
10007740:	4a09      	ldr	r2, [pc, #36]	; (10007768 <stdio_set_driver_enabled+0x28>)
10007742:	e001      	b.n	10007748 <stdio_set_driver_enabled+0x8>
10007744:	330c      	adds	r3, #12
10007746:	001a      	movs	r2, r3
10007748:	6813      	ldr	r3, [r2, #0]
1000774a:	2b00      	cmp	r3, #0
1000774c:	d008      	beq.n	10007760 <stdio_set_driver_enabled+0x20>
1000774e:	4283      	cmp	r3, r0
10007750:	d1f8      	bne.n	10007744 <stdio_set_driver_enabled+0x4>
10007752:	2900      	cmp	r1, #0
10007754:	d107      	bne.n	10007766 <stdio_set_driver_enabled+0x26>
10007756:	68c3      	ldr	r3, [r0, #12]
10007758:	6013      	str	r3, [r2, #0]
1000775a:	2300      	movs	r3, #0
1000775c:	60c3      	str	r3, [r0, #12]
1000775e:	e002      	b.n	10007766 <stdio_set_driver_enabled+0x26>
10007760:	2900      	cmp	r1, #0
10007762:	d000      	beq.n	10007766 <stdio_set_driver_enabled+0x26>
10007764:	6010      	str	r0, [r2, #0]
10007766:	4770      	bx	lr
10007768:	20000dbc 	.word	0x20000dbc

1000776c <stdio_flush>:
1000776c:	b510      	push	{r4, lr}
1000776e:	4b06      	ldr	r3, [pc, #24]	; (10007788 <stdio_flush+0x1c>)
10007770:	681c      	ldr	r4, [r3, #0]
10007772:	e001      	b.n	10007778 <stdio_flush+0xc>
10007774:	4798      	blx	r3
10007776:	68e4      	ldr	r4, [r4, #12]
10007778:	2c00      	cmp	r4, #0
1000777a:	d003      	beq.n	10007784 <stdio_flush+0x18>
1000777c:	6863      	ldr	r3, [r4, #4]
1000777e:	2b00      	cmp	r3, #0
10007780:	d1f8      	bne.n	10007774 <stdio_flush+0x8>
10007782:	e7f8      	b.n	10007776 <stdio_flush+0xa>
10007784:	bd10      	pop	{r4, pc}
10007786:	46c0      	nop			; (mov r8, r8)
10007788:	20000dbc 	.word	0x20000dbc

1000778c <__wrap_puts>:
1000778c:	b570      	push	{r4, r5, r6, lr}
1000778e:	0005      	movs	r5, r0
10007790:	f003 f8d4 	bl	1000a93c <strlen>
10007794:	0004      	movs	r4, r0
10007796:	2300      	movs	r3, #0
10007798:	2201      	movs	r2, #1
1000779a:	0001      	movs	r1, r0
1000779c:	0028      	movs	r0, r5
1000779e:	f7ff ff83 	bl	100076a8 <stdio_put_string>
100077a2:	f7ff ffe3 	bl	1000776c <stdio_flush>
100077a6:	0020      	movs	r0, r4
100077a8:	bd70      	pop	{r4, r5, r6, pc}
	...

100077ac <__wrap_vprintf>:
100077ac:	b570      	push	{r4, r5, r6, lr}
100077ae:	b0a2      	sub	sp, #136	; 0x88
100077b0:	0004      	movs	r4, r0
100077b2:	000e      	movs	r6, r1
100077b4:	f7ff ff58 	bl	10007668 <stdout_serialize_begin>
100077b8:	0005      	movs	r5, r0
100077ba:	2284      	movs	r2, #132	; 0x84
100077bc:	2100      	movs	r1, #0
100077be:	a801      	add	r0, sp, #4
100077c0:	f7ff fecc 	bl	1000755c <__wrap_memset>
100077c4:	0033      	movs	r3, r6
100077c6:	0022      	movs	r2, r4
100077c8:	a901      	add	r1, sp, #4
100077ca:	4808      	ldr	r0, [pc, #32]	; (100077ec <__wrap_vprintf+0x40>)
100077cc:	f7fe fa08 	bl	10005be0 <vfctprintf>
100077d0:	0004      	movs	r4, r0
100077d2:	a801      	add	r0, sp, #4
100077d4:	f7ff ff16 	bl	10007604 <stdio_stack_buffer_flush>
100077d8:	f7ff ffc8 	bl	1000776c <stdio_flush>
100077dc:	2d00      	cmp	r5, #0
100077de:	d102      	bne.n	100077e6 <__wrap_vprintf+0x3a>
100077e0:	0020      	movs	r0, r4
100077e2:	b022      	add	sp, #136	; 0x88
100077e4:	bd70      	pop	{r4, r5, r6, pc}
100077e6:	f7ff ff57 	bl	10007698 <stdout_serialize_end>
100077ea:	e7f9      	b.n	100077e0 <__wrap_vprintf+0x34>
100077ec:	10007649 	.word	0x10007649

100077f0 <__wrap_printf>:
100077f0:	b40f      	push	{r0, r1, r2, r3}
100077f2:	b500      	push	{lr}
100077f4:	b083      	sub	sp, #12
100077f6:	a904      	add	r1, sp, #16
100077f8:	c901      	ldmia	r1!, {r0}
100077fa:	9101      	str	r1, [sp, #4]
100077fc:	f7ff ffd6 	bl	100077ac <__wrap_vprintf>
10007800:	b003      	add	sp, #12
10007802:	bc08      	pop	{r3}
10007804:	b004      	add	sp, #16
10007806:	4718      	bx	r3

10007808 <stdio_init_all>:
10007808:	b510      	push	{r4, lr}
1000780a:	f000 f887 	bl	1000791c <stdio_uart_init>
1000780e:	f000 f9eb 	bl	10007be8 <stdio_usb_init>
10007812:	bd10      	pop	{r4, pc}

10007814 <stdio_uart_out_chars>:
10007814:	b5f0      	push	{r4, r5, r6, r7, lr}
10007816:	b083      	sub	sp, #12
10007818:	0005      	movs	r5, r0
1000781a:	000e      	movs	r6, r1
1000781c:	2400      	movs	r4, #0
1000781e:	e00f      	b.n	10007840 <stdio_uart_out_chars+0x2c>
10007820:	466b      	mov	r3, sp
10007822:	1dd9      	adds	r1, r3, #7
10007824:	230d      	movs	r3, #13
10007826:	700b      	strb	r3, [r1, #0]
10007828:	2000      	movs	r0, #0
1000782a:	2800      	cmp	r0, #0
1000782c:	d116      	bne.n	1000785c <stdio_uart_out_chars+0x48>
1000782e:	6993      	ldr	r3, [r2, #24]
10007830:	069b      	lsls	r3, r3, #26
10007832:	d4fc      	bmi.n	1000782e <stdio_uart_out_chars+0x1a>
10007834:	780b      	ldrb	r3, [r1, #0]
10007836:	6013      	str	r3, [r2, #0]
10007838:	3001      	adds	r0, #1
1000783a:	3101      	adds	r1, #1
1000783c:	e7f5      	b.n	1000782a <stdio_uart_out_chars+0x16>
1000783e:	3401      	adds	r4, #1
10007840:	42b4      	cmp	r4, r6
10007842:	da19      	bge.n	10007878 <stdio_uart_out_chars+0x64>
10007844:	4b0d      	ldr	r3, [pc, #52]	; (1000787c <stdio_uart_out_chars+0x68>)
10007846:	681a      	ldr	r2, [r3, #0]
10007848:	5d2f      	ldrb	r7, [r5, r4]
1000784a:	4b0d      	ldr	r3, [pc, #52]	; (10007880 <stdio_uart_out_chars+0x6c>)
1000784c:	18d3      	adds	r3, r2, r3
1000784e:	4259      	negs	r1, r3
10007850:	414b      	adcs	r3, r1
10007852:	005b      	lsls	r3, r3, #1
10007854:	490b      	ldr	r1, [pc, #44]	; (10007884 <stdio_uart_out_chars+0x70>)
10007856:	5e5b      	ldrsh	r3, [r3, r1]
10007858:	42bb      	cmp	r3, r7
1000785a:	d0e1      	beq.n	10007820 <stdio_uart_out_chars+0xc>
1000785c:	466b      	mov	r3, sp
1000785e:	1dd9      	adds	r1, r3, #7
10007860:	700f      	strb	r7, [r1, #0]
10007862:	2000      	movs	r0, #0
10007864:	2800      	cmp	r0, #0
10007866:	d1ea      	bne.n	1000783e <stdio_uart_out_chars+0x2a>
10007868:	6993      	ldr	r3, [r2, #24]
1000786a:	069b      	lsls	r3, r3, #26
1000786c:	d4fc      	bmi.n	10007868 <stdio_uart_out_chars+0x54>
1000786e:	780b      	ldrb	r3, [r1, #0]
10007870:	6013      	str	r3, [r2, #0]
10007872:	3001      	adds	r0, #1
10007874:	3101      	adds	r1, #1
10007876:	e7f5      	b.n	10007864 <stdio_uart_out_chars+0x50>
10007878:	b003      	add	sp, #12
1000787a:	bdf0      	pop	{r4, r5, r6, r7, pc}
1000787c:	200020b0 	.word	0x200020b0
10007880:	bffc8000 	.word	0xbffc8000
10007884:	200020ac 	.word	0x200020ac

10007888 <stdio_uart_in_chars>:
10007888:	b5f0      	push	{r4, r5, r6, r7, lr}
1000788a:	b083      	sub	sp, #12
1000788c:	0006      	movs	r6, r0
1000788e:	000f      	movs	r7, r1
10007890:	2000      	movs	r0, #0
10007892:	e004      	b.n	1000789e <stdio_uart_in_chars+0x16>
10007894:	466b      	mov	r3, sp
10007896:	3307      	adds	r3, #7
10007898:	781b      	ldrb	r3, [r3, #0]
1000789a:	7023      	strb	r3, [r4, #0]
1000789c:	0028      	movs	r0, r5
1000789e:	42b8      	cmp	r0, r7
100078a0:	da15      	bge.n	100078ce <stdio_uart_in_chars+0x46>
100078a2:	4b0e      	ldr	r3, [pc, #56]	; (100078dc <stdio_uart_in_chars+0x54>)
100078a4:	681a      	ldr	r2, [r3, #0]
100078a6:	6993      	ldr	r3, [r2, #24]
100078a8:	2410      	movs	r4, #16
100078aa:	0021      	movs	r1, r4
100078ac:	4019      	ands	r1, r3
100078ae:	421c      	tst	r4, r3
100078b0:	d10d      	bne.n	100078ce <stdio_uart_in_chars+0x46>
100078b2:	1c45      	adds	r5, r0, #1
100078b4:	1834      	adds	r4, r6, r0
100078b6:	466b      	mov	r3, sp
100078b8:	1dd8      	adds	r0, r3, #7
100078ba:	2900      	cmp	r1, #0
100078bc:	d1ea      	bne.n	10007894 <stdio_uart_in_chars+0xc>
100078be:	6993      	ldr	r3, [r2, #24]
100078c0:	06db      	lsls	r3, r3, #27
100078c2:	d4fc      	bmi.n	100078be <stdio_uart_in_chars+0x36>
100078c4:	6813      	ldr	r3, [r2, #0]
100078c6:	7003      	strb	r3, [r0, #0]
100078c8:	3101      	adds	r1, #1
100078ca:	3001      	adds	r0, #1
100078cc:	e7f5      	b.n	100078ba <stdio_uart_in_chars+0x32>
100078ce:	2800      	cmp	r0, #0
100078d0:	d001      	beq.n	100078d6 <stdio_uart_in_chars+0x4e>
100078d2:	b003      	add	sp, #12
100078d4:	bdf0      	pop	{r4, r5, r6, r7, pc}
100078d6:	3803      	subs	r0, #3
100078d8:	e7fb      	b.n	100078d2 <stdio_uart_in_chars+0x4a>
100078da:	46c0      	nop			; (mov r8, r8)
100078dc:	200020b0 	.word	0x200020b0

100078e0 <stdio_uart_init_full>:
100078e0:	b570      	push	{r4, r5, r6, lr}
100078e2:	0015      	movs	r5, r2
100078e4:	001c      	movs	r4, r3
100078e6:	4b0b      	ldr	r3, [pc, #44]	; (10007914 <stdio_uart_init_full+0x34>)
100078e8:	6018      	str	r0, [r3, #0]
100078ea:	f7fc fdc3 	bl	10004474 <uart_init>
100078ee:	2d00      	cmp	r5, #0
100078f0:	da06      	bge.n	10007900 <stdio_uart_init_full+0x20>
100078f2:	2c00      	cmp	r4, #0
100078f4:	da09      	bge.n	1000790a <stdio_uart_init_full+0x2a>
100078f6:	2101      	movs	r1, #1
100078f8:	4807      	ldr	r0, [pc, #28]	; (10007918 <stdio_uart_init_full+0x38>)
100078fa:	f7ff ff21 	bl	10007740 <stdio_set_driver_enabled>
100078fe:	bd70      	pop	{r4, r5, r6, pc}
10007900:	2102      	movs	r1, #2
10007902:	0028      	movs	r0, r5
10007904:	f7fa fef6 	bl	100026f4 <gpio_set_function>
10007908:	e7f3      	b.n	100078f2 <stdio_uart_init_full+0x12>
1000790a:	2102      	movs	r1, #2
1000790c:	0020      	movs	r0, r4
1000790e:	f7fa fef1 	bl	100026f4 <gpio_set_function>
10007912:	e7f0      	b.n	100078f6 <stdio_uart_init_full+0x16>
10007914:	200020b0 	.word	0x200020b0
10007918:	200004d0 	.word	0x200004d0

1000791c <stdio_uart_init>:
1000791c:	b510      	push	{r4, lr}
1000791e:	4b06      	ldr	r3, [pc, #24]	; (10007938 <stdio_uart_init+0x1c>)
10007920:	781b      	ldrb	r3, [r3, #0]
10007922:	4b06      	ldr	r3, [pc, #24]	; (1000793c <stdio_uart_init+0x20>)
10007924:	781b      	ldrb	r3, [r3, #0]
10007926:	21e1      	movs	r1, #225	; 0xe1
10007928:	2301      	movs	r3, #1
1000792a:	2200      	movs	r2, #0
1000792c:	0249      	lsls	r1, r1, #9
1000792e:	4804      	ldr	r0, [pc, #16]	; (10007940 <stdio_uart_init+0x24>)
10007930:	f7ff ffd6 	bl	100078e0 <stdio_uart_init_full>
10007934:	bd10      	pop	{r4, pc}
10007936:	46c0      	nop			; (mov r8, r8)
10007938:	1000c818 	.word	0x1000c818
1000793c:	1000c81c 	.word	0x1000c81c
10007940:	40034000 	.word	0x40034000

10007944 <resetd_init>:
10007944:	4770      	bx	lr
	...

10007948 <resetd_reset>:
10007948:	4b01      	ldr	r3, [pc, #4]	; (10007950 <resetd_reset+0x8>)
1000794a:	2200      	movs	r2, #0
1000794c:	701a      	strb	r2, [r3, #0]
1000794e:	4770      	bx	lr
10007950:	2000214e 	.word	0x2000214e

10007954 <resetd_open>:
10007954:	794b      	ldrb	r3, [r1, #5]
10007956:	2bff      	cmp	r3, #255	; 0xff
10007958:	d10c      	bne.n	10007974 <resetd_open+0x20>
1000795a:	798b      	ldrb	r3, [r1, #6]
1000795c:	2b00      	cmp	r3, #0
1000795e:	d10b      	bne.n	10007978 <resetd_open+0x24>
10007960:	79cb      	ldrb	r3, [r1, #7]
10007962:	2b01      	cmp	r3, #1
10007964:	d10a      	bne.n	1000797c <resetd_open+0x28>
10007966:	2a08      	cmp	r2, #8
10007968:	d90a      	bls.n	10007980 <resetd_open+0x2c>
1000796a:	788a      	ldrb	r2, [r1, #2]
1000796c:	4b05      	ldr	r3, [pc, #20]	; (10007984 <resetd_open+0x30>)
1000796e:	701a      	strb	r2, [r3, #0]
10007970:	2009      	movs	r0, #9
10007972:	e000      	b.n	10007976 <resetd_open+0x22>
10007974:	2000      	movs	r0, #0
10007976:	4770      	bx	lr
10007978:	2000      	movs	r0, #0
1000797a:	e7fc      	b.n	10007976 <resetd_open+0x22>
1000797c:	2000      	movs	r0, #0
1000797e:	e7fa      	b.n	10007976 <resetd_open+0x22>
10007980:	2000      	movs	r0, #0
10007982:	e7f8      	b.n	10007976 <resetd_open+0x22>
10007984:	2000214e 	.word	0x2000214e

10007988 <resetd_xfer_cb>:
10007988:	2001      	movs	r0, #1
1000798a:	4770      	bx	lr

1000798c <reset_usb_boot>:
1000798c:	b570      	push	{r4, r5, r6, lr}
1000798e:	0004      	movs	r4, r0
10007990:	000d      	movs	r5, r1
10007992:	4803      	ldr	r0, [pc, #12]	; (100079a0 <reset_usb_boot+0x14>)
10007994:	f7fe f93c 	bl	10005c10 <rom_func_lookup>
10007998:	0003      	movs	r3, r0
1000799a:	0029      	movs	r1, r5
1000799c:	0020      	movs	r0, r4
1000799e:	4798      	blx	r3
100079a0:	00004255 	.word	0x00004255

100079a4 <resetd_control_xfer_cb>:
100079a4:	b510      	push	{r4, lr}
100079a6:	2900      	cmp	r1, #0
100079a8:	d126      	bne.n	100079f8 <resetd_control_xfer_cb+0x54>
100079aa:	7911      	ldrb	r1, [r2, #4]
100079ac:	7953      	ldrb	r3, [r2, #5]
100079ae:	021b      	lsls	r3, r3, #8
100079b0:	430b      	orrs	r3, r1
100079b2:	4912      	ldr	r1, [pc, #72]	; (100079fc <resetd_control_xfer_cb+0x58>)
100079b4:	7809      	ldrb	r1, [r1, #0]
100079b6:	428b      	cmp	r3, r1
100079b8:	d001      	beq.n	100079be <resetd_control_xfer_cb+0x1a>
100079ba:	2000      	movs	r0, #0
100079bc:	bd10      	pop	{r4, pc}
100079be:	7853      	ldrb	r3, [r2, #1]
100079c0:	2b01      	cmp	r3, #1
100079c2:	d003      	beq.n	100079cc <resetd_control_xfer_cb+0x28>
100079c4:	2b02      	cmp	r3, #2
100079c6:	d010      	beq.n	100079ea <resetd_control_xfer_cb+0x46>
100079c8:	2000      	movs	r0, #0
100079ca:	e7f7      	b.n	100079bc <resetd_control_xfer_cb+0x18>
100079cc:	7891      	ldrb	r1, [r2, #2]
100079ce:	78d3      	ldrb	r3, [r2, #3]
100079d0:	021b      	lsls	r3, r3, #8
100079d2:	4319      	orrs	r1, r3
100079d4:	05db      	lsls	r3, r3, #23
100079d6:	d503      	bpl.n	100079e0 <resetd_control_xfer_cb+0x3c>
100079d8:	0a4b      	lsrs	r3, r1, #9
100079da:	2001      	movs	r0, #1
100079dc:	4098      	lsls	r0, r3
100079de:	e000      	b.n	100079e2 <resetd_control_xfer_cb+0x3e>
100079e0:	2000      	movs	r0, #0
100079e2:	237f      	movs	r3, #127	; 0x7f
100079e4:	4019      	ands	r1, r3
100079e6:	f7ff ffd1 	bl	1000798c <reset_usb_boot>
100079ea:	2264      	movs	r2, #100	; 0x64
100079ec:	2100      	movs	r1, #0
100079ee:	2000      	movs	r0, #0
100079f0:	f7fd f82e 	bl	10004a50 <watchdog_reboot>
100079f4:	2001      	movs	r0, #1
100079f6:	e7e1      	b.n	100079bc <resetd_control_xfer_cb+0x18>
100079f8:	2001      	movs	r0, #1
100079fa:	e7df      	b.n	100079bc <resetd_control_xfer_cb+0x18>
100079fc:	2000214e 	.word	0x2000214e

10007a00 <usbd_app_driver_get_cb>:
10007a00:	2301      	movs	r3, #1
10007a02:	7003      	strb	r3, [r0, #0]
10007a04:	4800      	ldr	r0, [pc, #0]	; (10007a08 <usbd_app_driver_get_cb+0x8>)
10007a06:	4770      	bx	lr
10007a08:	1000bff8 	.word	0x1000bff8

10007a0c <tud_cdc_line_coding_cb>:
10007a0c:	b510      	push	{r4, lr}
10007a0e:	780b      	ldrb	r3, [r1, #0]
10007a10:	7848      	ldrb	r0, [r1, #1]
10007a12:	0200      	lsls	r0, r0, #8
10007a14:	4318      	orrs	r0, r3
10007a16:	788a      	ldrb	r2, [r1, #2]
10007a18:	0412      	lsls	r2, r2, #16
10007a1a:	4310      	orrs	r0, r2
10007a1c:	78cb      	ldrb	r3, [r1, #3]
10007a1e:	061b      	lsls	r3, r3, #24
10007a20:	4303      	orrs	r3, r0
10007a22:	2296      	movs	r2, #150	; 0x96
10007a24:	00d2      	lsls	r2, r2, #3
10007a26:	4293      	cmp	r3, r2
10007a28:	d000      	beq.n	10007a2c <tud_cdc_line_coding_cb+0x20>
10007a2a:	bd10      	pop	{r4, pc}
10007a2c:	2100      	movs	r1, #0
10007a2e:	0008      	movs	r0, r1
10007a30:	f7ff ffac 	bl	1000798c <reset_usb_boot>

10007a34 <stdio_usb_in_chars>:
10007a34:	b530      	push	{r4, r5, lr}
10007a36:	b083      	sub	sp, #12
10007a38:	0005      	movs	r5, r0
10007a3a:	000c      	movs	r4, r1
10007a3c:	a901      	add	r1, sp, #4
10007a3e:	4818      	ldr	r0, [pc, #96]	; (10007aa0 <stdio_usb_in_chars+0x6c>)
10007a40:	f002 ffce 	bl	1000a9e0 <__mutex_try_enter_veneer>
10007a44:	2800      	cmp	r0, #0
10007a46:	d108      	bne.n	10007a5a <stdio_usb_in_chars+0x26>
10007a48:	23d0      	movs	r3, #208	; 0xd0
10007a4a:	061b      	lsls	r3, r3, #24
10007a4c:	681b      	ldr	r3, [r3, #0]
10007a4e:	9a01      	ldr	r2, [sp, #4]
10007a50:	429a      	cmp	r2, r3
10007a52:	d021      	beq.n	10007a98 <stdio_usb_in_chars+0x64>
10007a54:	4812      	ldr	r0, [pc, #72]	; (10007aa0 <stdio_usb_in_chars+0x6c>)
10007a56:	f002 ffd3 	bl	1000aa00 <__mutex_enter_blocking_veneer>
10007a5a:	2000      	movs	r0, #0
10007a5c:	f001 fe54 	bl	10009708 <tud_cdc_n_connected>
10007a60:	2800      	cmp	r0, #0
10007a62:	d107      	bne.n	10007a74 <stdio_usb_in_chars+0x40>
10007a64:	2403      	movs	r4, #3
10007a66:	4264      	negs	r4, r4
10007a68:	480d      	ldr	r0, [pc, #52]	; (10007aa0 <stdio_usb_in_chars+0x6c>)
10007a6a:	f002 ffa1 	bl	1000a9b0 <__mutex_exit_veneer>
10007a6e:	0020      	movs	r0, r4
10007a70:	b003      	add	sp, #12
10007a72:	bd30      	pop	{r4, r5, pc}
10007a74:	2000      	movs	r0, #0
10007a76:	f001 fe69 	bl	1000974c <tud_cdc_n_available>
10007a7a:	2800      	cmp	r0, #0
10007a7c:	d102      	bne.n	10007a84 <stdio_usb_in_chars+0x50>
10007a7e:	2403      	movs	r4, #3
10007a80:	4264      	negs	r4, r4
10007a82:	e7f1      	b.n	10007a68 <stdio_usb_in_chars+0x34>
10007a84:	0022      	movs	r2, r4
10007a86:	0029      	movs	r1, r5
10007a88:	2000      	movs	r0, #0
10007a8a:	f001 fe6b 	bl	10009764 <tud_cdc_n_read>
10007a8e:	1e04      	subs	r4, r0, #0
10007a90:	d1ea      	bne.n	10007a68 <stdio_usb_in_chars+0x34>
10007a92:	2403      	movs	r4, #3
10007a94:	4264      	negs	r4, r4
10007a96:	e7e7      	b.n	10007a68 <stdio_usb_in_chars+0x34>
10007a98:	2403      	movs	r4, #3
10007a9a:	4264      	negs	r4, r4
10007a9c:	e7e7      	b.n	10007a6e <stdio_usb_in_chars+0x3a>
10007a9e:	46c0      	nop			; (mov r8, r8)
10007aa0:	20002088 	.word	0x20002088

10007aa4 <low_priority_worker_irq>:
10007aa4:	b510      	push	{r4, lr}
10007aa6:	2100      	movs	r1, #0
10007aa8:	4805      	ldr	r0, [pc, #20]	; (10007ac0 <low_priority_worker_irq+0x1c>)
10007aaa:	f002 ff99 	bl	1000a9e0 <__mutex_try_enter_veneer>
10007aae:	2800      	cmp	r0, #0
10007ab0:	d100      	bne.n	10007ab4 <low_priority_worker_irq+0x10>
10007ab2:	bd10      	pop	{r4, pc}
10007ab4:	f001 fbc0 	bl	10009238 <tud_task>
10007ab8:	4801      	ldr	r0, [pc, #4]	; (10007ac0 <low_priority_worker_irq+0x1c>)
10007aba:	f002 ff79 	bl	1000a9b0 <__mutex_exit_veneer>
10007abe:	e7f8      	b.n	10007ab2 <low_priority_worker_irq+0xe>
10007ac0:	20002088 	.word	0x20002088

10007ac4 <stdio_usb_out_chars>:
10007ac4:	b5f0      	push	{r4, r5, r6, r7, lr}
10007ac6:	46c6      	mov	lr, r8
10007ac8:	b500      	push	{lr}
10007aca:	b082      	sub	sp, #8
10007acc:	4680      	mov	r8, r0
10007ace:	000d      	movs	r5, r1
10007ad0:	a901      	add	r1, sp, #4
10007ad2:	482e      	ldr	r0, [pc, #184]	; (10007b8c <stdio_usb_out_chars+0xc8>)
10007ad4:	f002 ff84 	bl	1000a9e0 <__mutex_try_enter_veneer>
10007ad8:	2800      	cmp	r0, #0
10007ada:	d108      	bne.n	10007aee <stdio_usb_out_chars+0x2a>
10007adc:	23d0      	movs	r3, #208	; 0xd0
10007ade:	061b      	lsls	r3, r3, #24
10007ae0:	681b      	ldr	r3, [r3, #0]
10007ae2:	9a01      	ldr	r2, [sp, #4]
10007ae4:	429a      	cmp	r2, r3
10007ae6:	d00f      	beq.n	10007b08 <stdio_usb_out_chars+0x44>
10007ae8:	4828      	ldr	r0, [pc, #160]	; (10007b8c <stdio_usb_out_chars+0xc8>)
10007aea:	f002 ff89 	bl	1000aa00 <__mutex_enter_blocking_veneer>
10007aee:	2000      	movs	r0, #0
10007af0:	f001 fe0a 	bl	10009708 <tud_cdc_n_connected>
10007af4:	2800      	cmp	r0, #0
10007af6:	d147      	bne.n	10007b88 <stdio_usb_out_chars+0xc4>
10007af8:	4b25      	ldr	r3, [pc, #148]	; (10007b90 <stdio_usb_out_chars+0xcc>)
10007afa:	2000      	movs	r0, #0
10007afc:	2100      	movs	r1, #0
10007afe:	6018      	str	r0, [r3, #0]
10007b00:	6059      	str	r1, [r3, #4]
10007b02:	4822      	ldr	r0, [pc, #136]	; (10007b8c <stdio_usb_out_chars+0xc8>)
10007b04:	f002 ff54 	bl	1000a9b0 <__mutex_exit_veneer>
10007b08:	b002      	add	sp, #8
10007b0a:	bc80      	pop	{r7}
10007b0c:	46b8      	mov	r8, r7
10007b0e:	bdf0      	pop	{r4, r5, r6, r7, pc}
10007b10:	f001 fb92 	bl	10009238 <tud_task>
10007b14:	2000      	movs	r0, #0
10007b16:	f001 fe39 	bl	1000978c <tud_cdc_n_write_flush>
10007b1a:	2000      	movs	r0, #0
10007b1c:	f001 fdf4 	bl	10009708 <tud_cdc_n_connected>
10007b20:	2800      	cmp	r0, #0
10007b22:	d0ee      	beq.n	10007b02 <stdio_usb_out_chars+0x3e>
10007b24:	2000      	movs	r0, #0
10007b26:	f001 feb3 	bl	10009890 <tud_cdc_n_write_available>
10007b2a:	2800      	cmp	r0, #0
10007b2c:	d01d      	beq.n	10007b6a <stdio_usb_out_chars+0xa6>
10007b2e:	42ac      	cmp	r4, r5
10007b30:	dae7      	bge.n	10007b02 <stdio_usb_out_chars+0x3e>
10007b32:	1b2e      	subs	r6, r5, r4
10007b34:	2000      	movs	r0, #0
10007b36:	f001 feab 	bl	10009890 <tud_cdc_n_write_available>
10007b3a:	0002      	movs	r2, r0
10007b3c:	4286      	cmp	r6, r0
10007b3e:	dc00      	bgt.n	10007b42 <stdio_usb_out_chars+0x7e>
10007b40:	0032      	movs	r2, r6
10007b42:	2a00      	cmp	r2, #0
10007b44:	d0e4      	beq.n	10007b10 <stdio_usb_out_chars+0x4c>
10007b46:	4643      	mov	r3, r8
10007b48:	1919      	adds	r1, r3, r4
10007b4a:	2000      	movs	r0, #0
10007b4c:	f001 fe84 	bl	10009858 <tud_cdc_n_write>
10007b50:	0006      	movs	r6, r0
10007b52:	f001 fb71 	bl	10009238 <tud_task>
10007b56:	2000      	movs	r0, #0
10007b58:	f001 fe18 	bl	1000978c <tud_cdc_n_write_flush>
10007b5c:	19a4      	adds	r4, r4, r6
10007b5e:	f7fc f90b 	bl	10003d78 <time_us_64>
10007b62:	4b0b      	ldr	r3, [pc, #44]	; (10007b90 <stdio_usb_out_chars+0xcc>)
10007b64:	6018      	str	r0, [r3, #0]
10007b66:	6059      	str	r1, [r3, #4]
10007b68:	e7e1      	b.n	10007b2e <stdio_usb_out_chars+0x6a>
10007b6a:	f7fc f905 	bl	10003d78 <time_us_64>
10007b6e:	4b08      	ldr	r3, [pc, #32]	; (10007b90 <stdio_usb_out_chars+0xcc>)
10007b70:	681e      	ldr	r6, [r3, #0]
10007b72:	685f      	ldr	r7, [r3, #4]
10007b74:	4a07      	ldr	r2, [pc, #28]	; (10007b94 <stdio_usb_out_chars+0xd0>)
10007b76:	2300      	movs	r3, #0
10007b78:	1992      	adds	r2, r2, r6
10007b7a:	417b      	adcs	r3, r7
10007b7c:	4299      	cmp	r1, r3
10007b7e:	d8c0      	bhi.n	10007b02 <stdio_usb_out_chars+0x3e>
10007b80:	d1d5      	bne.n	10007b2e <stdio_usb_out_chars+0x6a>
10007b82:	4290      	cmp	r0, r2
10007b84:	d9d3      	bls.n	10007b2e <stdio_usb_out_chars+0x6a>
10007b86:	e7bc      	b.n	10007b02 <stdio_usb_out_chars+0x3e>
10007b88:	2400      	movs	r4, #0
10007b8a:	e7d0      	b.n	10007b2e <stdio_usb_out_chars+0x6a>
10007b8c:	20002088 	.word	0x20002088
10007b90:	20000658 	.word	0x20000658
10007b94:	0007a120 	.word	0x0007a120

10007b98 <timer_task>:
10007b98:	b510      	push	{r4, lr}
10007b9a:	4b0a      	ldr	r3, [pc, #40]	; (10007bc4 <timer_task+0x2c>)
10007b9c:	781a      	ldrb	r2, [r3, #0]
10007b9e:	23d0      	movs	r3, #208	; 0xd0
10007ba0:	061b      	lsls	r3, r3, #24
10007ba2:	681b      	ldr	r3, [r3, #0]
10007ba4:	429a      	cmp	r2, r3
10007ba6:	d107      	bne.n	10007bb8 <timer_task+0x20>
10007ba8:	4b07      	ldr	r3, [pc, #28]	; (10007bc8 <timer_task+0x30>)
10007baa:	7818      	ldrb	r0, [r3, #0]
10007bac:	f7fa ffba 	bl	10002b24 <irq_set_pending>
10007bb0:	20fa      	movs	r0, #250	; 0xfa
10007bb2:	0080      	lsls	r0, r0, #2
10007bb4:	2100      	movs	r1, #0
10007bb6:	bd10      	pop	{r4, pc}
10007bb8:	4b04      	ldr	r3, [pc, #16]	; (10007bcc <timer_task+0x34>)
10007bba:	4a05      	ldr	r2, [pc, #20]	; (10007bd0 <timer_task+0x38>)
10007bbc:	2132      	movs	r1, #50	; 0x32
10007bbe:	4805      	ldr	r0, [pc, #20]	; (10007bd4 <timer_task+0x3c>)
10007bc0:	f7fc fc9e 	bl	10004500 <__assert_func>
10007bc4:	20002150 	.word	0x20002150
10007bc8:	2000214f 	.word	0x2000214f
10007bcc:	1000c010 	.word	0x1000c010
10007bd0:	1000c0b8 	.word	0x1000c0b8
10007bd4:	1000c038 	.word	0x1000c038

10007bd8 <usb_irq>:
10007bd8:	b510      	push	{r4, lr}
10007bda:	4b02      	ldr	r3, [pc, #8]	; (10007be4 <usb_irq+0xc>)
10007bdc:	7818      	ldrb	r0, [r3, #0]
10007bde:	f7fa ffa1 	bl	10002b24 <irq_set_pending>
10007be2:	bd10      	pop	{r4, pc}
10007be4:	2000214f 	.word	0x2000214f

10007be8 <stdio_usb_init>:
10007be8:	b570      	push	{r4, r5, r6, lr}
10007bea:	b084      	sub	sp, #16
10007bec:	23d0      	movs	r3, #208	; 0xd0
10007bee:	061b      	lsls	r3, r3, #24
10007bf0:	781a      	ldrb	r2, [r3, #0]
10007bf2:	4b2d      	ldr	r3, [pc, #180]	; (10007ca8 <stdio_usb_init+0xc0>)
10007bf4:	701a      	strb	r2, [r3, #0]
10007bf6:	4b2d      	ldr	r3, [pc, #180]	; (10007cac <stdio_usb_init+0xc4>)
10007bf8:	781b      	ldrb	r3, [r3, #0]
10007bfa:	f002 f88f 	bl	10009d1c <tusb_init>
10007bfe:	482c      	ldr	r0, [pc, #176]	; (10007cb0 <stdio_usb_init+0xc8>)
10007c00:	f7fc fbc6 	bl	10004390 <mutex_init>
10007c04:	2001      	movs	r0, #1
10007c06:	f7fb fa4b 	bl	100030a0 <user_irq_claim_unused>
10007c0a:	b2c0      	uxtb	r0, r0
10007c0c:	4c29      	ldr	r4, [pc, #164]	; (10007cb4 <stdio_usb_init+0xcc>)
10007c0e:	7020      	strb	r0, [r4, #0]
10007c10:	4929      	ldr	r1, [pc, #164]	; (10007cb8 <stdio_usb_init+0xd0>)
10007c12:	f7fa ffa9 	bl	10002b68 <irq_set_exclusive_handler>
10007c16:	7820      	ldrb	r0, [r4, #0]
10007c18:	2101      	movs	r1, #1
10007c1a:	f7fa ff7b 	bl	10002b14 <irq_set_enabled>
10007c1e:	2005      	movs	r0, #5
10007c20:	f7fa ff90 	bl	10002b44 <irq_has_shared_handler>
10007c24:	1e04      	subs	r4, r0, #0
10007c26:	d00b      	beq.n	10007c40 <stdio_usb_init+0x58>
10007c28:	2200      	movs	r2, #0
10007c2a:	4924      	ldr	r1, [pc, #144]	; (10007cbc <stdio_usb_init+0xd4>)
10007c2c:	2005      	movs	r0, #5
10007c2e:	f7fa ffc5 	bl	10002bbc <irq_add_shared_handler>
10007c32:	2101      	movs	r1, #1
10007c34:	4822      	ldr	r0, [pc, #136]	; (10007cc0 <stdio_usb_init+0xd8>)
10007c36:	f7ff fd83 	bl	10007740 <stdio_set_driver_enabled>
10007c3a:	0020      	movs	r0, r4
10007c3c:	b004      	add	sp, #16
10007c3e:	bd70      	pop	{r4, r5, r6, pc}
10007c40:	f7fb fdc0 	bl	100037c4 <alarm_pool_get_default>
10007c44:	0006      	movs	r6, r0
10007c46:	f7fc f897 	bl	10003d78 <time_us_64>
10007c4a:	0004      	movs	r4, r0
10007c4c:	1e0d      	subs	r5, r1, #0
10007c4e:	db1e      	blt.n	10007c8e <stdio_usb_init+0xa6>
10007c50:	0001      	movs	r1, r0
10007c52:	22fa      	movs	r2, #250	; 0xfa
10007c54:	0092      	lsls	r2, r2, #2
10007c56:	2300      	movs	r3, #0
10007c58:	1912      	adds	r2, r2, r4
10007c5a:	416b      	adcs	r3, r5
10007c5c:	429d      	cmp	r5, r3
10007c5e:	d802      	bhi.n	10007c66 <stdio_usb_init+0x7e>
10007c60:	d104      	bne.n	10007c6c <stdio_usb_init+0x84>
10007c62:	4291      	cmp	r1, r2
10007c64:	d902      	bls.n	10007c6c <stdio_usb_init+0x84>
10007c66:	2201      	movs	r2, #1
10007c68:	4252      	negs	r2, r2
10007c6a:	17d3      	asrs	r3, r2, #31
10007c6c:	2b00      	cmp	r3, #0
10007c6e:	db14      	blt.n	10007c9a <stdio_usb_init+0xb2>
10007c70:	2101      	movs	r1, #1
10007c72:	9102      	str	r1, [sp, #8]
10007c74:	2100      	movs	r1, #0
10007c76:	9101      	str	r1, [sp, #4]
10007c78:	4912      	ldr	r1, [pc, #72]	; (10007cc4 <stdio_usb_init+0xdc>)
10007c7a:	9100      	str	r1, [sp, #0]
10007c7c:	0030      	movs	r0, r6
10007c7e:	f7fb fdb7 	bl	100037f0 <alarm_pool_add_alarm_at>
10007c82:	1e43      	subs	r3, r0, #1
10007c84:	4198      	sbcs	r0, r3
10007c86:	b2c4      	uxtb	r4, r0
10007c88:	2800      	cmp	r0, #0
10007c8a:	d0d6      	beq.n	10007c3a <stdio_usb_init+0x52>
10007c8c:	e7d1      	b.n	10007c32 <stdio_usb_init+0x4a>
10007c8e:	4b0e      	ldr	r3, [pc, #56]	; (10007cc8 <stdio_usb_init+0xe0>)
10007c90:	4a0e      	ldr	r2, [pc, #56]	; (10007ccc <stdio_usb_init+0xe4>)
10007c92:	213f      	movs	r1, #63	; 0x3f
10007c94:	480e      	ldr	r0, [pc, #56]	; (10007cd0 <stdio_usb_init+0xe8>)
10007c96:	f7fc fc33 	bl	10004500 <__assert_func>
10007c9a:	4b0b      	ldr	r3, [pc, #44]	; (10007cc8 <stdio_usb_init+0xe0>)
10007c9c:	4a0b      	ldr	r2, [pc, #44]	; (10007ccc <stdio_usb_init+0xe4>)
10007c9e:	213f      	movs	r1, #63	; 0x3f
10007ca0:	480b      	ldr	r0, [pc, #44]	; (10007cd0 <stdio_usb_init+0xe8>)
10007ca2:	f7fc fc2d 	bl	10004500 <__assert_func>
10007ca6:	46c0      	nop			; (mov r8, r8)
10007ca8:	20002150 	.word	0x20002150
10007cac:	1000c820 	.word	0x1000c820
10007cb0:	20002088 	.word	0x20002088
10007cb4:	2000214f 	.word	0x2000214f
10007cb8:	10007aa5 	.word	0x10007aa5
10007cbc:	10007bd9 	.word	0x10007bd9
10007cc0:	200004e4 	.word	0x200004e4
10007cc4:	10007b99 	.word	0x10007b99
10007cc8:	1000ab18 	.word	0x1000ab18
10007ccc:	1000c0a0 	.word	0x1000c0a0
10007cd0:	1000ab34 	.word	0x1000ab34

10007cd4 <tud_descriptor_device_cb>:
10007cd4:	4800      	ldr	r0, [pc, #0]	; (10007cd8 <tud_descriptor_device_cb+0x4>)
10007cd6:	4770      	bx	lr
10007cd8:	1000c144 	.word	0x1000c144

10007cdc <tud_descriptor_configuration_cb>:
10007cdc:	4800      	ldr	r0, [pc, #0]	; (10007ce0 <tud_descriptor_configuration_cb+0x4>)
10007cde:	4770      	bx	lr
10007ce0:	1000c0f0 	.word	0x1000c0f0

10007ce4 <tud_descriptor_string_cb>:
10007ce4:	b510      	push	{r4, lr}
10007ce6:	0004      	movs	r4, r0
10007ce8:	4b15      	ldr	r3, [pc, #84]	; (10007d40 <tud_descriptor_string_cb+0x5c>)
10007cea:	781b      	ldrb	r3, [r3, #0]
10007cec:	2b00      	cmp	r3, #0
10007cee:	d00e      	beq.n	10007d0e <tud_descriptor_string_cb+0x2a>
10007cf0:	2c00      	cmp	r4, #0
10007cf2:	d111      	bne.n	10007d18 <tud_descriptor_string_cb+0x34>
10007cf4:	4b13      	ldr	r3, [pc, #76]	; (10007d44 <tud_descriptor_string_cb+0x60>)
10007cf6:	4a14      	ldr	r2, [pc, #80]	; (10007d48 <tud_descriptor_string_cb+0x64>)
10007cf8:	805a      	strh	r2, [r3, #2]
10007cfa:	2301      	movs	r3, #1
10007cfc:	3301      	adds	r3, #1
10007cfe:	005b      	lsls	r3, r3, #1
10007d00:	b21b      	sxth	r3, r3
10007d02:	22c0      	movs	r2, #192	; 0xc0
10007d04:	0092      	lsls	r2, r2, #2
10007d06:	4313      	orrs	r3, r2
10007d08:	480e      	ldr	r0, [pc, #56]	; (10007d44 <tud_descriptor_string_cb+0x60>)
10007d0a:	8003      	strh	r3, [r0, #0]
10007d0c:	bd10      	pop	{r4, pc}
10007d0e:	2111      	movs	r1, #17
10007d10:	480b      	ldr	r0, [pc, #44]	; (10007d40 <tud_descriptor_string_cb+0x5c>)
10007d12:	f002 fbd7 	bl	1000a4c4 <pico_get_unique_board_id_string>
10007d16:	e7eb      	b.n	10007cf0 <tud_descriptor_string_cb+0xc>
10007d18:	2c05      	cmp	r4, #5
10007d1a:	d80e      	bhi.n	10007d3a <tud_descriptor_string_cb+0x56>
10007d1c:	00a4      	lsls	r4, r4, #2
10007d1e:	4b0b      	ldr	r3, [pc, #44]	; (10007d4c <tud_descriptor_string_cb+0x68>)
10007d20:	58e4      	ldr	r4, [r4, r3]
10007d22:	2300      	movs	r3, #0
10007d24:	2b12      	cmp	r3, #18
10007d26:	d8e9      	bhi.n	10007cfc <tud_descriptor_string_cb+0x18>
10007d28:	5ce2      	ldrb	r2, [r4, r3]
10007d2a:	2a00      	cmp	r2, #0
10007d2c:	d0e6      	beq.n	10007cfc <tud_descriptor_string_cb+0x18>
10007d2e:	3301      	adds	r3, #1
10007d30:	0059      	lsls	r1, r3, #1
10007d32:	4804      	ldr	r0, [pc, #16]	; (10007d44 <tud_descriptor_string_cb+0x60>)
10007d34:	5242      	strh	r2, [r0, r1]
10007d36:	b2db      	uxtb	r3, r3
10007d38:	e7f4      	b.n	10007d24 <tud_descriptor_string_cb+0x40>
10007d3a:	2000      	movs	r0, #0
10007d3c:	e7e6      	b.n	10007d0c <tud_descriptor_string_cb+0x28>
10007d3e:	46c0      	nop			; (mov r8, r8)
10007d40:	200020b4 	.word	0x200020b4
10007d44:	20000cec 	.word	0x20000cec
10007d48:	00000409 	.word	0x00000409
10007d4c:	1000c158 	.word	0x1000c158

10007d50 <hw_endpoint_get_by_addr>:
10007d50:	0002      	movs	r2, r0
10007d52:	207f      	movs	r0, #127	; 0x7f
10007d54:	4010      	ands	r0, r2
10007d56:	09d2      	lsrs	r2, r2, #7
10007d58:	0040      	lsls	r0, r0, #1
10007d5a:	1880      	adds	r0, r0, r2
10007d5c:	0140      	lsls	r0, r0, #5
10007d5e:	4b01      	ldr	r3, [pc, #4]	; (10007d64 <hw_endpoint_get_by_addr+0x14>)
10007d60:	18c0      	adds	r0, r0, r3
10007d62:	4770      	bx	lr
10007d64:	200016e8 	.word	0x200016e8

10007d68 <reset_ep0_pid>:
10007d68:	b510      	push	{r4, lr}
10007d6a:	b082      	sub	sp, #8
10007d6c:	ab01      	add	r3, sp, #4
10007d6e:	4a07      	ldr	r2, [pc, #28]	; (10007d8c <reset_ep0_pid+0x24>)
10007d70:	801a      	strh	r2, [r3, #0]
10007d72:	2400      	movs	r4, #0
10007d74:	e006      	b.n	10007d84 <reset_ep0_pid+0x1c>
10007d76:	ab01      	add	r3, sp, #4
10007d78:	5d18      	ldrb	r0, [r3, r4]
10007d7a:	f7ff ffe9 	bl	10007d50 <hw_endpoint_get_by_addr>
10007d7e:	2301      	movs	r3, #1
10007d80:	70c3      	strb	r3, [r0, #3]
10007d82:	3401      	adds	r4, #1
10007d84:	2c01      	cmp	r4, #1
10007d86:	d9f6      	bls.n	10007d76 <reset_ep0_pid+0xe>
10007d88:	b002      	add	sp, #8
10007d8a:	bd10      	pop	{r4, pc}
10007d8c:	ffff8000 	.word	0xffff8000

10007d90 <_hw_endpoint_alloc>:
10007d90:	b510      	push	{r4, lr}
10007d92:	8b83      	ldrh	r3, [r0, #28]
10007d94:	333f      	adds	r3, #63	; 0x3f
10007d96:	223f      	movs	r2, #63	; 0x3f
10007d98:	4393      	bics	r3, r2
10007d9a:	2902      	cmp	r1, #2
10007d9c:	d015      	beq.n	10007dca <_hw_endpoint_alloc+0x3a>
10007d9e:	4c12      	ldr	r4, [pc, #72]	; (10007de8 <_hw_endpoint_alloc+0x58>)
10007da0:	6822      	ldr	r2, [r4, #0]
10007da2:	60c2      	str	r2, [r0, #12]
10007da4:	18d3      	adds	r3, r2, r3
10007da6:	6023      	str	r3, [r4, #0]
10007da8:	069c      	lsls	r4, r3, #26
10007daa:	d110      	bne.n	10007dce <_hw_endpoint_alloc+0x3e>
10007dac:	4c0f      	ldr	r4, [pc, #60]	; (10007dec <_hw_endpoint_alloc+0x5c>)
10007dae:	4062      	eors	r2, r4
10007db0:	4063      	eors	r3, r4
10007db2:	2480      	movs	r4, #128	; 0x80
10007db4:	0164      	lsls	r4, r4, #5
10007db6:	42a3      	cmp	r3, r4
10007db8:	d80f      	bhi.n	10007dda <_hw_endpoint_alloc+0x4a>
10007dba:	0689      	lsls	r1, r1, #26
10007dbc:	4311      	orrs	r1, r2
10007dbe:	2380      	movs	r3, #128	; 0x80
10007dc0:	061b      	lsls	r3, r3, #24
10007dc2:	4319      	orrs	r1, r3
10007dc4:	6843      	ldr	r3, [r0, #4]
10007dc6:	6019      	str	r1, [r3, #0]
10007dc8:	bd10      	pop	{r4, pc}
10007dca:	005b      	lsls	r3, r3, #1
10007dcc:	e7e7      	b.n	10007d9e <_hw_endpoint_alloc+0xe>
10007dce:	4b08      	ldr	r3, [pc, #32]	; (10007df0 <_hw_endpoint_alloc+0x60>)
10007dd0:	4a08      	ldr	r2, [pc, #32]	; (10007df4 <_hw_endpoint_alloc+0x64>)
10007dd2:	2154      	movs	r1, #84	; 0x54
10007dd4:	4808      	ldr	r0, [pc, #32]	; (10007df8 <_hw_endpoint_alloc+0x68>)
10007dd6:	f7fc fb93 	bl	10004500 <__assert_func>
10007dda:	4b08      	ldr	r3, [pc, #32]	; (10007dfc <_hw_endpoint_alloc+0x6c>)
10007ddc:	4a05      	ldr	r2, [pc, #20]	; (10007df4 <_hw_endpoint_alloc+0x64>)
10007dde:	2156      	movs	r1, #86	; 0x56
10007de0:	4805      	ldr	r0, [pc, #20]	; (10007df8 <_hw_endpoint_alloc+0x68>)
10007de2:	f7fc fb8d 	bl	10004500 <__assert_func>
10007de6:	46c0      	nop			; (mov r8, r8)
10007de8:	20001e2c 	.word	0x20001e2c
10007dec:	50100000 	.word	0x50100000
10007df0:	1000c170 	.word	0x1000c170
10007df4:	1000c288 	.word	0x1000c288
10007df8:	1000c1a0 	.word	0x1000c1a0
10007dfc:	1000c1f4 	.word	0x1000c1f4

10007e00 <hw_endpoint_init>:
10007e00:	b5f8      	push	{r3, r4, r5, r6, r7, lr}
10007e02:	0005      	movs	r5, r0
10007e04:	000e      	movs	r6, r1
10007e06:	0014      	movs	r4, r2
10007e08:	f7ff ffa2 	bl	10007d50 <hw_endpoint_get_by_addr>
10007e0c:	237f      	movs	r3, #127	; 0x7f
10007e0e:	402b      	ands	r3, r5
10007e10:	09ef      	lsrs	r7, r5, #7
10007e12:	7085      	strb	r5, [r0, #2]
10007e14:	427a      	negs	r2, r7
10007e16:	417a      	adcs	r2, r7
10007e18:	7042      	strb	r2, [r0, #1]
10007e1a:	2200      	movs	r2, #0
10007e1c:	70c2      	strb	r2, [r0, #3]
10007e1e:	8386      	strh	r6, [r0, #28]
10007e20:	7784      	strb	r4, [r0, #30]
10007e22:	2f01      	cmp	r7, #1
10007e24:	d00d      	beq.n	10007e42 <hw_endpoint_init+0x42>
10007e26:	00da      	lsls	r2, r3, #3
10007e28:	4912      	ldr	r1, [pc, #72]	; (10007e74 <hw_endpoint_init+0x74>)
10007e2a:	468c      	mov	ip, r1
10007e2c:	4462      	add	r2, ip
10007e2e:	6082      	str	r2, [r0, #8]
10007e30:	6882      	ldr	r2, [r0, #8]
10007e32:	2100      	movs	r1, #0
10007e34:	6011      	str	r1, [r2, #0]
10007e36:	2b00      	cmp	r3, #0
10007e38:	d109      	bne.n	10007e4e <hw_endpoint_init+0x4e>
10007e3a:	6043      	str	r3, [r0, #4]
10007e3c:	4b0e      	ldr	r3, [pc, #56]	; (10007e78 <hw_endpoint_init+0x78>)
10007e3e:	60c3      	str	r3, [r0, #12]
10007e40:	bdf8      	pop	{r3, r4, r5, r6, r7, pc}
10007e42:	00da      	lsls	r2, r3, #3
10007e44:	490d      	ldr	r1, [pc, #52]	; (10007e7c <hw_endpoint_init+0x7c>)
10007e46:	468c      	mov	ip, r1
10007e48:	4462      	add	r2, ip
10007e4a:	6082      	str	r2, [r0, #8]
10007e4c:	e7f0      	b.n	10007e30 <hw_endpoint_init+0x30>
10007e4e:	2f01      	cmp	r7, #1
10007e50:	d009      	beq.n	10007e66 <hw_endpoint_init+0x66>
10007e52:	3b01      	subs	r3, #1
10007e54:	00db      	lsls	r3, r3, #3
10007e56:	4a0a      	ldr	r2, [pc, #40]	; (10007e80 <hw_endpoint_init+0x80>)
10007e58:	4694      	mov	ip, r2
10007e5a:	4463      	add	r3, ip
10007e5c:	6043      	str	r3, [r0, #4]
10007e5e:	0021      	movs	r1, r4
10007e60:	f7ff ff96 	bl	10007d90 <_hw_endpoint_alloc>
10007e64:	e7ec      	b.n	10007e40 <hw_endpoint_init+0x40>
10007e66:	3b01      	subs	r3, #1
10007e68:	00db      	lsls	r3, r3, #3
10007e6a:	4a06      	ldr	r2, [pc, #24]	; (10007e84 <hw_endpoint_init+0x84>)
10007e6c:	4694      	mov	ip, r2
10007e6e:	4463      	add	r3, ip
10007e70:	6043      	str	r3, [r0, #4]
10007e72:	e7f4      	b.n	10007e5e <hw_endpoint_init+0x5e>
10007e74:	50100084 	.word	0x50100084
10007e78:	50100100 	.word	0x50100100
10007e7c:	50100080 	.word	0x50100080
10007e80:	5010000c 	.word	0x5010000c
10007e84:	50100008 	.word	0x50100008

10007e88 <reset_non_control_endpoints>:
10007e88:	b510      	push	{r4, lr}
10007e8a:	2300      	movs	r3, #0
10007e8c:	e008      	b.n	10007ea0 <reset_non_control_endpoints+0x18>
10007e8e:	3301      	adds	r3, #1
10007e90:	00da      	lsls	r2, r3, #3
10007e92:	2100      	movs	r1, #0
10007e94:	4808      	ldr	r0, [pc, #32]	; (10007eb8 <reset_non_control_endpoints+0x30>)
10007e96:	5011      	str	r1, [r2, r0]
10007e98:	4684      	mov	ip, r0
10007e9a:	4462      	add	r2, ip
10007e9c:	6051      	str	r1, [r2, #4]
10007e9e:	b2db      	uxtb	r3, r3
10007ea0:	2b0e      	cmp	r3, #14
10007ea2:	d9f4      	bls.n	10007e8e <reset_non_control_endpoints+0x6>
10007ea4:	22f0      	movs	r2, #240	; 0xf0
10007ea6:	0092      	lsls	r2, r2, #2
10007ea8:	2100      	movs	r1, #0
10007eaa:	4804      	ldr	r0, [pc, #16]	; (10007ebc <reset_non_control_endpoints+0x34>)
10007eac:	f7ff fb56 	bl	1000755c <__wrap_memset>
10007eb0:	4b03      	ldr	r3, [pc, #12]	; (10007ec0 <reset_non_control_endpoints+0x38>)
10007eb2:	4a04      	ldr	r2, [pc, #16]	; (10007ec4 <reset_non_control_endpoints+0x3c>)
10007eb4:	601a      	str	r2, [r3, #0]
10007eb6:	bd10      	pop	{r4, pc}
10007eb8:	50100000 	.word	0x50100000
10007ebc:	20001728 	.word	0x20001728
10007ec0:	20001e2c 	.word	0x20001e2c
10007ec4:	50100180 	.word	0x50100180

10007ec8 <hw_handle_buff_status>:
10007ec8:	b5f0      	push	{r4, r5, r6, r7, lr}
10007eca:	46ce      	mov	lr, r9
10007ecc:	4647      	mov	r7, r8
10007ece:	b580      	push	{r7, lr}
10007ed0:	b083      	sub	sp, #12
10007ed2:	4b1d      	ldr	r3, [pc, #116]	; (10007f48 <hw_handle_buff_status+0x80>)
10007ed4:	6d9f      	ldr	r7, [r3, #88]	; 0x58
10007ed6:	2400      	movs	r4, #0
10007ed8:	2601      	movs	r6, #1
10007eda:	e003      	b.n	10007ee4 <hw_handle_buff_status+0x1c>
10007edc:	43b7      	bics	r7, r6
10007ede:	0076      	lsls	r6, r6, #1
10007ee0:	3401      	adds	r4, #1
10007ee2:	b2e4      	uxtb	r4, r4
10007ee4:	2f00      	cmp	r7, #0
10007ee6:	d029      	beq.n	10007f3c <hw_handle_buff_status+0x74>
10007ee8:	2c1f      	cmp	r4, #31
10007eea:	d827      	bhi.n	10007f3c <hw_handle_buff_status+0x74>
10007eec:	423e      	tst	r6, r7
10007eee:	d0f6      	beq.n	10007ede <hw_handle_buff_status+0x16>
10007ef0:	4b16      	ldr	r3, [pc, #88]	; (10007f4c <hw_handle_buff_status+0x84>)
10007ef2:	659e      	str	r6, [r3, #88]	; 0x58
10007ef4:	0863      	lsrs	r3, r4, #1
10007ef6:	4699      	mov	r9, r3
10007ef8:	2301      	movs	r3, #1
10007efa:	4063      	eors	r3, r4
10007efc:	2201      	movs	r2, #1
10007efe:	401a      	ands	r2, r3
10007f00:	4690      	mov	r8, r2
10007f02:	464b      	mov	r3, r9
10007f04:	005d      	lsls	r5, r3, #1
10007f06:	4445      	add	r5, r8
10007f08:	016d      	lsls	r5, r5, #5
10007f0a:	4b11      	ldr	r3, [pc, #68]	; (10007f50 <hw_handle_buff_status+0x88>)
10007f0c:	18ed      	adds	r5, r5, r3
10007f0e:	0028      	movs	r0, r5
10007f10:	f000 faac 	bl	1000846c <hw_endpoint_xfer_continue>
10007f14:	2800      	cmp	r0, #0
10007f16:	d0e1      	beq.n	10007edc <hw_handle_buff_status+0x14>
10007f18:	464b      	mov	r3, r9
10007f1a:	005b      	lsls	r3, r3, #1
10007f1c:	4443      	add	r3, r8
10007f1e:	015b      	lsls	r3, r3, #5
10007f20:	4a0b      	ldr	r2, [pc, #44]	; (10007f50 <hw_handle_buff_status+0x88>)
10007f22:	18d3      	adds	r3, r2, r3
10007f24:	8a9a      	ldrh	r2, [r3, #20]
10007f26:	7899      	ldrb	r1, [r3, #2]
10007f28:	2301      	movs	r3, #1
10007f2a:	9300      	str	r3, [sp, #0]
10007f2c:	2300      	movs	r3, #0
10007f2e:	2000      	movs	r0, #0
10007f30:	f000 fe0a 	bl	10008b48 <dcd_event_xfer_complete>
10007f34:	0028      	movs	r0, r5
10007f36:	f000 fa09 	bl	1000834c <hw_endpoint_reset_transfer>
10007f3a:	e7cf      	b.n	10007edc <hw_handle_buff_status+0x14>
10007f3c:	b003      	add	sp, #12
10007f3e:	bcc0      	pop	{r6, r7}
10007f40:	46b9      	mov	r9, r7
10007f42:	46b0      	mov	r8, r6
10007f44:	bdf0      	pop	{r4, r5, r6, r7, pc}
10007f46:	46c0      	nop			; (mov r8, r8)
10007f48:	50110000 	.word	0x50110000
10007f4c:	50113000 	.word	0x50113000
10007f50:	200016e8 	.word	0x200016e8

10007f54 <dcd_rp2040_irq>:
10007f54:	b570      	push	{r4, r5, r6, lr}
10007f56:	4a2b      	ldr	r2, [pc, #172]	; (10008004 <dcd_rp2040_irq+0xb0>)
10007f58:	2398      	movs	r3, #152	; 0x98
10007f5a:	58d4      	ldr	r4, [r2, r3]
10007f5c:	2380      	movs	r3, #128	; 0x80
10007f5e:	025b      	lsls	r3, r3, #9
10007f60:	0025      	movs	r5, r4
10007f62:	401d      	ands	r5, r3
10007f64:	421c      	tst	r4, r3
10007f66:	d10a      	bne.n	10007f7e <dcd_rp2040_irq+0x2a>
10007f68:	06e3      	lsls	r3, r4, #27
10007f6a:	d416      	bmi.n	10007f9a <dcd_rp2040_irq+0x46>
10007f6c:	04e3      	lsls	r3, r4, #19
10007f6e:	d419      	bmi.n	10007fa4 <dcd_rp2040_irq+0x50>
10007f70:	0463      	lsls	r3, r4, #17
10007f72:	d429      	bmi.n	10007fc8 <dcd_rp2040_irq+0x74>
10007f74:	0423      	lsls	r3, r4, #16
10007f76:	d433      	bmi.n	10007fe0 <dcd_rp2040_irq+0x8c>
10007f78:	42a5      	cmp	r5, r4
10007f7a:	d13e      	bne.n	10007ffa <dcd_rp2040_irq+0xa6>
10007f7c:	bd70      	pop	{r4, r5, r6, pc}
10007f7e:	f7ff fef3 	bl	10007d68 <reset_ep0_pid>
10007f82:	2201      	movs	r2, #1
10007f84:	4920      	ldr	r1, [pc, #128]	; (10008008 <dcd_rp2040_irq+0xb4>)
10007f86:	2000      	movs	r0, #0
10007f88:	f000 fdc4 	bl	10008b14 <dcd_event_setup_received>
10007f8c:	4b1f      	ldr	r3, [pc, #124]	; (1000800c <dcd_rp2040_irq+0xb8>)
10007f8e:	2280      	movs	r2, #128	; 0x80
10007f90:	0292      	lsls	r2, r2, #10
10007f92:	651a      	str	r2, [r3, #80]	; 0x50
10007f94:	2580      	movs	r5, #128	; 0x80
10007f96:	026d      	lsls	r5, r5, #9
10007f98:	e7e6      	b.n	10007f68 <dcd_rp2040_irq+0x14>
10007f9a:	2310      	movs	r3, #16
10007f9c:	431d      	orrs	r5, r3
10007f9e:	f7ff ff93 	bl	10007ec8 <hw_handle_buff_status>
10007fa2:	e7e3      	b.n	10007f6c <dcd_rp2040_irq+0x18>
10007fa4:	2380      	movs	r3, #128	; 0x80
10007fa6:	015b      	lsls	r3, r3, #5
10007fa8:	431d      	orrs	r5, r3
10007faa:	4b16      	ldr	r3, [pc, #88]	; (10008004 <dcd_rp2040_irq+0xb0>)
10007fac:	2200      	movs	r2, #0
10007fae:	601a      	str	r2, [r3, #0]
10007fb0:	f7ff ff6a 	bl	10007e88 <reset_non_control_endpoints>
10007fb4:	2201      	movs	r2, #1
10007fb6:	2100      	movs	r1, #0
10007fb8:	2000      	movs	r0, #0
10007fba:	f000 fd96 	bl	10008aea <dcd_event_bus_reset>
10007fbe:	4b13      	ldr	r3, [pc, #76]	; (1000800c <dcd_rp2040_irq+0xb8>)
10007fc0:	2280      	movs	r2, #128	; 0x80
10007fc2:	0312      	lsls	r2, r2, #12
10007fc4:	651a      	str	r2, [r3, #80]	; 0x50
10007fc6:	e7d3      	b.n	10007f70 <dcd_rp2040_irq+0x1c>
10007fc8:	2380      	movs	r3, #128	; 0x80
10007fca:	01db      	lsls	r3, r3, #7
10007fcc:	431d      	orrs	r5, r3
10007fce:	2201      	movs	r2, #1
10007fd0:	2104      	movs	r1, #4
10007fd2:	2000      	movs	r0, #0
10007fd4:	f000 fd76 	bl	10008ac4 <dcd_event_bus_signal>
10007fd8:	4b0c      	ldr	r3, [pc, #48]	; (1000800c <dcd_rp2040_irq+0xb8>)
10007fda:	2210      	movs	r2, #16
10007fdc:	651a      	str	r2, [r3, #80]	; 0x50
10007fde:	e7c9      	b.n	10007f74 <dcd_rp2040_irq+0x20>
10007fe0:	2380      	movs	r3, #128	; 0x80
10007fe2:	021b      	lsls	r3, r3, #8
10007fe4:	431d      	orrs	r5, r3
10007fe6:	2201      	movs	r2, #1
10007fe8:	2105      	movs	r1, #5
10007fea:	2000      	movs	r0, #0
10007fec:	f000 fd6a 	bl	10008ac4 <dcd_event_bus_signal>
10007ff0:	4b06      	ldr	r3, [pc, #24]	; (1000800c <dcd_rp2040_irq+0xb8>)
10007ff2:	2280      	movs	r2, #128	; 0x80
10007ff4:	0112      	lsls	r2, r2, #4
10007ff6:	651a      	str	r2, [r3, #80]	; 0x50
10007ff8:	e7be      	b.n	10007f78 <dcd_rp2040_irq+0x24>
10007ffa:	0029      	movs	r1, r5
10007ffc:	4061      	eors	r1, r4
10007ffe:	4804      	ldr	r0, [pc, #16]	; (10008010 <dcd_rp2040_irq+0xbc>)
10008000:	f7fc fb18 	bl	10004634 <panic>
10008004:	50110000 	.word	0x50110000
10008008:	50100000 	.word	0x50100000
1000800c:	50113000 	.word	0x50113000
10008010:	1000c228 	.word	0x1000c228

10008014 <hw_endpoint_xfer>:
10008014:	b570      	push	{r4, r5, r6, lr}
10008016:	000c      	movs	r4, r1
10008018:	0015      	movs	r5, r2
1000801a:	f7ff fe99 	bl	10007d50 <hw_endpoint_get_by_addr>
1000801e:	002a      	movs	r2, r5
10008020:	0021      	movs	r1, r4
10008022:	f000 f9ff 	bl	10008424 <hw_endpoint_xfer_start>
10008026:	bd70      	pop	{r4, r5, r6, pc}

10008028 <dcd_int_enable>:
10008028:	b510      	push	{r4, lr}
1000802a:	2800      	cmp	r0, #0
1000802c:	d104      	bne.n	10008038 <dcd_int_enable+0x10>
1000802e:	2101      	movs	r1, #1
10008030:	2005      	movs	r0, #5
10008032:	f7fa fd6f 	bl	10002b14 <irq_set_enabled>
10008036:	bd10      	pop	{r4, pc}
10008038:	21b9      	movs	r1, #185	; 0xb9
1000803a:	4b03      	ldr	r3, [pc, #12]	; (10008048 <dcd_int_enable+0x20>)
1000803c:	4a03      	ldr	r2, [pc, #12]	; (1000804c <dcd_int_enable+0x24>)
1000803e:	0049      	lsls	r1, r1, #1
10008040:	4803      	ldr	r0, [pc, #12]	; (10008050 <dcd_int_enable+0x28>)
10008042:	f7fc fa5d 	bl	10004500 <__assert_func>
10008046:	46c0      	nop			; (mov r8, r8)
10008048:	1000c23c 	.word	0x1000c23c
1000804c:	1000c278 	.word	0x1000c278
10008050:	1000c1a0 	.word	0x1000c1a0

10008054 <dcd_set_address>:
10008054:	b510      	push	{r4, lr}
10008056:	2800      	cmp	r0, #0
10008058:	d105      	bne.n	10008066 <dcd_set_address+0x12>
1000805a:	2200      	movs	r2, #0
1000805c:	2100      	movs	r1, #0
1000805e:	2080      	movs	r0, #128	; 0x80
10008060:	f7ff ffd8 	bl	10008014 <hw_endpoint_xfer>
10008064:	bd10      	pop	{r4, pc}
10008066:	21bf      	movs	r1, #191	; 0xbf
10008068:	4b02      	ldr	r3, [pc, #8]	; (10008074 <dcd_set_address+0x20>)
1000806a:	4a03      	ldr	r2, [pc, #12]	; (10008078 <dcd_set_address+0x24>)
1000806c:	0049      	lsls	r1, r1, #1
1000806e:	4803      	ldr	r0, [pc, #12]	; (1000807c <dcd_set_address+0x28>)
10008070:	f7fc fa46 	bl	10004500 <__assert_func>
10008074:	1000c23c 	.word	0x1000c23c
10008078:	1000c268 	.word	0x1000c268
1000807c:	1000c1a0 	.word	0x1000c1a0

10008080 <dcd_connect>:
10008080:	4b02      	ldr	r3, [pc, #8]	; (1000808c <dcd_connect+0xc>)
10008082:	2280      	movs	r2, #128	; 0x80
10008084:	0252      	lsls	r2, r2, #9
10008086:	64da      	str	r2, [r3, #76]	; 0x4c
10008088:	4770      	bx	lr
1000808a:	46c0      	nop			; (mov r8, r8)
1000808c:	50112000 	.word	0x50112000

10008090 <dcd_init>:
10008090:	b570      	push	{r4, r5, r6, lr}
10008092:	1e04      	subs	r4, r0, #0
10008094:	d125      	bne.n	100080e2 <dcd_init+0x52>
10008096:	f000 f933 	bl	10008300 <rp2040_usb_init>
1000809a:	4d15      	ldr	r5, [pc, #84]	; (100080f0 <dcd_init+0x60>)
1000809c:	230c      	movs	r3, #12
1000809e:	67ab      	str	r3, [r5, #120]	; 0x78
100080a0:	4914      	ldr	r1, [pc, #80]	; (100080f4 <dcd_init+0x64>)
100080a2:	2005      	movs	r0, #5
100080a4:	f7fa fd60 	bl	10002b68 <irq_set_exclusive_handler>
100080a8:	2240      	movs	r2, #64	; 0x40
100080aa:	2100      	movs	r1, #0
100080ac:	4812      	ldr	r0, [pc, #72]	; (100080f8 <dcd_init+0x68>)
100080ae:	f7ff fa55 	bl	1000755c <__wrap_memset>
100080b2:	2200      	movs	r2, #0
100080b4:	2140      	movs	r1, #64	; 0x40
100080b6:	2000      	movs	r0, #0
100080b8:	f7ff fea2 	bl	10007e00 <hw_endpoint_init>
100080bc:	2200      	movs	r2, #0
100080be:	2140      	movs	r1, #64	; 0x40
100080c0:	2080      	movs	r0, #128	; 0x80
100080c2:	f7ff fe9d 	bl	10007e00 <hw_endpoint_init>
100080c6:	f7ff fedf 	bl	10007e88 <reset_non_control_endpoints>
100080ca:	2301      	movs	r3, #1
100080cc:	642b      	str	r3, [r5, #64]	; 0x40
100080ce:	2380      	movs	r3, #128	; 0x80
100080d0:	059b      	lsls	r3, r3, #22
100080d2:	64eb      	str	r3, [r5, #76]	; 0x4c
100080d4:	2390      	movs	r3, #144	; 0x90
100080d6:	4a09      	ldr	r2, [pc, #36]	; (100080fc <dcd_init+0x6c>)
100080d8:	50ea      	str	r2, [r5, r3]
100080da:	0020      	movs	r0, r4
100080dc:	f7ff ffd0 	bl	10008080 <dcd_connect>
100080e0:	bd70      	pop	{r4, r5, r6, pc}
100080e2:	214e      	movs	r1, #78	; 0x4e
100080e4:	4b06      	ldr	r3, [pc, #24]	; (10008100 <dcd_init+0x70>)
100080e6:	4a07      	ldr	r2, [pc, #28]	; (10008104 <dcd_init+0x74>)
100080e8:	31ff      	adds	r1, #255	; 0xff
100080ea:	4807      	ldr	r0, [pc, #28]	; (10008108 <dcd_init+0x78>)
100080ec:	f7fc fa08 	bl	10004500 <__assert_func>
100080f0:	50110000 	.word	0x50110000
100080f4:	10007f55 	.word	0x10007f55
100080f8:	200016e8 	.word	0x200016e8
100080fc:	0001d010 	.word	0x0001d010
10008100:	1000c23c 	.word	0x1000c23c
10008104:	1000c29c 	.word	0x1000c29c
10008108:	1000c1a0 	.word	0x1000c1a0

1000810c <dcd_edpt0_status_complete>:
1000810c:	780b      	ldrb	r3, [r1, #0]
1000810e:	065b      	lsls	r3, r3, #25
10008110:	d102      	bne.n	10008118 <dcd_edpt0_status_complete+0xc>
10008112:	784b      	ldrb	r3, [r1, #1]
10008114:	2b05      	cmp	r3, #5
10008116:	d000      	beq.n	1000811a <dcd_edpt0_status_complete+0xe>
10008118:	4770      	bx	lr
1000811a:	788a      	ldrb	r2, [r1, #2]
1000811c:	4b01      	ldr	r3, [pc, #4]	; (10008124 <dcd_edpt0_status_complete+0x18>)
1000811e:	601a      	str	r2, [r3, #0]
10008120:	e7fa      	b.n	10008118 <dcd_edpt0_status_complete+0xc>
10008122:	46c0      	nop			; (mov r8, r8)
10008124:	50110000 	.word	0x50110000

10008128 <dcd_edpt_open>:
10008128:	b510      	push	{r4, lr}
1000812a:	000c      	movs	r4, r1
1000812c:	2800      	cmp	r0, #0
1000812e:	d10d      	bne.n	1000814c <dcd_edpt_open+0x24>
10008130:	790a      	ldrb	r2, [r1, #4]
10008132:	794b      	ldrb	r3, [r1, #5]
10008134:	2107      	movs	r1, #7
10008136:	4019      	ands	r1, r3
10008138:	0209      	lsls	r1, r1, #8
1000813a:	4311      	orrs	r1, r2
1000813c:	78e2      	ldrb	r2, [r4, #3]
1000813e:	0792      	lsls	r2, r2, #30
10008140:	0f92      	lsrs	r2, r2, #30
10008142:	78a0      	ldrb	r0, [r4, #2]
10008144:	f7ff fe5c 	bl	10007e00 <hw_endpoint_init>
10008148:	2001      	movs	r0, #1
1000814a:	bd10      	pop	{r4, pc}
1000814c:	21d6      	movs	r1, #214	; 0xd6
1000814e:	4b03      	ldr	r3, [pc, #12]	; (1000815c <dcd_edpt_open+0x34>)
10008150:	4a03      	ldr	r2, [pc, #12]	; (10008160 <dcd_edpt_open+0x38>)
10008152:	0049      	lsls	r1, r1, #1
10008154:	4803      	ldr	r0, [pc, #12]	; (10008164 <dcd_edpt_open+0x3c>)
10008156:	f7fc f9d3 	bl	10004500 <__assert_func>
1000815a:	46c0      	nop			; (mov r8, r8)
1000815c:	1000c23c 	.word	0x1000c23c
10008160:	1000c258 	.word	0x1000c258
10008164:	1000c1a0 	.word	0x1000c1a0

10008168 <dcd_edpt_close_all>:
10008168:	b510      	push	{r4, lr}
1000816a:	f7ff fe8d 	bl	10007e88 <reset_non_control_endpoints>
1000816e:	bd10      	pop	{r4, pc}

10008170 <dcd_edpt_xfer>:
10008170:	b510      	push	{r4, lr}
10008172:	0004      	movs	r4, r0
10008174:	0008      	movs	r0, r1
10008176:	0011      	movs	r1, r2
10008178:	001a      	movs	r2, r3
1000817a:	2c00      	cmp	r4, #0
1000817c:	d103      	bne.n	10008186 <dcd_edpt_xfer+0x16>
1000817e:	f7ff ff49 	bl	10008014 <hw_endpoint_xfer>
10008182:	2001      	movs	r0, #1
10008184:	bd10      	pop	{r4, pc}
10008186:	21bc      	movs	r1, #188	; 0xbc
10008188:	4b02      	ldr	r3, [pc, #8]	; (10008194 <dcd_edpt_xfer+0x24>)
1000818a:	4a03      	ldr	r2, [pc, #12]	; (10008198 <dcd_edpt_xfer+0x28>)
1000818c:	31ff      	adds	r1, #255	; 0xff
1000818e:	4803      	ldr	r0, [pc, #12]	; (1000819c <dcd_edpt_xfer+0x2c>)
10008190:	f7fc f9b6 	bl	10004500 <__assert_func>
10008194:	1000c23c 	.word	0x1000c23c
10008198:	1000c248 	.word	0x1000c248
1000819c:	1000c1a0 	.word	0x1000c1a0

100081a0 <dcd_edpt_stall>:
100081a0:	b510      	push	{r4, lr}
100081a2:	0008      	movs	r0, r1
100081a4:	064b      	lsls	r3, r1, #25
100081a6:	d105      	bne.n	100081b4 <dcd_edpt_stall+0x14>
100081a8:	09cb      	lsrs	r3, r1, #7
100081aa:	2b01      	cmp	r3, #1
100081ac:	d00a      	beq.n	100081c4 <dcd_edpt_stall+0x24>
100081ae:	2202      	movs	r2, #2
100081b0:	4b05      	ldr	r3, [pc, #20]	; (100081c8 <dcd_edpt_stall+0x28>)
100081b2:	669a      	str	r2, [r3, #104]	; 0x68
100081b4:	f7ff fdcc 	bl	10007d50 <hw_endpoint_get_by_addr>
100081b8:	2280      	movs	r2, #128	; 0x80
100081ba:	0112      	lsls	r2, r2, #4
100081bc:	2100      	movs	r1, #0
100081be:	f000 f8cb 	bl	10008358 <_hw_endpoint_buffer_control_update32>
100081c2:	bd10      	pop	{r4, pc}
100081c4:	2201      	movs	r2, #1
100081c6:	e7f3      	b.n	100081b0 <dcd_edpt_stall+0x10>
100081c8:	50112000 	.word	0x50112000

100081cc <dcd_edpt_clear_stall>:
100081cc:	b510      	push	{r4, lr}
100081ce:	0008      	movs	r0, r1
100081d0:	064b      	lsls	r3, r1, #25
100081d2:	d100      	bne.n	100081d6 <dcd_edpt_clear_stall+0xa>
100081d4:	bd10      	pop	{r4, pc}
100081d6:	f7ff fdbb 	bl	10007d50 <hw_endpoint_get_by_addr>
100081da:	2300      	movs	r3, #0
100081dc:	70c3      	strb	r3, [r0, #3]
100081de:	2200      	movs	r2, #0
100081e0:	4901      	ldr	r1, [pc, #4]	; (100081e8 <dcd_edpt_clear_stall+0x1c>)
100081e2:	f000 f8b9 	bl	10008358 <_hw_endpoint_buffer_control_update32>
100081e6:	e7f5      	b.n	100081d4 <dcd_edpt_clear_stall+0x8>
100081e8:	fffff7ff 	.word	0xfffff7ff

100081ec <prepare_ep_buffer>:
100081ec:	b5f8      	push	{r3, r4, r5, r6, r7, lr}
100081ee:	0004      	movs	r4, r0
100081f0:	000f      	movs	r7, r1
100081f2:	8a43      	ldrh	r3, [r0, #18]
100081f4:	8b82      	ldrh	r2, [r0, #28]
100081f6:	1c1e      	adds	r6, r3, #0
100081f8:	4293      	cmp	r3, r2
100081fa:	d900      	bls.n	100081fe <prepare_ep_buffer+0x12>
100081fc:	1c16      	adds	r6, r2, #0
100081fe:	b2b6      	uxth	r6, r6
10008200:	1b9b      	subs	r3, r3, r6
10008202:	8263      	strh	r3, [r4, #18]
10008204:	2580      	movs	r5, #128	; 0x80
10008206:	00ed      	lsls	r5, r5, #3
10008208:	4335      	orrs	r5, r6
1000820a:	78e3      	ldrb	r3, [r4, #3]
1000820c:	2b00      	cmp	r3, #0
1000820e:	d013      	beq.n	10008238 <prepare_ep_buffer+0x4c>
10008210:	2280      	movs	r2, #128	; 0x80
10008212:	0192      	lsls	r2, r2, #6
10008214:	4315      	orrs	r5, r2
10008216:	2201      	movs	r2, #1
10008218:	4053      	eors	r3, r2
1000821a:	70e3      	strb	r3, [r4, #3]
1000821c:	7863      	ldrb	r3, [r4, #1]
1000821e:	2b00      	cmp	r3, #0
10008220:	d00c      	beq.n	1000823c <prepare_ep_buffer+0x50>
10008222:	8a63      	ldrh	r3, [r4, #18]
10008224:	2b00      	cmp	r3, #0
10008226:	d102      	bne.n	1000822e <prepare_ep_buffer+0x42>
10008228:	2380      	movs	r3, #128	; 0x80
1000822a:	01db      	lsls	r3, r3, #7
1000822c:	431d      	orrs	r5, r3
1000822e:	2f00      	cmp	r7, #0
10008230:	d000      	beq.n	10008234 <prepare_ep_buffer+0x48>
10008232:	042d      	lsls	r5, r5, #16
10008234:	0028      	movs	r0, r5
10008236:	bdf8      	pop	{r3, r4, r5, r6, r7, pc}
10008238:	2200      	movs	r2, #0
1000823a:	e7eb      	b.n	10008214 <prepare_ep_buffer+0x28>
1000823c:	01b8      	lsls	r0, r7, #6
1000823e:	68e3      	ldr	r3, [r4, #12]
10008240:	469c      	mov	ip, r3
10008242:	4460      	add	r0, ip
10008244:	0032      	movs	r2, r6
10008246:	69a1      	ldr	r1, [r4, #24]
10008248:	f7ff f98e 	bl	10007568 <__wrap___aeabi_memcpy>
1000824c:	69a3      	ldr	r3, [r4, #24]
1000824e:	469c      	mov	ip, r3
10008250:	4466      	add	r6, ip
10008252:	61a6      	str	r6, [r4, #24]
10008254:	2380      	movs	r3, #128	; 0x80
10008256:	021b      	lsls	r3, r3, #8
10008258:	431d      	orrs	r5, r3
1000825a:	e7e2      	b.n	10008222 <prepare_ep_buffer+0x36>

1000825c <sync_ep_buffer>:
1000825c:	b570      	push	{r4, r5, r6, lr}
1000825e:	0004      	movs	r4, r0
10008260:	6883      	ldr	r3, [r0, #8]
10008262:	681b      	ldr	r3, [r3, #0]
10008264:	2900      	cmp	r1, #0
10008266:	d000      	beq.n	1000826a <sync_ep_buffer+0xe>
10008268:	0c1b      	lsrs	r3, r3, #16
1000826a:	059d      	lsls	r5, r3, #22
1000826c:	0dad      	lsrs	r5, r5, #22
1000826e:	7862      	ldrb	r2, [r4, #1]
10008270:	2a00      	cmp	r2, #0
10008272:	d111      	bne.n	10008298 <sync_ep_buffer+0x3c>
10008274:	041b      	lsls	r3, r3, #16
10008276:	d409      	bmi.n	1000828c <sync_ep_buffer+0x30>
10008278:	8aa3      	ldrh	r3, [r4, #20]
1000827a:	195b      	adds	r3, r3, r5
1000827c:	82a3      	strh	r3, [r4, #20]
1000827e:	8ba3      	ldrh	r3, [r4, #28]
10008280:	42ab      	cmp	r3, r5
10008282:	d901      	bls.n	10008288 <sync_ep_buffer+0x2c>
10008284:	2300      	movs	r3, #0
10008286:	8263      	strh	r3, [r4, #18]
10008288:	0028      	movs	r0, r5
1000828a:	bd70      	pop	{r4, r5, r6, pc}
1000828c:	4b0e      	ldr	r3, [pc, #56]	; (100082c8 <sync_ep_buffer+0x6c>)
1000828e:	4a0f      	ldr	r2, [pc, #60]	; (100082cc <sync_ep_buffer+0x70>)
10008290:	21d7      	movs	r1, #215	; 0xd7
10008292:	480f      	ldr	r0, [pc, #60]	; (100082d0 <sync_ep_buffer+0x74>)
10008294:	f7fc f934 	bl	10004500 <__assert_func>
10008298:	041b      	lsls	r3, r3, #16
1000829a:	d50e      	bpl.n	100082ba <sync_ep_buffer+0x5e>
1000829c:	0189      	lsls	r1, r1, #6
1000829e:	68e3      	ldr	r3, [r4, #12]
100082a0:	469c      	mov	ip, r3
100082a2:	4461      	add	r1, ip
100082a4:	002a      	movs	r2, r5
100082a6:	69a0      	ldr	r0, [r4, #24]
100082a8:	f7ff f95e 	bl	10007568 <__wrap___aeabi_memcpy>
100082ac:	8aa3      	ldrh	r3, [r4, #20]
100082ae:	195b      	adds	r3, r3, r5
100082b0:	82a3      	strh	r3, [r4, #20]
100082b2:	69a3      	ldr	r3, [r4, #24]
100082b4:	195b      	adds	r3, r3, r5
100082b6:	61a3      	str	r3, [r4, #24]
100082b8:	e7e1      	b.n	1000827e <sync_ep_buffer+0x22>
100082ba:	4b06      	ldr	r3, [pc, #24]	; (100082d4 <sync_ep_buffer+0x78>)
100082bc:	4a03      	ldr	r2, [pc, #12]	; (100082cc <sync_ep_buffer+0x70>)
100082be:	21de      	movs	r1, #222	; 0xde
100082c0:	4803      	ldr	r0, [pc, #12]	; (100082d0 <sync_ep_buffer+0x74>)
100082c2:	f7fc f91d 	bl	10004500 <__assert_func>
100082c6:	46c0      	nop			; (mov r8, r8)
100082c8:	1000c2a8 	.word	0x1000c2a8
100082cc:	1000c3c0 	.word	0x1000c3c0
100082d0:	1000c2c8 	.word	0x1000c2c8
100082d4:	1000c31c 	.word	0x1000c31c

100082d8 <_hw_endpoint_xfer_sync>:
100082d8:	b510      	push	{r4, lr}
100082da:	0004      	movs	r4, r0
100082dc:	6883      	ldr	r3, [r0, #8]
100082de:	681b      	ldr	r3, [r3, #0]
100082e0:	2100      	movs	r1, #0
100082e2:	f7ff ffbb 	bl	1000825c <sync_ep_buffer>
100082e6:	6863      	ldr	r3, [r4, #4]
100082e8:	681b      	ldr	r3, [r3, #0]
100082ea:	005b      	lsls	r3, r3, #1
100082ec:	d502      	bpl.n	100082f4 <_hw_endpoint_xfer_sync+0x1c>
100082ee:	8ba3      	ldrh	r3, [r4, #28]
100082f0:	4283      	cmp	r3, r0
100082f2:	d000      	beq.n	100082f6 <_hw_endpoint_xfer_sync+0x1e>
100082f4:	bd10      	pop	{r4, pc}
100082f6:	2101      	movs	r1, #1
100082f8:	0020      	movs	r0, r4
100082fa:	f7ff ffaf 	bl	1000825c <sync_ep_buffer>
100082fe:	e7f9      	b.n	100082f4 <_hw_endpoint_xfer_sync+0x1c>

10008300 <rp2040_usb_init>:
10008300:	b510      	push	{r4, lr}
10008302:	2380      	movs	r3, #128	; 0x80
10008304:	045b      	lsls	r3, r3, #17
10008306:	4a0c      	ldr	r2, [pc, #48]	; (10008338 <rp2040_usb_init+0x38>)
10008308:	6013      	str	r3, [r2, #0]
1000830a:	4a0c      	ldr	r2, [pc, #48]	; (1000833c <rp2040_usb_init+0x3c>)
1000830c:	6013      	str	r3, [r2, #0]
1000830e:	4b0c      	ldr	r3, [pc, #48]	; (10008340 <rp2040_usb_init+0x40>)
10008310:	689a      	ldr	r2, [r3, #8]
10008312:	2380      	movs	r3, #128	; 0x80
10008314:	045b      	lsls	r3, r3, #17
10008316:	4393      	bics	r3, r2
10008318:	d1f9      	bne.n	1000830e <rp2040_usb_init+0xe>
1000831a:	4c0a      	ldr	r4, [pc, #40]	; (10008344 <rp2040_usb_init+0x44>)
1000831c:	229c      	movs	r2, #156	; 0x9c
1000831e:	2100      	movs	r1, #0
10008320:	0020      	movs	r0, r4
10008322:	f7ff f91b 	bl	1000755c <__wrap_memset>
10008326:	2280      	movs	r2, #128	; 0x80
10008328:	0152      	lsls	r2, r2, #5
1000832a:	2100      	movs	r1, #0
1000832c:	4806      	ldr	r0, [pc, #24]	; (10008348 <rp2040_usb_init+0x48>)
1000832e:	f7ff f915 	bl	1000755c <__wrap_memset>
10008332:	2309      	movs	r3, #9
10008334:	6763      	str	r3, [r4, #116]	; 0x74
10008336:	bd10      	pop	{r4, pc}
10008338:	4000e000 	.word	0x4000e000
1000833c:	4000f000 	.word	0x4000f000
10008340:	4000c000 	.word	0x4000c000
10008344:	50110000 	.word	0x50110000
10008348:	50100000 	.word	0x50100000

1000834c <hw_endpoint_reset_transfer>:
1000834c:	2300      	movs	r3, #0
1000834e:	7403      	strb	r3, [r0, #16]
10008350:	8243      	strh	r3, [r0, #18]
10008352:	8283      	strh	r3, [r0, #20]
10008354:	6183      	str	r3, [r0, #24]
10008356:	4770      	bx	lr

10008358 <_hw_endpoint_buffer_control_update32>:
10008358:	b510      	push	{r4, lr}
1000835a:	2900      	cmp	r1, #0
1000835c:	d002      	beq.n	10008364 <_hw_endpoint_buffer_control_update32+0xc>
1000835e:	6883      	ldr	r3, [r0, #8]
10008360:	681b      	ldr	r3, [r3, #0]
10008362:	4019      	ands	r1, r3
10008364:	2a00      	cmp	r2, #0
10008366:	d00f      	beq.n	10008388 <_hw_endpoint_buffer_control_update32+0x30>
10008368:	4311      	orrs	r1, r2
1000836a:	0553      	lsls	r3, r2, #21
1000836c:	d50c      	bpl.n	10008388 <_hw_endpoint_buffer_control_update32+0x30>
1000836e:	6882      	ldr	r2, [r0, #8]
10008370:	6813      	ldr	r3, [r2, #0]
10008372:	055b      	lsls	r3, r3, #21
10008374:	d40b      	bmi.n	1000838e <_hw_endpoint_buffer_control_update32+0x36>
10008376:	4b0b      	ldr	r3, [pc, #44]	; (100083a4 <_hw_endpoint_buffer_control_update32+0x4c>)
10008378:	400b      	ands	r3, r1
1000837a:	6013      	str	r3, [r2, #0]
1000837c:	e7ff      	b.n	1000837e <_hw_endpoint_buffer_control_update32+0x26>
1000837e:	e7ff      	b.n	10008380 <_hw_endpoint_buffer_control_update32+0x28>
10008380:	e7ff      	b.n	10008382 <_hw_endpoint_buffer_control_update32+0x2a>
10008382:	e7ff      	b.n	10008384 <_hw_endpoint_buffer_control_update32+0x2c>
10008384:	e7ff      	b.n	10008386 <_hw_endpoint_buffer_control_update32+0x2e>
10008386:	e7ff      	b.n	10008388 <_hw_endpoint_buffer_control_update32+0x30>
10008388:	6883      	ldr	r3, [r0, #8]
1000838a:	6019      	str	r1, [r3, #0]
1000838c:	bd10      	pop	{r4, pc}
1000838e:	7883      	ldrb	r3, [r0, #2]
10008390:	217f      	movs	r1, #127	; 0x7f
10008392:	4019      	ands	r1, r3
10008394:	09db      	lsrs	r3, r3, #7
10008396:	009b      	lsls	r3, r3, #2
10008398:	4a03      	ldr	r2, [pc, #12]	; (100083a8 <_hw_endpoint_buffer_control_update32+0x50>)
1000839a:	589a      	ldr	r2, [r3, r2]
1000839c:	4803      	ldr	r0, [pc, #12]	; (100083ac <_hw_endpoint_buffer_control_update32+0x54>)
1000839e:	f7fc f949 	bl	10004634 <panic>
100083a2:	46c0      	nop			; (mov r8, r8)
100083a4:	fffffbff 	.word	0xfffffbff
100083a8:	200004f8 	.word	0x200004f8
100083ac:	1000c33c 	.word	0x1000c33c

100083b0 <_hw_endpoint_start_next_buffer>:
100083b0:	b570      	push	{r4, r5, r6, lr}
100083b2:	0004      	movs	r4, r0
100083b4:	6843      	ldr	r3, [r0, #4]
100083b6:	681e      	ldr	r6, [r3, #0]
100083b8:	2100      	movs	r1, #0
100083ba:	f7ff ff17 	bl	100081ec <prepare_ep_buffer>
100083be:	2580      	movs	r5, #128	; 0x80
100083c0:	016d      	lsls	r5, r5, #5
100083c2:	4305      	orrs	r5, r0
100083c4:	4b14      	ldr	r3, [pc, #80]	; (10008418 <_hw_endpoint_start_next_buffer+0x68>)
100083c6:	6c1b      	ldr	r3, [r3, #64]	; 0x40
100083c8:	079b      	lsls	r3, r3, #30
100083ca:	d404      	bmi.n	100083d6 <_hw_endpoint_start_next_buffer+0x26>
100083cc:	78a3      	ldrb	r3, [r4, #2]
100083ce:	09db      	lsrs	r3, r3, #7
100083d0:	d114      	bne.n	100083fc <_hw_endpoint_start_next_buffer+0x4c>
100083d2:	3301      	adds	r3, #1
100083d4:	e000      	b.n	100083d8 <_hw_endpoint_start_next_buffer+0x28>
100083d6:	2300      	movs	r3, #0
100083d8:	8a62      	ldrh	r2, [r4, #18]
100083da:	2a00      	cmp	r2, #0
100083dc:	d001      	beq.n	100083e2 <_hw_endpoint_start_next_buffer+0x32>
100083de:	2b00      	cmp	r3, #0
100083e0:	d00e      	beq.n	10008400 <_hw_endpoint_start_next_buffer+0x50>
100083e2:	4b0e      	ldr	r3, [pc, #56]	; (1000841c <_hw_endpoint_start_next_buffer+0x6c>)
100083e4:	401e      	ands	r6, r3
100083e6:	2380      	movs	r3, #128	; 0x80
100083e8:	059b      	lsls	r3, r3, #22
100083ea:	4333      	orrs	r3, r6
100083ec:	6862      	ldr	r2, [r4, #4]
100083ee:	6013      	str	r3, [r2, #0]
100083f0:	002a      	movs	r2, r5
100083f2:	2100      	movs	r1, #0
100083f4:	0020      	movs	r0, r4
100083f6:	f7ff ffaf 	bl	10008358 <_hw_endpoint_buffer_control_update32>
100083fa:	bd70      	pop	{r4, r5, r6, pc}
100083fc:	2300      	movs	r3, #0
100083fe:	e7eb      	b.n	100083d8 <_hw_endpoint_start_next_buffer+0x28>
10008400:	2101      	movs	r1, #1
10008402:	0020      	movs	r0, r4
10008404:	f7ff fef2 	bl	100081ec <prepare_ep_buffer>
10008408:	4305      	orrs	r5, r0
1000840a:	4b05      	ldr	r3, [pc, #20]	; (10008420 <_hw_endpoint_start_next_buffer+0x70>)
1000840c:	401e      	ands	r6, r3
1000840e:	23a0      	movs	r3, #160	; 0xa0
10008410:	05db      	lsls	r3, r3, #23
10008412:	4333      	orrs	r3, r6
10008414:	e7ea      	b.n	100083ec <_hw_endpoint_start_next_buffer+0x3c>
10008416:	46c0      	nop			; (mov r8, r8)
10008418:	50110000 	.word	0x50110000
1000841c:	afffffff 	.word	0xafffffff
10008420:	dfffffff 	.word	0xdfffffff

10008424 <hw_endpoint_xfer_start>:
10008424:	b570      	push	{r4, r5, r6, lr}
10008426:	0004      	movs	r4, r0
10008428:	000d      	movs	r5, r1
1000842a:	0016      	movs	r6, r2
1000842c:	7c03      	ldrb	r3, [r0, #16]
1000842e:	2b00      	cmp	r3, #0
10008430:	d109      	bne.n	10008446 <hw_endpoint_xfer_start+0x22>
10008432:	8266      	strh	r6, [r4, #18]
10008434:	2300      	movs	r3, #0
10008436:	82a3      	strh	r3, [r4, #20]
10008438:	3301      	adds	r3, #1
1000843a:	7423      	strb	r3, [r4, #16]
1000843c:	61a5      	str	r5, [r4, #24]
1000843e:	0020      	movs	r0, r4
10008440:	f7ff ffb6 	bl	100083b0 <_hw_endpoint_start_next_buffer>
10008444:	bd70      	pop	{r4, r5, r6, pc}
10008446:	7883      	ldrb	r3, [r0, #2]
10008448:	217f      	movs	r1, #127	; 0x7f
1000844a:	4019      	ands	r1, r3
1000844c:	09db      	lsrs	r3, r3, #7
1000844e:	009b      	lsls	r3, r3, #2
10008450:	4a04      	ldr	r2, [pc, #16]	; (10008464 <hw_endpoint_xfer_start+0x40>)
10008452:	589a      	ldr	r2, [r3, r2]
10008454:	4804      	ldr	r0, [pc, #16]	; (10008468 <hw_endpoint_xfer_start+0x44>)
10008456:	f7ff f9cb 	bl	100077f0 <__wrap_printf>
1000845a:	0020      	movs	r0, r4
1000845c:	f7ff ff76 	bl	1000834c <hw_endpoint_reset_transfer>
10008460:	e7e7      	b.n	10008432 <hw_endpoint_xfer_start+0xe>
10008462:	46c0      	nop			; (mov r8, r8)
10008464:	200004f8 	.word	0x200004f8
10008468:	1000c35c 	.word	0x1000c35c

1000846c <hw_endpoint_xfer_continue>:
1000846c:	b570      	push	{r4, r5, r6, lr}
1000846e:	0004      	movs	r4, r0
10008470:	7c05      	ldrb	r5, [r0, #16]
10008472:	2d00      	cmp	r5, #0
10008474:	d006      	beq.n	10008484 <hw_endpoint_xfer_continue+0x18>
10008476:	f7ff ff2f 	bl	100082d8 <_hw_endpoint_xfer_sync>
1000847a:	8a63      	ldrh	r3, [r4, #18]
1000847c:	2b00      	cmp	r3, #0
1000847e:	d108      	bne.n	10008492 <hw_endpoint_xfer_continue+0x26>
10008480:	0028      	movs	r0, r5
10008482:	bd70      	pop	{r4, r5, r6, pc}
10008484:	7881      	ldrb	r1, [r0, #2]
10008486:	237f      	movs	r3, #127	; 0x7f
10008488:	4019      	ands	r1, r3
1000848a:	4a04      	ldr	r2, [pc, #16]	; (1000849c <hw_endpoint_xfer_continue+0x30>)
1000848c:	4804      	ldr	r0, [pc, #16]	; (100084a0 <hw_endpoint_xfer_continue+0x34>)
1000848e:	f7fc f8d1 	bl	10004634 <panic>
10008492:	0020      	movs	r0, r4
10008494:	f7ff ff8c 	bl	100083b0 <_hw_endpoint_start_next_buffer>
10008498:	2500      	movs	r5, #0
1000849a:	e7f1      	b.n	10008480 <hw_endpoint_xfer_continue+0x14>
1000849c:	200004f8 	.word	0x200004f8
100084a0:	1000c394 	.word	0x1000c394

100084a4 <configuration_reset>:
100084a4:	b570      	push	{r4, r5, r6, lr}
100084a6:	0005      	movs	r5, r0
100084a8:	2400      	movs	r4, #0
100084aa:	e00e      	b.n	100084ca <configuration_reset+0x26>
100084ac:	0063      	lsls	r3, r4, #1
100084ae:	191b      	adds	r3, r3, r4
100084b0:	00da      	lsls	r2, r3, #3
100084b2:	4b18      	ldr	r3, [pc, #96]	; (10008514 <configuration_reset+0x70>)
100084b4:	681b      	ldr	r3, [r3, #0]
100084b6:	189b      	adds	r3, r3, r2
100084b8:	e002      	b.n	100084c0 <configuration_reset+0x1c>
100084ba:	0023      	movs	r3, r4
100084bc:	e010      	b.n	100084e0 <configuration_reset+0x3c>
100084be:	2300      	movs	r3, #0
100084c0:	685b      	ldr	r3, [r3, #4]
100084c2:	0028      	movs	r0, r5
100084c4:	4798      	blx	r3
100084c6:	3401      	adds	r4, #1
100084c8:	b2e4      	uxtb	r4, r4
100084ca:	4b13      	ldr	r3, [pc, #76]	; (10008518 <configuration_reset+0x74>)
100084cc:	781b      	ldrb	r3, [r3, #0]
100084ce:	42a3      	cmp	r3, r4
100084d0:	d30e      	bcc.n	100084f0 <configuration_reset+0x4c>
100084d2:	4a12      	ldr	r2, [pc, #72]	; (1000851c <configuration_reset+0x78>)
100084d4:	2a00      	cmp	r2, #0
100084d6:	d0f0      	beq.n	100084ba <configuration_reset+0x16>
100084d8:	42a3      	cmp	r3, r4
100084da:	d8e7      	bhi.n	100084ac <configuration_reset+0x8>
100084dc:	1ae3      	subs	r3, r4, r3
100084de:	b2db      	uxtb	r3, r3
100084e0:	2b00      	cmp	r3, #0
100084e2:	d1ec      	bne.n	100084be <configuration_reset+0x1a>
100084e4:	005a      	lsls	r2, r3, #1
100084e6:	18d2      	adds	r2, r2, r3
100084e8:	00d2      	lsls	r2, r2, #3
100084ea:	4b0d      	ldr	r3, [pc, #52]	; (10008520 <configuration_reset+0x7c>)
100084ec:	189b      	adds	r3, r3, r2
100084ee:	e7e7      	b.n	100084c0 <configuration_reset+0x1c>
100084f0:	4c0c      	ldr	r4, [pc, #48]	; (10008524 <configuration_reset+0x80>)
100084f2:	2253      	movs	r2, #83	; 0x53
100084f4:	2100      	movs	r1, #0
100084f6:	0020      	movs	r0, r4
100084f8:	f7ff f830 	bl	1000755c <__wrap_memset>
100084fc:	1ce0      	adds	r0, r4, #3
100084fe:	2210      	movs	r2, #16
10008500:	21ff      	movs	r1, #255	; 0xff
10008502:	f7ff f82b 	bl	1000755c <__wrap_memset>
10008506:	0020      	movs	r0, r4
10008508:	3013      	adds	r0, #19
1000850a:	2220      	movs	r2, #32
1000850c:	21ff      	movs	r1, #255	; 0xff
1000850e:	f7ff f825 	bl	1000755c <__wrap_memset>
10008512:	bd70      	pop	{r4, r5, r6, pc}
10008514:	2000067c 	.word	0x2000067c
10008518:	20002146 	.word	0x20002146
1000851c:	10007a01 	.word	0x10007a01
10008520:	1000c508 	.word	0x1000c508
10008524:	200009b4 	.word	0x200009b4

10008528 <usbd_reset>:
10008528:	b510      	push	{r4, lr}
1000852a:	f7ff ffbb 	bl	100084a4 <configuration_reset>
1000852e:	f001 f82b 	bl	10009588 <usbd_control_reset>
10008532:	bd10      	pop	{r4, pc}

10008534 <invoke_class_control>:
10008534:	b570      	push	{r4, r5, r6, lr}
10008536:	0005      	movs	r5, r0
10008538:	000c      	movs	r4, r1
1000853a:	0016      	movs	r6, r2
1000853c:	68c8      	ldr	r0, [r1, #12]
1000853e:	f001 f82d 	bl	1000959c <usbd_control_set_complete_callback>
10008542:	68e3      	ldr	r3, [r4, #12]
10008544:	0032      	movs	r2, r6
10008546:	2100      	movs	r1, #0
10008548:	0028      	movs	r0, r5
1000854a:	4798      	blx	r3
1000854c:	bd70      	pop	{r4, r5, r6, pc}
	...

10008550 <process_set_config>:
10008550:	b5f0      	push	{r4, r5, r6, r7, lr}
10008552:	46de      	mov	lr, fp
10008554:	4657      	mov	r7, sl
10008556:	464e      	mov	r6, r9
10008558:	4645      	mov	r5, r8
1000855a:	b5e0      	push	{r5, r6, r7, lr}
1000855c:	b083      	sub	sp, #12
1000855e:	4681      	mov	r9, r0
10008560:	3901      	subs	r1, #1
10008562:	b2c8      	uxtb	r0, r1
10008564:	f7ff fbba 	bl	10007cdc <tud_descriptor_configuration_cb>
10008568:	2800      	cmp	r0, #0
1000856a:	d003      	beq.n	10008574 <process_set_config+0x24>
1000856c:	7843      	ldrb	r3, [r0, #1]
1000856e:	4698      	mov	r8, r3
10008570:	2b02      	cmp	r3, #2
10008572:	d00c      	beq.n	1000858e <process_set_config+0x3e>
10008574:	4a56      	ldr	r2, [pc, #344]	; (100086d0 <process_set_config+0x180>)
10008576:	4957      	ldr	r1, [pc, #348]	; (100086d4 <process_set_config+0x184>)
10008578:	4857      	ldr	r0, [pc, #348]	; (100086d8 <process_set_config+0x188>)
1000857a:	f7ff f939 	bl	100077f0 <__wrap_printf>
1000857e:	2000      	movs	r0, #0
10008580:	b003      	add	sp, #12
10008582:	bcf0      	pop	{r4, r5, r6, r7}
10008584:	46bb      	mov	fp, r7
10008586:	46b2      	mov	sl, r6
10008588:	46a9      	mov	r9, r5
1000858a:	46a0      	mov	r8, r4
1000858c:	bdf0      	pop	{r4, r5, r6, r7, pc}
1000858e:	79c5      	ldrb	r5, [r0, #7]
10008590:	116a      	asrs	r2, r5, #5
10008592:	2301      	movs	r3, #1
10008594:	4951      	ldr	r1, [pc, #324]	; (100086dc <process_set_config+0x18c>)
10008596:	401a      	ands	r2, r3
10008598:	0114      	lsls	r4, r2, #4
1000859a:	780a      	ldrb	r2, [r1, #0]
1000859c:	2610      	movs	r6, #16
1000859e:	43b2      	bics	r2, r6
100085a0:	4322      	orrs	r2, r4
100085a2:	700a      	strb	r2, [r1, #0]
100085a4:	11ad      	asrs	r5, r5, #6
100085a6:	402b      	ands	r3, r5
100085a8:	015b      	lsls	r3, r3, #5
100085aa:	b2d2      	uxtb	r2, r2
100085ac:	2420      	movs	r4, #32
100085ae:	43a2      	bics	r2, r4
100085b0:	4313      	orrs	r3, r2
100085b2:	700b      	strb	r3, [r1, #0]
100085b4:	0007      	movs	r7, r0
100085b6:	3709      	adds	r7, #9
100085b8:	7881      	ldrb	r1, [r0, #2]
100085ba:	78c3      	ldrb	r3, [r0, #3]
100085bc:	021b      	lsls	r3, r3, #8
100085be:	430b      	orrs	r3, r1
100085c0:	4682      	mov	sl, r0
100085c2:	449a      	add	sl, r3
100085c4:	e063      	b.n	1000868e <process_set_config+0x13e>
100085c6:	78fb      	ldrb	r3, [r7, #3]
100085c8:	469b      	mov	fp, r3
100085ca:	783b      	ldrb	r3, [r7, #0]
100085cc:	18ff      	adds	r7, r7, r3
100085ce:	e065      	b.n	1000869c <process_set_config+0x14c>
100085d0:	4a43      	ldr	r2, [pc, #268]	; (100086e0 <process_set_config+0x190>)
100085d2:	4940      	ldr	r1, [pc, #256]	; (100086d4 <process_set_config+0x184>)
100085d4:	4840      	ldr	r0, [pc, #256]	; (100086d8 <process_set_config+0x188>)
100085d6:	f7ff f90b 	bl	100077f0 <__wrap_printf>
100085da:	2000      	movs	r0, #0
100085dc:	e7d0      	b.n	10008580 <process_set_config+0x30>
100085de:	0066      	lsls	r6, r4, #1
100085e0:	1936      	adds	r6, r6, r4
100085e2:	00f3      	lsls	r3, r6, #3
100085e4:	4a3f      	ldr	r2, [pc, #252]	; (100086e4 <process_set_config+0x194>)
100085e6:	6816      	ldr	r6, [r2, #0]
100085e8:	18f6      	adds	r6, r6, r3
100085ea:	e002      	b.n	100085f2 <process_set_config+0xa2>
100085ec:	0023      	movs	r3, r4
100085ee:	e017      	b.n	10008620 <process_set_config+0xd0>
100085f0:	2600      	movs	r6, #0
100085f2:	002a      	movs	r2, r5
100085f4:	0039      	movs	r1, r7
100085f6:	4648      	mov	r0, r9
100085f8:	68b3      	ldr	r3, [r6, #8]
100085fa:	4798      	blx	r3
100085fc:	9001      	str	r0, [sp, #4]
100085fe:	2808      	cmp	r0, #8
10008600:	d901      	bls.n	10008606 <process_set_config+0xb6>
10008602:	4285      	cmp	r5, r0
10008604:	d214      	bcs.n	10008630 <process_set_config+0xe0>
10008606:	3401      	adds	r4, #1
10008608:	b2e4      	uxtb	r4, r4
1000860a:	4b37      	ldr	r3, [pc, #220]	; (100086e8 <process_set_config+0x198>)
1000860c:	781b      	ldrb	r3, [r3, #0]
1000860e:	42a3      	cmp	r3, r4
10008610:	d339      	bcc.n	10008686 <process_set_config+0x136>
10008612:	4a36      	ldr	r2, [pc, #216]	; (100086ec <process_set_config+0x19c>)
10008614:	2a00      	cmp	r2, #0
10008616:	d0e9      	beq.n	100085ec <process_set_config+0x9c>
10008618:	42a3      	cmp	r3, r4
1000861a:	d8e0      	bhi.n	100085de <process_set_config+0x8e>
1000861c:	1ae3      	subs	r3, r4, r3
1000861e:	b2db      	uxtb	r3, r3
10008620:	2b00      	cmp	r3, #0
10008622:	d1e5      	bne.n	100085f0 <process_set_config+0xa0>
10008624:	005e      	lsls	r6, r3, #1
10008626:	18f3      	adds	r3, r6, r3
10008628:	00db      	lsls	r3, r3, #3
1000862a:	4e31      	ldr	r6, [pc, #196]	; (100086f0 <process_set_config+0x1a0>)
1000862c:	18f6      	adds	r6, r6, r3
1000862e:	e7e0      	b.n	100085f2 <process_set_config+0xa2>
10008630:	465b      	mov	r3, fp
10008632:	2b01      	cmp	r3, #1
10008634:	d010      	beq.n	10008658 <process_set_config+0x108>
10008636:	2200      	movs	r2, #0
10008638:	4593      	cmp	fp, r2
1000863a:	d91a      	bls.n	10008672 <process_set_config+0x122>
1000863c:	78bb      	ldrb	r3, [r7, #2]
1000863e:	189b      	adds	r3, r3, r2
10008640:	b2db      	uxtb	r3, r3
10008642:	4926      	ldr	r1, [pc, #152]	; (100086dc <process_set_config+0x18c>)
10008644:	18c9      	adds	r1, r1, r3
10008646:	78c9      	ldrb	r1, [r1, #3]
10008648:	29ff      	cmp	r1, #255	; 0xff
1000864a:	d10b      	bne.n	10008664 <process_set_config+0x114>
1000864c:	4923      	ldr	r1, [pc, #140]	; (100086dc <process_set_config+0x18c>)
1000864e:	18cb      	adds	r3, r1, r3
10008650:	70dc      	strb	r4, [r3, #3]
10008652:	3201      	adds	r2, #1
10008654:	b2d2      	uxtb	r2, r2
10008656:	e7ef      	b.n	10008638 <process_set_config+0xe8>
10008658:	68b2      	ldr	r2, [r6, #8]
1000865a:	4b26      	ldr	r3, [pc, #152]	; (100086f4 <process_set_config+0x1a4>)
1000865c:	429a      	cmp	r2, r3
1000865e:	d1ea      	bne.n	10008636 <process_set_config+0xe6>
10008660:	46c3      	mov	fp, r8
10008662:	e7e8      	b.n	10008636 <process_set_config+0xe6>
10008664:	4a24      	ldr	r2, [pc, #144]	; (100086f8 <process_set_config+0x1a8>)
10008666:	491b      	ldr	r1, [pc, #108]	; (100086d4 <process_set_config+0x184>)
10008668:	481b      	ldr	r0, [pc, #108]	; (100086d8 <process_set_config+0x188>)
1000866a:	f7ff f8c1 	bl	100077f0 <__wrap_printf>
1000866e:	2000      	movs	r0, #0
10008670:	e786      	b.n	10008580 <process_set_config+0x30>
10008672:	481a      	ldr	r0, [pc, #104]	; (100086dc <process_set_config+0x18c>)
10008674:	0023      	movs	r3, r4
10008676:	9d01      	ldr	r5, [sp, #4]
10008678:	002a      	movs	r2, r5
1000867a:	0039      	movs	r1, r7
1000867c:	3013      	adds	r0, #19
1000867e:	f001 fbbb 	bl	10009df8 <tu_edpt_bind_driver>
10008682:	46ac      	mov	ip, r5
10008684:	4467      	add	r7, ip
10008686:	4b18      	ldr	r3, [pc, #96]	; (100086e8 <process_set_config+0x198>)
10008688:	781b      	ldrb	r3, [r3, #0]
1000868a:	42a3      	cmp	r3, r4
1000868c:	d30e      	bcc.n	100086ac <process_set_config+0x15c>
1000868e:	4557      	cmp	r7, sl
10008690:	d214      	bcs.n	100086bc <process_set_config+0x16c>
10008692:	787b      	ldrb	r3, [r7, #1]
10008694:	2b0b      	cmp	r3, #11
10008696:	d096      	beq.n	100085c6 <process_set_config+0x76>
10008698:	2301      	movs	r3, #1
1000869a:	469b      	mov	fp, r3
1000869c:	787b      	ldrb	r3, [r7, #1]
1000869e:	2b04      	cmp	r3, #4
100086a0:	d196      	bne.n	100085d0 <process_set_config+0x80>
100086a2:	4653      	mov	r3, sl
100086a4:	1bdd      	subs	r5, r3, r7
100086a6:	b2ad      	uxth	r5, r5
100086a8:	2400      	movs	r4, #0
100086aa:	e7ae      	b.n	1000860a <process_set_config+0xba>
100086ac:	22f3      	movs	r2, #243	; 0xf3
100086ae:	0092      	lsls	r2, r2, #2
100086b0:	4908      	ldr	r1, [pc, #32]	; (100086d4 <process_set_config+0x184>)
100086b2:	4809      	ldr	r0, [pc, #36]	; (100086d8 <process_set_config+0x188>)
100086b4:	f7ff f89c 	bl	100077f0 <__wrap_printf>
100086b8:	2000      	movs	r0, #0
100086ba:	e761      	b.n	10008580 <process_set_config+0x30>
100086bc:	4b0f      	ldr	r3, [pc, #60]	; (100086fc <process_set_config+0x1ac>)
100086be:	2b00      	cmp	r3, #0
100086c0:	d003      	beq.n	100086ca <process_set_config+0x17a>
100086c2:	e000      	b.n	100086c6 <process_set_config+0x176>
100086c4:	bf00      	nop
100086c6:	2001      	movs	r0, #1
100086c8:	e75a      	b.n	10008580 <process_set_config+0x30>
100086ca:	2001      	movs	r0, #1
100086cc:	e758      	b.n	10008580 <process_set_config+0x30>
100086ce:	46c0      	nop			; (mov r8, r8)
100086d0:	0000037b 	.word	0x0000037b
100086d4:	1000c4d0 	.word	0x1000c4d0
100086d8:	1000c3d0 	.word	0x1000c3d0
100086dc:	200009b4 	.word	0x200009b4
100086e0:	00000396 	.word	0x00000396
100086e4:	2000067c 	.word	0x2000067c
100086e8:	20002146 	.word	0x20002146
100086ec:	10007a01 	.word	0x10007a01
100086f0:	1000c508 	.word	0x1000c508
100086f4:	100099ad 	.word	0x100099ad
100086f8:	000003bd 	.word	0x000003bd
100086fc:	00000000 	.word	0x00000000

10008700 <process_get_descriptor>:
10008700:	b570      	push	{r4, r5, r6, lr}
10008702:	0005      	movs	r5, r0
10008704:	000c      	movs	r4, r1
10008706:	78cb      	ldrb	r3, [r1, #3]
10008708:	7888      	ldrb	r0, [r1, #2]
1000870a:	2b0f      	cmp	r3, #15
1000870c:	d854      	bhi.n	100087b8 <process_get_descriptor+0xb8>
1000870e:	009a      	lsls	r2, r3, #2
10008710:	492f      	ldr	r1, [pc, #188]	; (100087d0 <process_get_descriptor+0xd0>)
10008712:	588a      	ldr	r2, [r1, r2]
10008714:	4697      	mov	pc, r2
10008716:	f7ff fadd 	bl	10007cd4 <tud_descriptor_device_cb>
1000871a:	0002      	movs	r2, r0
1000871c:	2312      	movs	r3, #18
1000871e:	0021      	movs	r1, r4
10008720:	0028      	movs	r0, r5
10008722:	f000 fedd 	bl	100094e0 <tud_control_xfer>
10008726:	e048      	b.n	100087ba <process_get_descriptor+0xba>
10008728:	4b2a      	ldr	r3, [pc, #168]	; (100087d4 <process_get_descriptor+0xd4>)
1000872a:	2b00      	cmp	r3, #0
1000872c:	d046      	beq.n	100087bc <process_get_descriptor+0xbc>
1000872e:	e000      	b.n	10008732 <process_get_descriptor+0x32>
10008730:	bf00      	nop
10008732:	0002      	movs	r2, r0
10008734:	7881      	ldrb	r1, [r0, #2]
10008736:	78c3      	ldrb	r3, [r0, #3]
10008738:	021b      	lsls	r3, r3, #8
1000873a:	430b      	orrs	r3, r1
1000873c:	0021      	movs	r1, r4
1000873e:	0028      	movs	r0, r5
10008740:	f000 fece 	bl	100094e0 <tud_control_xfer>
10008744:	e039      	b.n	100087ba <process_get_descriptor+0xba>
10008746:	2b02      	cmp	r3, #2
10008748:	d010      	beq.n	1000876c <process_get_descriptor+0x6c>
1000874a:	4b23      	ldr	r3, [pc, #140]	; (100087d8 <process_get_descriptor+0xd8>)
1000874c:	2b00      	cmp	r3, #0
1000874e:	d037      	beq.n	100087c0 <process_get_descriptor+0xc0>
10008750:	e000      	b.n	10008754 <process_get_descriptor+0x54>
10008752:	bf00      	nop
10008754:	0002      	movs	r2, r0
10008756:	2a00      	cmp	r2, #0
10008758:	d00c      	beq.n	10008774 <process_get_descriptor+0x74>
1000875a:	7891      	ldrb	r1, [r2, #2]
1000875c:	78d3      	ldrb	r3, [r2, #3]
1000875e:	021b      	lsls	r3, r3, #8
10008760:	430b      	orrs	r3, r1
10008762:	0021      	movs	r1, r4
10008764:	0028      	movs	r0, r5
10008766:	f000 febb 	bl	100094e0 <tud_control_xfer>
1000876a:	e026      	b.n	100087ba <process_get_descriptor+0xba>
1000876c:	f7ff fab6 	bl	10007cdc <tud_descriptor_configuration_cb>
10008770:	0002      	movs	r2, r0
10008772:	e7f0      	b.n	10008756 <process_get_descriptor+0x56>
10008774:	4a19      	ldr	r2, [pc, #100]	; (100087dc <process_get_descriptor+0xdc>)
10008776:	491a      	ldr	r1, [pc, #104]	; (100087e0 <process_get_descriptor+0xe0>)
10008778:	481a      	ldr	r0, [pc, #104]	; (100087e4 <process_get_descriptor+0xe4>)
1000877a:	f7ff f839 	bl	100077f0 <__wrap_printf>
1000877e:	2000      	movs	r0, #0
10008780:	e01b      	b.n	100087ba <process_get_descriptor+0xba>
10008782:	7923      	ldrb	r3, [r4, #4]
10008784:	7961      	ldrb	r1, [r4, #5]
10008786:	0209      	lsls	r1, r1, #8
10008788:	4319      	orrs	r1, r3
1000878a:	f7ff faab 	bl	10007ce4 <tud_descriptor_string_cb>
1000878e:	1e02      	subs	r2, r0, #0
10008790:	d018      	beq.n	100087c4 <process_get_descriptor+0xc4>
10008792:	7803      	ldrb	r3, [r0, #0]
10008794:	0021      	movs	r1, r4
10008796:	0028      	movs	r0, r5
10008798:	f000 fea2 	bl	100094e0 <tud_control_xfer>
1000879c:	e00d      	b.n	100087ba <process_get_descriptor+0xba>
1000879e:	4b12      	ldr	r3, [pc, #72]	; (100087e8 <process_get_descriptor+0xe8>)
100087a0:	2b00      	cmp	r3, #0
100087a2:	d011      	beq.n	100087c8 <process_get_descriptor+0xc8>
100087a4:	e000      	b.n	100087a8 <process_get_descriptor+0xa8>
100087a6:	bf00      	nop
100087a8:	1e02      	subs	r2, r0, #0
100087aa:	d00f      	beq.n	100087cc <process_get_descriptor+0xcc>
100087ac:	7803      	ldrb	r3, [r0, #0]
100087ae:	0021      	movs	r1, r4
100087b0:	0028      	movs	r0, r5
100087b2:	f000 fe95 	bl	100094e0 <tud_control_xfer>
100087b6:	e000      	b.n	100087ba <process_get_descriptor+0xba>
100087b8:	2000      	movs	r0, #0
100087ba:	bd70      	pop	{r4, r5, r6, pc}
100087bc:	2000      	movs	r0, #0
100087be:	e7fc      	b.n	100087ba <process_get_descriptor+0xba>
100087c0:	2000      	movs	r0, #0
100087c2:	e7fa      	b.n	100087ba <process_get_descriptor+0xba>
100087c4:	2000      	movs	r0, #0
100087c6:	e7f8      	b.n	100087ba <process_get_descriptor+0xba>
100087c8:	2000      	movs	r0, #0
100087ca:	e7f6      	b.n	100087ba <process_get_descriptor+0xba>
100087cc:	2000      	movs	r0, #0
100087ce:	e7f4      	b.n	100087ba <process_get_descriptor+0xba>
100087d0:	1000c3e8 	.word	0x1000c3e8
	...
100087dc:	00000414 	.word	0x00000414
100087e0:	1000c4b8 	.word	0x1000c4b8
100087e4:	1000c3d0 	.word	0x1000c3d0
100087e8:	00000000 	.word	0x00000000

100087ec <tud_mounted>:
100087ec:	4b02      	ldr	r3, [pc, #8]	; (100087f8 <tud_mounted+0xc>)
100087ee:	7858      	ldrb	r0, [r3, #1]
100087f0:	1e43      	subs	r3, r0, #1
100087f2:	4198      	sbcs	r0, r3
100087f4:	b2c0      	uxtb	r0, r0
100087f6:	4770      	bx	lr
100087f8:	200009b4 	.word	0x200009b4

100087fc <tud_suspended>:
100087fc:	4b02      	ldr	r3, [pc, #8]	; (10008808 <tud_suspended+0xc>)
100087fe:	7818      	ldrb	r0, [r3, #0]
10008800:	0740      	lsls	r0, r0, #29
10008802:	0fc0      	lsrs	r0, r0, #31
10008804:	4770      	bx	lr
10008806:	46c0      	nop			; (mov r8, r8)
10008808:	200009b4 	.word	0x200009b4

1000880c <tud_inited>:
1000880c:	4b01      	ldr	r3, [pc, #4]	; (10008814 <tud_inited+0x8>)
1000880e:	7818      	ldrb	r0, [r3, #0]
10008810:	4770      	bx	lr
10008812:	46c0      	nop			; (mov r8, r8)
10008814:	20002147 	.word	0x20002147

10008818 <tud_init>:
10008818:	b570      	push	{r4, r5, r6, lr}
1000881a:	0005      	movs	r5, r0
1000881c:	4b27      	ldr	r3, [pc, #156]	; (100088bc <tud_init+0xa4>)
1000881e:	7818      	ldrb	r0, [r3, #0]
10008820:	2800      	cmp	r0, #0
10008822:	d000      	beq.n	10008826 <tud_init+0xe>
10008824:	bd70      	pop	{r4, r5, r6, pc}
10008826:	2253      	movs	r2, #83	; 0x53
10008828:	2100      	movs	r1, #0
1000882a:	4825      	ldr	r0, [pc, #148]	; (100088c0 <tud_init+0xa8>)
1000882c:	f7fe fe96 	bl	1000755c <__wrap_memset>
10008830:	4c24      	ldr	r4, [pc, #144]	; (100088c4 <tud_init+0xac>)
10008832:	0020      	movs	r0, r4
10008834:	f7fb fdac 	bl	10004390 <mutex_init>
10008838:	4b23      	ldr	r3, [pc, #140]	; (100088c8 <tud_init+0xb0>)
1000883a:	601c      	str	r4, [r3, #0]
1000883c:	4c23      	ldr	r4, [pc, #140]	; (100088cc <tud_init+0xb4>)
1000883e:	0020      	movs	r0, r4
10008840:	301c      	adds	r0, #28
10008842:	f7fb fdcb 	bl	100043dc <critical_section_init>
10008846:	0020      	movs	r0, r4
10008848:	f001 fdf0 	bl	1000a42c <tu_fifo_clear>
1000884c:	4b20      	ldr	r3, [pc, #128]	; (100088d0 <tud_init+0xb8>)
1000884e:	601c      	str	r4, [r3, #0]
10008850:	4b20      	ldr	r3, [pc, #128]	; (100088d4 <tud_init+0xbc>)
10008852:	2b00      	cmp	r3, #0
10008854:	d004      	beq.n	10008860 <tud_init+0x48>
10008856:	4820      	ldr	r0, [pc, #128]	; (100088d8 <tud_init+0xc0>)
10008858:	f7ff f8d2 	bl	10007a00 <usbd_app_driver_get_cb>
1000885c:	4b1f      	ldr	r3, [pc, #124]	; (100088dc <tud_init+0xc4>)
1000885e:	6018      	str	r0, [r3, #0]
10008860:	2400      	movs	r4, #0
10008862:	e00d      	b.n	10008880 <tud_init+0x68>
10008864:	0063      	lsls	r3, r4, #1
10008866:	191b      	adds	r3, r3, r4
10008868:	00da      	lsls	r2, r3, #3
1000886a:	4b1c      	ldr	r3, [pc, #112]	; (100088dc <tud_init+0xc4>)
1000886c:	681b      	ldr	r3, [r3, #0]
1000886e:	189b      	adds	r3, r3, r2
10008870:	e002      	b.n	10008878 <tud_init+0x60>
10008872:	0023      	movs	r3, r4
10008874:	e00f      	b.n	10008896 <tud_init+0x7e>
10008876:	2300      	movs	r3, #0
10008878:	681b      	ldr	r3, [r3, #0]
1000887a:	4798      	blx	r3
1000887c:	3401      	adds	r4, #1
1000887e:	b2e4      	uxtb	r4, r4
10008880:	4b15      	ldr	r3, [pc, #84]	; (100088d8 <tud_init+0xc0>)
10008882:	781b      	ldrb	r3, [r3, #0]
10008884:	42a3      	cmp	r3, r4
10008886:	d30e      	bcc.n	100088a6 <tud_init+0x8e>
10008888:	4a12      	ldr	r2, [pc, #72]	; (100088d4 <tud_init+0xbc>)
1000888a:	2a00      	cmp	r2, #0
1000888c:	d0f1      	beq.n	10008872 <tud_init+0x5a>
1000888e:	42a3      	cmp	r3, r4
10008890:	d8e8      	bhi.n	10008864 <tud_init+0x4c>
10008892:	1ae3      	subs	r3, r4, r3
10008894:	b2db      	uxtb	r3, r3
10008896:	2b00      	cmp	r3, #0
10008898:	d1ed      	bne.n	10008876 <tud_init+0x5e>
1000889a:	005a      	lsls	r2, r3, #1
1000889c:	18d2      	adds	r2, r2, r3
1000889e:	00d2      	lsls	r2, r2, #3
100088a0:	4b0f      	ldr	r3, [pc, #60]	; (100088e0 <tud_init+0xc8>)
100088a2:	189b      	adds	r3, r3, r2
100088a4:	e7e8      	b.n	10008878 <tud_init+0x60>
100088a6:	0028      	movs	r0, r5
100088a8:	f7ff fbf2 	bl	10008090 <dcd_init>
100088ac:	0028      	movs	r0, r5
100088ae:	f7ff fbbb 	bl	10008028 <dcd_int_enable>
100088b2:	4b02      	ldr	r3, [pc, #8]	; (100088bc <tud_init+0xa4>)
100088b4:	2201      	movs	r2, #1
100088b6:	701a      	strb	r2, [r3, #0]
100088b8:	2001      	movs	r0, #1
100088ba:	e7b3      	b.n	10008824 <tud_init+0xc>
100088bc:	20002147 	.word	0x20002147
100088c0:	200009b4 	.word	0x200009b4
100088c4:	2000096c 	.word	0x2000096c
100088c8:	20000a08 	.word	0x20000a08
100088cc:	20000500 	.word	0x20000500
100088d0:	20000a0c 	.word	0x20000a0c
100088d4:	10007a01 	.word	0x10007a01
100088d8:	20002146 	.word	0x20002146
100088dc:	2000067c 	.word	0x2000067c
100088e0:	1000c508 	.word	0x1000c508

100088e4 <dcd_event_handler>:
100088e4:	b530      	push	{r4, r5, lr}
100088e6:	b085      	sub	sp, #20
100088e8:	0004      	movs	r4, r0
100088ea:	7843      	ldrb	r3, [r0, #1]
100088ec:	2b04      	cmp	r3, #4
100088ee:	d100      	bne.n	100088f2 <dcd_event_handler+0xe>
100088f0:	e096      	b.n	10008a20 <dcd_event_handler+0x13c>
100088f2:	d838      	bhi.n	10008966 <dcd_event_handler+0x82>
100088f4:	2b02      	cmp	r3, #2
100088f6:	d062      	beq.n	100089be <dcd_event_handler+0xda>
100088f8:	2b03      	cmp	r3, #3
100088fa:	d000      	beq.n	100088fe <dcd_event_handler+0x1a>
100088fc:	e0b9      	b.n	10008a72 <dcd_event_handler+0x18e>
100088fe:	4b6d      	ldr	r3, [pc, #436]	; (10008ab4 <dcd_event_handler+0x1d0>)
10008900:	781b      	ldrb	r3, [r3, #0]
10008902:	075b      	lsls	r3, r3, #29
10008904:	d400      	bmi.n	10008908 <dcd_event_handler+0x24>
10008906:	e083      	b.n	10008a10 <dcd_event_handler+0x12c>
10008908:	4a6a      	ldr	r2, [pc, #424]	; (10008ab4 <dcd_event_handler+0x1d0>)
1000890a:	7813      	ldrb	r3, [r2, #0]
1000890c:	2104      	movs	r1, #4
1000890e:	438b      	bics	r3, r1
10008910:	7013      	strb	r3, [r2, #0]
10008912:	220c      	movs	r2, #12
10008914:	2100      	movs	r1, #0
10008916:	a801      	add	r0, sp, #4
10008918:	f7fe fe20 	bl	1000755c <__wrap_memset>
1000891c:	7823      	ldrb	r3, [r4, #0]
1000891e:	466a      	mov	r2, sp
10008920:	7113      	strb	r3, [r2, #4]
10008922:	2305      	movs	r3, #5
10008924:	7153      	strb	r3, [r2, #5]
10008926:	4b64      	ldr	r3, [pc, #400]	; (10008ab8 <dcd_event_handler+0x1d4>)
10008928:	681c      	ldr	r4, [r3, #0]
1000892a:	69e2      	ldr	r2, [r4, #28]
1000892c:	f3ef 8110 	mrs	r1, PRIMASK
10008930:	b672      	cpsid	i
10008932:	6813      	ldr	r3, [r2, #0]
10008934:	2b00      	cmp	r3, #0
10008936:	d0fc      	beq.n	10008932 <dcd_event_handler+0x4e>
10008938:	f3bf 8f5f 	dmb	sy
1000893c:	6221      	str	r1, [r4, #32]
1000893e:	a901      	add	r1, sp, #4
10008940:	0020      	movs	r0, r4
10008942:	f001 fd38 	bl	1000a3b6 <tu_fifo_write>
10008946:	69e2      	ldr	r2, [r4, #28]
10008948:	6a23      	ldr	r3, [r4, #32]
1000894a:	f3bf 8f5f 	dmb	sy
1000894e:	2100      	movs	r1, #0
10008950:	6011      	str	r1, [r2, #0]
10008952:	f383 8810 	msr	PRIMASK, r3
10008956:	2800      	cmp	r0, #0
10008958:	d15a      	bne.n	10008a10 <dcd_event_handler+0x12c>
1000895a:	22a8      	movs	r2, #168	; 0xa8
1000895c:	4957      	ldr	r1, [pc, #348]	; (10008abc <dcd_event_handler+0x1d8>)
1000895e:	4858      	ldr	r0, [pc, #352]	; (10008ac0 <dcd_event_handler+0x1dc>)
10008960:	f7fe ff46 	bl	100077f0 <__wrap_printf>
10008964:	e054      	b.n	10008a10 <dcd_event_handler+0x12c>
10008966:	2b05      	cmp	r3, #5
10008968:	d000      	beq.n	1000896c <dcd_event_handler+0x88>
1000896a:	e082      	b.n	10008a72 <dcd_event_handler+0x18e>
1000896c:	4b51      	ldr	r3, [pc, #324]	; (10008ab4 <dcd_event_handler+0x1d0>)
1000896e:	781b      	ldrb	r3, [r3, #0]
10008970:	07db      	lsls	r3, r3, #31
10008972:	d54d      	bpl.n	10008a10 <dcd_event_handler+0x12c>
10008974:	4a4f      	ldr	r2, [pc, #316]	; (10008ab4 <dcd_event_handler+0x1d0>)
10008976:	7813      	ldrb	r3, [r2, #0]
10008978:	2104      	movs	r1, #4
1000897a:	438b      	bics	r3, r1
1000897c:	7013      	strb	r3, [r2, #0]
1000897e:	4b4e      	ldr	r3, [pc, #312]	; (10008ab8 <dcd_event_handler+0x1d4>)
10008980:	681d      	ldr	r5, [r3, #0]
10008982:	69ea      	ldr	r2, [r5, #28]
10008984:	f3ef 8110 	mrs	r1, PRIMASK
10008988:	b672      	cpsid	i
1000898a:	6813      	ldr	r3, [r2, #0]
1000898c:	2b00      	cmp	r3, #0
1000898e:	d0fc      	beq.n	1000898a <dcd_event_handler+0xa6>
10008990:	f3bf 8f5f 	dmb	sy
10008994:	6229      	str	r1, [r5, #32]
10008996:	0021      	movs	r1, r4
10008998:	0028      	movs	r0, r5
1000899a:	f001 fd0c 	bl	1000a3b6 <tu_fifo_write>
1000899e:	69ea      	ldr	r2, [r5, #28]
100089a0:	6a2b      	ldr	r3, [r5, #32]
100089a2:	f3bf 8f5f 	dmb	sy
100089a6:	2100      	movs	r1, #0
100089a8:	6011      	str	r1, [r2, #0]
100089aa:	f383 8810 	msr	PRIMASK, r3
100089ae:	2800      	cmp	r0, #0
100089b0:	d12e      	bne.n	10008a10 <dcd_event_handler+0x12c>
100089b2:	22a8      	movs	r2, #168	; 0xa8
100089b4:	4941      	ldr	r1, [pc, #260]	; (10008abc <dcd_event_handler+0x1d8>)
100089b6:	4842      	ldr	r0, [pc, #264]	; (10008ac0 <dcd_event_handler+0x1dc>)
100089b8:	f7fe ff1a 	bl	100077f0 <__wrap_printf>
100089bc:	e028      	b.n	10008a10 <dcd_event_handler+0x12c>
100089be:	4b3d      	ldr	r3, [pc, #244]	; (10008ab4 <dcd_event_handler+0x1d0>)
100089c0:	781a      	ldrb	r2, [r3, #0]
100089c2:	2101      	movs	r1, #1
100089c4:	438a      	bics	r2, r1
100089c6:	701a      	strb	r2, [r3, #0]
100089c8:	781a      	ldrb	r2, [r3, #0]
100089ca:	3101      	adds	r1, #1
100089cc:	438a      	bics	r2, r1
100089ce:	701a      	strb	r2, [r3, #0]
100089d0:	2200      	movs	r2, #0
100089d2:	705a      	strb	r2, [r3, #1]
100089d4:	781a      	ldrb	r2, [r3, #0]
100089d6:	3102      	adds	r1, #2
100089d8:	438a      	bics	r2, r1
100089da:	701a      	strb	r2, [r3, #0]
100089dc:	4b36      	ldr	r3, [pc, #216]	; (10008ab8 <dcd_event_handler+0x1d4>)
100089de:	681d      	ldr	r5, [r3, #0]
100089e0:	69ea      	ldr	r2, [r5, #28]
100089e2:	f3ef 8110 	mrs	r1, PRIMASK
100089e6:	b672      	cpsid	i
100089e8:	6813      	ldr	r3, [r2, #0]
100089ea:	2b00      	cmp	r3, #0
100089ec:	d0fc      	beq.n	100089e8 <dcd_event_handler+0x104>
100089ee:	f3bf 8f5f 	dmb	sy
100089f2:	6229      	str	r1, [r5, #32]
100089f4:	0021      	movs	r1, r4
100089f6:	0028      	movs	r0, r5
100089f8:	f001 fcdd 	bl	1000a3b6 <tu_fifo_write>
100089fc:	69ea      	ldr	r2, [r5, #28]
100089fe:	6a2b      	ldr	r3, [r5, #32]
10008a00:	f3bf 8f5f 	dmb	sy
10008a04:	2100      	movs	r1, #0
10008a06:	6011      	str	r1, [r2, #0]
10008a08:	f383 8810 	msr	PRIMASK, r3
10008a0c:	2800      	cmp	r0, #0
10008a0e:	d001      	beq.n	10008a14 <dcd_event_handler+0x130>
10008a10:	b005      	add	sp, #20
10008a12:	bd30      	pop	{r4, r5, pc}
10008a14:	22a8      	movs	r2, #168	; 0xa8
10008a16:	4929      	ldr	r1, [pc, #164]	; (10008abc <dcd_event_handler+0x1d8>)
10008a18:	4829      	ldr	r0, [pc, #164]	; (10008ac0 <dcd_event_handler+0x1dc>)
10008a1a:	f7fe fee9 	bl	100077f0 <__wrap_printf>
10008a1e:	e7f7      	b.n	10008a10 <dcd_event_handler+0x12c>
10008a20:	4b24      	ldr	r3, [pc, #144]	; (10008ab4 <dcd_event_handler+0x1d0>)
10008a22:	781b      	ldrb	r3, [r3, #0]
10008a24:	07db      	lsls	r3, r3, #31
10008a26:	d5f3      	bpl.n	10008a10 <dcd_event_handler+0x12c>
10008a28:	4a22      	ldr	r2, [pc, #136]	; (10008ab4 <dcd_event_handler+0x1d0>)
10008a2a:	7813      	ldrb	r3, [r2, #0]
10008a2c:	2104      	movs	r1, #4
10008a2e:	430b      	orrs	r3, r1
10008a30:	7013      	strb	r3, [r2, #0]
10008a32:	4b21      	ldr	r3, [pc, #132]	; (10008ab8 <dcd_event_handler+0x1d4>)
10008a34:	681d      	ldr	r5, [r3, #0]
10008a36:	69ea      	ldr	r2, [r5, #28]
10008a38:	f3ef 8110 	mrs	r1, PRIMASK
10008a3c:	b672      	cpsid	i
10008a3e:	6813      	ldr	r3, [r2, #0]
10008a40:	2b00      	cmp	r3, #0
10008a42:	d0fc      	beq.n	10008a3e <dcd_event_handler+0x15a>
10008a44:	f3bf 8f5f 	dmb	sy
10008a48:	6229      	str	r1, [r5, #32]
10008a4a:	0021      	movs	r1, r4
10008a4c:	0028      	movs	r0, r5
10008a4e:	f001 fcb2 	bl	1000a3b6 <tu_fifo_write>
10008a52:	69ea      	ldr	r2, [r5, #28]
10008a54:	6a2b      	ldr	r3, [r5, #32]
10008a56:	f3bf 8f5f 	dmb	sy
10008a5a:	2100      	movs	r1, #0
10008a5c:	6011      	str	r1, [r2, #0]
10008a5e:	f383 8810 	msr	PRIMASK, r3
10008a62:	2800      	cmp	r0, #0
10008a64:	d1d4      	bne.n	10008a10 <dcd_event_handler+0x12c>
10008a66:	22a8      	movs	r2, #168	; 0xa8
10008a68:	4914      	ldr	r1, [pc, #80]	; (10008abc <dcd_event_handler+0x1d8>)
10008a6a:	4815      	ldr	r0, [pc, #84]	; (10008ac0 <dcd_event_handler+0x1dc>)
10008a6c:	f7fe fec0 	bl	100077f0 <__wrap_printf>
10008a70:	e7ce      	b.n	10008a10 <dcd_event_handler+0x12c>
10008a72:	4b11      	ldr	r3, [pc, #68]	; (10008ab8 <dcd_event_handler+0x1d4>)
10008a74:	681d      	ldr	r5, [r3, #0]
10008a76:	69ea      	ldr	r2, [r5, #28]
10008a78:	f3ef 8110 	mrs	r1, PRIMASK
10008a7c:	b672      	cpsid	i
10008a7e:	6813      	ldr	r3, [r2, #0]
10008a80:	2b00      	cmp	r3, #0
10008a82:	d0fc      	beq.n	10008a7e <dcd_event_handler+0x19a>
10008a84:	f3bf 8f5f 	dmb	sy
10008a88:	6229      	str	r1, [r5, #32]
10008a8a:	0021      	movs	r1, r4
10008a8c:	0028      	movs	r0, r5
10008a8e:	f001 fc92 	bl	1000a3b6 <tu_fifo_write>
10008a92:	69ea      	ldr	r2, [r5, #28]
10008a94:	6a2b      	ldr	r3, [r5, #32]
10008a96:	f3bf 8f5f 	dmb	sy
10008a9a:	2100      	movs	r1, #0
10008a9c:	6011      	str	r1, [r2, #0]
10008a9e:	f383 8810 	msr	PRIMASK, r3
10008aa2:	2800      	cmp	r0, #0
10008aa4:	d1b4      	bne.n	10008a10 <dcd_event_handler+0x12c>
10008aa6:	22a8      	movs	r2, #168	; 0xa8
10008aa8:	4904      	ldr	r1, [pc, #16]	; (10008abc <dcd_event_handler+0x1d8>)
10008aaa:	4805      	ldr	r0, [pc, #20]	; (10008ac0 <dcd_event_handler+0x1dc>)
10008aac:	f7fe fea0 	bl	100077f0 <__wrap_printf>
10008ab0:	e7ae      	b.n	10008a10 <dcd_event_handler+0x12c>
10008ab2:	46c0      	nop			; (mov r8, r8)
10008ab4:	200009b4 	.word	0x200009b4
10008ab8:	20000a0c 	.word	0x20000a0c
10008abc:	1000c4a8 	.word	0x1000c4a8
10008ac0:	1000c3d0 	.word	0x1000c3d0

10008ac4 <dcd_event_bus_signal>:
10008ac4:	b570      	push	{r4, r5, r6, lr}
10008ac6:	b084      	sub	sp, #16
10008ac8:	0006      	movs	r6, r0
10008aca:	000d      	movs	r5, r1
10008acc:	0014      	movs	r4, r2
10008ace:	220c      	movs	r2, #12
10008ad0:	2100      	movs	r1, #0
10008ad2:	a801      	add	r0, sp, #4
10008ad4:	f7fe fd42 	bl	1000755c <__wrap_memset>
10008ad8:	466b      	mov	r3, sp
10008ada:	711e      	strb	r6, [r3, #4]
10008adc:	715d      	strb	r5, [r3, #5]
10008ade:	0021      	movs	r1, r4
10008ae0:	a801      	add	r0, sp, #4
10008ae2:	f7ff feff 	bl	100088e4 <dcd_event_handler>
10008ae6:	b004      	add	sp, #16
10008ae8:	bd70      	pop	{r4, r5, r6, pc}

10008aea <dcd_event_bus_reset>:
10008aea:	b5f0      	push	{r4, r5, r6, r7, lr}
10008aec:	b085      	sub	sp, #20
10008aee:	0007      	movs	r7, r0
10008af0:	000e      	movs	r6, r1
10008af2:	0015      	movs	r5, r2
10008af4:	ac01      	add	r4, sp, #4
10008af6:	220c      	movs	r2, #12
10008af8:	2100      	movs	r1, #0
10008afa:	0020      	movs	r0, r4
10008afc:	f7fe fd2e 	bl	1000755c <__wrap_memset>
10008b00:	7027      	strb	r7, [r4, #0]
10008b02:	2301      	movs	r3, #1
10008b04:	7063      	strb	r3, [r4, #1]
10008b06:	7126      	strb	r6, [r4, #4]
10008b08:	0029      	movs	r1, r5
10008b0a:	0020      	movs	r0, r4
10008b0c:	f7ff feea 	bl	100088e4 <dcd_event_handler>
10008b10:	b005      	add	sp, #20
10008b12:	bdf0      	pop	{r4, r5, r6, r7, pc}

10008b14 <dcd_event_setup_received>:
10008b14:	b570      	push	{r4, r5, r6, lr}
10008b16:	b084      	sub	sp, #16
10008b18:	0006      	movs	r6, r0
10008b1a:	000d      	movs	r5, r1
10008b1c:	0014      	movs	r4, r2
10008b1e:	220c      	movs	r2, #12
10008b20:	2100      	movs	r1, #0
10008b22:	a801      	add	r0, sp, #4
10008b24:	f7fe fd1a 	bl	1000755c <__wrap_memset>
10008b28:	466b      	mov	r3, sp
10008b2a:	711e      	strb	r6, [r3, #4]
10008b2c:	2306      	movs	r3, #6
10008b2e:	466a      	mov	r2, sp
10008b30:	7153      	strb	r3, [r2, #5]
10008b32:	2208      	movs	r2, #8
10008b34:	0029      	movs	r1, r5
10008b36:	a802      	add	r0, sp, #8
10008b38:	f7fe fd16 	bl	10007568 <__wrap___aeabi_memcpy>
10008b3c:	0021      	movs	r1, r4
10008b3e:	a801      	add	r0, sp, #4
10008b40:	f7ff fed0 	bl	100088e4 <dcd_event_handler>
10008b44:	b004      	add	sp, #16
10008b46:	bd70      	pop	{r4, r5, r6, pc}

10008b48 <dcd_event_xfer_complete>:
10008b48:	b5f0      	push	{r4, r5, r6, r7, lr}
10008b4a:	46ce      	mov	lr, r9
10008b4c:	4647      	mov	r7, r8
10008b4e:	b580      	push	{r7, lr}
10008b50:	b085      	sub	sp, #20
10008b52:	4680      	mov	r8, r0
10008b54:	000f      	movs	r7, r1
10008b56:	0016      	movs	r6, r2
10008b58:	001d      	movs	r5, r3
10008b5a:	ab0c      	add	r3, sp, #48	; 0x30
10008b5c:	781b      	ldrb	r3, [r3, #0]
10008b5e:	4699      	mov	r9, r3
10008b60:	ac01      	add	r4, sp, #4
10008b62:	220c      	movs	r2, #12
10008b64:	2100      	movs	r1, #0
10008b66:	0020      	movs	r0, r4
10008b68:	f7fe fcf8 	bl	1000755c <__wrap_memset>
10008b6c:	4643      	mov	r3, r8
10008b6e:	7023      	strb	r3, [r4, #0]
10008b70:	2307      	movs	r3, #7
10008b72:	7063      	strb	r3, [r4, #1]
10008b74:	7127      	strb	r7, [r4, #4]
10008b76:	9603      	str	r6, [sp, #12]
10008b78:	7165      	strb	r5, [r4, #5]
10008b7a:	4649      	mov	r1, r9
10008b7c:	0020      	movs	r0, r4
10008b7e:	f7ff feb1 	bl	100088e4 <dcd_event_handler>
10008b82:	b005      	add	sp, #20
10008b84:	bcc0      	pop	{r6, r7}
10008b86:	46b9      	mov	r9, r7
10008b88:	46b0      	mov	r8, r6
10008b8a:	bdf0      	pop	{r4, r5, r6, r7, pc}

10008b8c <usbd_edpt_open>:
10008b8c:	b570      	push	{r4, r5, r6, lr}
10008b8e:	0006      	movs	r6, r0
10008b90:	000d      	movs	r5, r1
10008b92:	788b      	ldrb	r3, [r1, #2]
10008b94:	2270      	movs	r2, #112	; 0x70
10008b96:	421a      	tst	r2, r3
10008b98:	d10d      	bne.n	10008bb6 <usbd_edpt_open+0x2a>
10008b9a:	4b0d      	ldr	r3, [pc, #52]	; (10008bd0 <usbd_edpt_open+0x44>)
10008b9c:	7899      	ldrb	r1, [r3, #2]
10008b9e:	0028      	movs	r0, r5
10008ba0:	f001 f8d6 	bl	10009d50 <tu_edpt_validate>
10008ba4:	1e04      	subs	r4, r0, #0
10008ba6:	d00d      	beq.n	10008bc4 <usbd_edpt_open+0x38>
10008ba8:	0029      	movs	r1, r5
10008baa:	0030      	movs	r0, r6
10008bac:	f7ff fabc 	bl	10008128 <dcd_edpt_open>
10008bb0:	0004      	movs	r4, r0
10008bb2:	0020      	movs	r0, r4
10008bb4:	bd70      	pop	{r4, r5, r6, pc}
10008bb6:	4a07      	ldr	r2, [pc, #28]	; (10008bd4 <usbd_edpt_open+0x48>)
10008bb8:	4907      	ldr	r1, [pc, #28]	; (10008bd8 <usbd_edpt_open+0x4c>)
10008bba:	4808      	ldr	r0, [pc, #32]	; (10008bdc <usbd_edpt_open+0x50>)
10008bbc:	f7fe fe18 	bl	100077f0 <__wrap_printf>
10008bc0:	2400      	movs	r4, #0
10008bc2:	e7f6      	b.n	10008bb2 <usbd_edpt_open+0x26>
10008bc4:	4a06      	ldr	r2, [pc, #24]	; (10008be0 <usbd_edpt_open+0x54>)
10008bc6:	4904      	ldr	r1, [pc, #16]	; (10008bd8 <usbd_edpt_open+0x4c>)
10008bc8:	4804      	ldr	r0, [pc, #16]	; (10008bdc <usbd_edpt_open+0x50>)
10008bca:	f7fe fe11 	bl	100077f0 <__wrap_printf>
10008bce:	e7f0      	b.n	10008bb2 <usbd_edpt_open+0x26>
10008bd0:	200009b4 	.word	0x200009b4
10008bd4:	000004c2 	.word	0x000004c2
10008bd8:	1000c484 	.word	0x1000c484
10008bdc:	1000c3d0 	.word	0x1000c3d0
10008be0:	000004c3 	.word	0x000004c3

10008be4 <usbd_open_edpt_pair>:
10008be4:	b5f0      	push	{r4, r5, r6, r7, lr}
10008be6:	46d6      	mov	lr, sl
10008be8:	464f      	mov	r7, r9
10008bea:	4646      	mov	r6, r8
10008bec:	b5c0      	push	{r6, r7, lr}
10008bee:	4681      	mov	r9, r0
10008bf0:	000c      	movs	r4, r1
10008bf2:	0017      	movs	r7, r2
10008bf4:	4698      	mov	r8, r3
10008bf6:	9b08      	ldr	r3, [sp, #32]
10008bf8:	469a      	mov	sl, r3
10008bfa:	2500      	movs	r5, #0
10008bfc:	e016      	b.n	10008c2c <usbd_open_edpt_pair+0x48>
10008bfe:	4a18      	ldr	r2, [pc, #96]	; (10008c60 <usbd_open_edpt_pair+0x7c>)
10008c00:	4918      	ldr	r1, [pc, #96]	; (10008c64 <usbd_open_edpt_pair+0x80>)
10008c02:	4819      	ldr	r0, [pc, #100]	; (10008c68 <usbd_open_edpt_pair+0x84>)
10008c04:	f7fe fdf4 	bl	100077f0 <__wrap_printf>
10008c08:	2600      	movs	r6, #0
10008c0a:	0030      	movs	r0, r6
10008c0c:	bce0      	pop	{r5, r6, r7}
10008c0e:	46ba      	mov	sl, r7
10008c10:	46b1      	mov	r9, r6
10008c12:	46a8      	mov	r8, r5
10008c14:	bdf0      	pop	{r4, r5, r6, r7, pc}
10008c16:	4a15      	ldr	r2, [pc, #84]	; (10008c6c <usbd_open_edpt_pair+0x88>)
10008c18:	4912      	ldr	r1, [pc, #72]	; (10008c64 <usbd_open_edpt_pair+0x80>)
10008c1a:	4813      	ldr	r0, [pc, #76]	; (10008c68 <usbd_open_edpt_pair+0x84>)
10008c1c:	f7fe fde8 	bl	100077f0 <__wrap_printf>
10008c20:	e7f3      	b.n	10008c0a <usbd_open_edpt_pair+0x26>
10008c22:	9a09      	ldr	r2, [sp, #36]	; 0x24
10008c24:	7013      	strb	r3, [r2, #0]
10008c26:	7823      	ldrb	r3, [r4, #0]
10008c28:	18e4      	adds	r4, r4, r3
10008c2a:	3501      	adds	r5, #1
10008c2c:	42af      	cmp	r7, r5
10008c2e:	dd14      	ble.n	10008c5a <usbd_open_edpt_pair+0x76>
10008c30:	7863      	ldrb	r3, [r4, #1]
10008c32:	2b05      	cmp	r3, #5
10008c34:	d1e3      	bne.n	10008bfe <usbd_open_edpt_pair+0x1a>
10008c36:	78e1      	ldrb	r1, [r4, #3]
10008c38:	0789      	lsls	r1, r1, #30
10008c3a:	0f89      	lsrs	r1, r1, #30
10008c3c:	4541      	cmp	r1, r8
10008c3e:	d1de      	bne.n	10008bfe <usbd_open_edpt_pair+0x1a>
10008c40:	0021      	movs	r1, r4
10008c42:	4648      	mov	r0, r9
10008c44:	f7ff ffa2 	bl	10008b8c <usbd_edpt_open>
10008c48:	1e06      	subs	r6, r0, #0
10008c4a:	d0e4      	beq.n	10008c16 <usbd_open_edpt_pair+0x32>
10008c4c:	78a3      	ldrb	r3, [r4, #2]
10008c4e:	09da      	lsrs	r2, r3, #7
10008c50:	2a01      	cmp	r2, #1
10008c52:	d0e6      	beq.n	10008c22 <usbd_open_edpt_pair+0x3e>
10008c54:	4652      	mov	r2, sl
10008c56:	7013      	strb	r3, [r2, #0]
10008c58:	e7e5      	b.n	10008c26 <usbd_open_edpt_pair+0x42>
10008c5a:	2601      	movs	r6, #1
10008c5c:	e7d5      	b.n	10008c0a <usbd_open_edpt_pair+0x26>
10008c5e:	46c0      	nop			; (mov r8, r8)
10008c60:	0000049c 	.word	0x0000049c
10008c64:	1000c494 	.word	0x1000c494
10008c68:	1000c3d0 	.word	0x1000c3d0
10008c6c:	0000049d 	.word	0x0000049d

10008c70 <usbd_edpt_claim>:
10008c70:	b570      	push	{r4, r5, r6, lr}
10008c72:	257f      	movs	r5, #127	; 0x7f
10008c74:	400d      	ands	r5, r1
10008c76:	09cc      	lsrs	r4, r1, #7
10008c78:	006a      	lsls	r2, r5, #1
10008c7a:	4b1e      	ldr	r3, [pc, #120]	; (10008cf4 <usbd_edpt_claim+0x84>)
10008c7c:	189b      	adds	r3, r3, r2
10008c7e:	191b      	adds	r3, r3, r4
10008c80:	3330      	adds	r3, #48	; 0x30
10008c82:	78db      	ldrb	r3, [r3, #3]
10008c84:	07db      	lsls	r3, r3, #31
10008c86:	0fde      	lsrs	r6, r3, #31
10008c88:	2b00      	cmp	r3, #0
10008c8a:	d130      	bne.n	10008cee <usbd_edpt_claim+0x7e>
10008c8c:	4b19      	ldr	r3, [pc, #100]	; (10008cf4 <usbd_edpt_claim+0x84>)
10008c8e:	189b      	adds	r3, r3, r2
10008c90:	191b      	adds	r3, r3, r4
10008c92:	3330      	adds	r3, #48	; 0x30
10008c94:	78db      	ldrb	r3, [r3, #3]
10008c96:	075b      	lsls	r3, r3, #29
10008c98:	d42a      	bmi.n	10008cf0 <usbd_edpt_claim+0x80>
10008c9a:	4b17      	ldr	r3, [pc, #92]	; (10008cf8 <usbd_edpt_claim+0x88>)
10008c9c:	6818      	ldr	r0, [r3, #0]
10008c9e:	2101      	movs	r1, #1
10008ca0:	4249      	negs	r1, r1
10008ca2:	f001 fea5 	bl	1000a9f0 <__mutex_enter_timeout_ms_veneer>
10008ca6:	006a      	lsls	r2, r5, #1
10008ca8:	4b12      	ldr	r3, [pc, #72]	; (10008cf4 <usbd_edpt_claim+0x84>)
10008caa:	189b      	adds	r3, r3, r2
10008cac:	191b      	adds	r3, r3, r4
10008cae:	3330      	adds	r3, #48	; 0x30
10008cb0:	78db      	ldrb	r3, [r3, #3]
10008cb2:	07db      	lsls	r3, r3, #31
10008cb4:	d408      	bmi.n	10008cc8 <usbd_edpt_claim+0x58>
10008cb6:	4b0f      	ldr	r3, [pc, #60]	; (10008cf4 <usbd_edpt_claim+0x84>)
10008cb8:	189b      	adds	r3, r3, r2
10008cba:	191b      	adds	r3, r3, r4
10008cbc:	3330      	adds	r3, #48	; 0x30
10008cbe:	78db      	ldrb	r3, [r3, #3]
10008cc0:	075b      	lsls	r3, r3, #29
10008cc2:	d512      	bpl.n	10008cea <usbd_edpt_claim+0x7a>
10008cc4:	2600      	movs	r6, #0
10008cc6:	e000      	b.n	10008cca <usbd_edpt_claim+0x5a>
10008cc8:	2600      	movs	r6, #0
10008cca:	2e00      	cmp	r6, #0
10008ccc:	d008      	beq.n	10008ce0 <usbd_edpt_claim+0x70>
10008cce:	006d      	lsls	r5, r5, #1
10008cd0:	4908      	ldr	r1, [pc, #32]	; (10008cf4 <usbd_edpt_claim+0x84>)
10008cd2:	194d      	adds	r5, r1, r5
10008cd4:	192c      	adds	r4, r5, r4
10008cd6:	3430      	adds	r4, #48	; 0x30
10008cd8:	78e3      	ldrb	r3, [r4, #3]
10008cda:	2204      	movs	r2, #4
10008cdc:	4313      	orrs	r3, r2
10008cde:	70e3      	strb	r3, [r4, #3]
10008ce0:	4b05      	ldr	r3, [pc, #20]	; (10008cf8 <usbd_edpt_claim+0x88>)
10008ce2:	6818      	ldr	r0, [r3, #0]
10008ce4:	f001 fe64 	bl	1000a9b0 <__mutex_exit_veneer>
10008ce8:	e002      	b.n	10008cf0 <usbd_edpt_claim+0x80>
10008cea:	2601      	movs	r6, #1
10008cec:	e7ed      	b.n	10008cca <usbd_edpt_claim+0x5a>
10008cee:	2600      	movs	r6, #0
10008cf0:	0030      	movs	r0, r6
10008cf2:	bd70      	pop	{r4, r5, r6, pc}
10008cf4:	200009b4 	.word	0x200009b4
10008cf8:	20000a08 	.word	0x20000a08

10008cfc <usbd_edpt_release>:
10008cfc:	b570      	push	{r4, r5, r6, lr}
10008cfe:	257f      	movs	r5, #127	; 0x7f
10008d00:	400d      	ands	r5, r1
10008d02:	09cc      	lsrs	r4, r1, #7
10008d04:	4b15      	ldr	r3, [pc, #84]	; (10008d5c <usbd_edpt_release+0x60>)
10008d06:	6818      	ldr	r0, [r3, #0]
10008d08:	2101      	movs	r1, #1
10008d0a:	4249      	negs	r1, r1
10008d0c:	f001 fe70 	bl	1000a9f0 <__mutex_enter_timeout_ms_veneer>
10008d10:	006a      	lsls	r2, r5, #1
10008d12:	4b13      	ldr	r3, [pc, #76]	; (10008d60 <usbd_edpt_release+0x64>)
10008d14:	189b      	adds	r3, r3, r2
10008d16:	191b      	adds	r3, r3, r4
10008d18:	3330      	adds	r3, #48	; 0x30
10008d1a:	78db      	ldrb	r3, [r3, #3]
10008d1c:	07db      	lsls	r3, r3, #31
10008d1e:	d408      	bmi.n	10008d32 <usbd_edpt_release+0x36>
10008d20:	4b0f      	ldr	r3, [pc, #60]	; (10008d60 <usbd_edpt_release+0x64>)
10008d22:	189b      	adds	r3, r3, r2
10008d24:	191b      	adds	r3, r3, r4
10008d26:	3330      	adds	r3, #48	; 0x30
10008d28:	78db      	ldrb	r3, [r3, #3]
10008d2a:	075b      	lsls	r3, r3, #29
10008d2c:	d413      	bmi.n	10008d56 <usbd_edpt_release+0x5a>
10008d2e:	2600      	movs	r6, #0
10008d30:	e000      	b.n	10008d34 <usbd_edpt_release+0x38>
10008d32:	2600      	movs	r6, #0
10008d34:	2e00      	cmp	r6, #0
10008d36:	d008      	beq.n	10008d4a <usbd_edpt_release+0x4e>
10008d38:	0069      	lsls	r1, r5, #1
10008d3a:	4d09      	ldr	r5, [pc, #36]	; (10008d60 <usbd_edpt_release+0x64>)
10008d3c:	186d      	adds	r5, r5, r1
10008d3e:	192c      	adds	r4, r5, r4
10008d40:	3430      	adds	r4, #48	; 0x30
10008d42:	78e3      	ldrb	r3, [r4, #3]
10008d44:	2204      	movs	r2, #4
10008d46:	4393      	bics	r3, r2
10008d48:	70e3      	strb	r3, [r4, #3]
10008d4a:	4b04      	ldr	r3, [pc, #16]	; (10008d5c <usbd_edpt_release+0x60>)
10008d4c:	6818      	ldr	r0, [r3, #0]
10008d4e:	f001 fe2f 	bl	1000a9b0 <__mutex_exit_veneer>
10008d52:	0030      	movs	r0, r6
10008d54:	bd70      	pop	{r4, r5, r6, pc}
10008d56:	2601      	movs	r6, #1
10008d58:	e7ec      	b.n	10008d34 <usbd_edpt_release+0x38>
10008d5a:	46c0      	nop			; (mov r8, r8)
10008d5c:	20000a08 	.word	0x20000a08
10008d60:	200009b4 	.word	0x200009b4

10008d64 <usbd_edpt_xfer>:
10008d64:	b5f0      	push	{r4, r5, r6, r7, lr}
10008d66:	46c6      	mov	lr, r8
10008d68:	b500      	push	{lr}
10008d6a:	b082      	sub	sp, #8
10008d6c:	9301      	str	r3, [sp, #4]
10008d6e:	257f      	movs	r5, #127	; 0x7f
10008d70:	400d      	ands	r5, r1
10008d72:	09ce      	lsrs	r6, r1, #7
10008d74:	006f      	lsls	r7, r5, #1
10008d76:	4c17      	ldr	r4, [pc, #92]	; (10008dd4 <usbd_edpt_xfer+0x70>)
10008d78:	19e4      	adds	r4, r4, r7
10008d7a:	19a4      	adds	r4, r4, r6
10008d7c:	3430      	adds	r4, #48	; 0x30
10008d7e:	78e4      	ldrb	r4, [r4, #3]
10008d80:	07e4      	lsls	r4, r4, #31
10008d82:	d41d      	bmi.n	10008dc0 <usbd_edpt_xfer+0x5c>
10008d84:	006f      	lsls	r7, r5, #1
10008d86:	4c13      	ldr	r4, [pc, #76]	; (10008dd4 <usbd_edpt_xfer+0x70>)
10008d88:	19e4      	adds	r4, r4, r7
10008d8a:	19a4      	adds	r4, r4, r6
10008d8c:	3430      	adds	r4, #48	; 0x30
10008d8e:	78e3      	ldrb	r3, [r4, #3]
10008d90:	2701      	movs	r7, #1
10008d92:	46bc      	mov	ip, r7
10008d94:	4667      	mov	r7, ip
10008d96:	433b      	orrs	r3, r7
10008d98:	70e3      	strb	r3, [r4, #3]
10008d9a:	9b01      	ldr	r3, [sp, #4]
10008d9c:	f7ff f9e8 	bl	10008170 <dcd_edpt_xfer>
10008da0:	2800      	cmp	r0, #0
10008da2:	d113      	bne.n	10008dcc <usbd_edpt_xfer+0x68>
10008da4:	006d      	lsls	r5, r5, #1
10008da6:	4b0b      	ldr	r3, [pc, #44]	; (10008dd4 <usbd_edpt_xfer+0x70>)
10008da8:	195d      	adds	r5, r3, r5
10008daa:	19ae      	adds	r6, r5, r6
10008dac:	3630      	adds	r6, #48	; 0x30
10008dae:	78f3      	ldrb	r3, [r6, #3]
10008db0:	2201      	movs	r2, #1
10008db2:	4393      	bics	r3, r2
10008db4:	70f3      	strb	r3, [r6, #3]
10008db6:	78f3      	ldrb	r3, [r6, #3]
10008db8:	3203      	adds	r2, #3
10008dba:	4393      	bics	r3, r2
10008dbc:	70f3      	strb	r3, [r6, #3]
10008dbe:	e005      	b.n	10008dcc <usbd_edpt_xfer+0x68>
10008dc0:	4a05      	ldr	r2, [pc, #20]	; (10008dd8 <usbd_edpt_xfer+0x74>)
10008dc2:	4906      	ldr	r1, [pc, #24]	; (10008ddc <usbd_edpt_xfer+0x78>)
10008dc4:	4806      	ldr	r0, [pc, #24]	; (10008de0 <usbd_edpt_xfer+0x7c>)
10008dc6:	f7fe fd13 	bl	100077f0 <__wrap_printf>
10008dca:	2000      	movs	r0, #0
10008dcc:	b002      	add	sp, #8
10008dce:	bc80      	pop	{r7}
10008dd0:	46b8      	mov	r8, r7
10008dd2:	bdf0      	pop	{r4, r5, r6, r7, pc}
10008dd4:	200009b4 	.word	0x200009b4
10008dd8:	0000050a 	.word	0x0000050a
10008ddc:	1000c474 	.word	0x1000c474
10008de0:	1000c3d0 	.word	0x1000c3d0

10008de4 <usbd_edpt_stall>:
10008de4:	b570      	push	{r4, r5, r6, lr}
10008de6:	247f      	movs	r4, #127	; 0x7f
10008de8:	400c      	ands	r4, r1
10008dea:	09cd      	lsrs	r5, r1, #7
10008dec:	0062      	lsls	r2, r4, #1
10008dee:	4b0c      	ldr	r3, [pc, #48]	; (10008e20 <usbd_edpt_stall+0x3c>)
10008df0:	189b      	adds	r3, r3, r2
10008df2:	195b      	adds	r3, r3, r5
10008df4:	3330      	adds	r3, #48	; 0x30
10008df6:	78db      	ldrb	r3, [r3, #3]
10008df8:	079b      	lsls	r3, r3, #30
10008dfa:	d500      	bpl.n	10008dfe <usbd_edpt_stall+0x1a>
10008dfc:	bd70      	pop	{r4, r5, r6, pc}
10008dfe:	f7ff f9cf 	bl	100081a0 <dcd_edpt_stall>
10008e02:	0063      	lsls	r3, r4, #1
10008e04:	4c06      	ldr	r4, [pc, #24]	; (10008e20 <usbd_edpt_stall+0x3c>)
10008e06:	18e4      	adds	r4, r4, r3
10008e08:	1964      	adds	r4, r4, r5
10008e0a:	3430      	adds	r4, #48	; 0x30
10008e0c:	78e3      	ldrb	r3, [r4, #3]
10008e0e:	2202      	movs	r2, #2
10008e10:	4313      	orrs	r3, r2
10008e12:	70e3      	strb	r3, [r4, #3]
10008e14:	78e3      	ldrb	r3, [r4, #3]
10008e16:	2201      	movs	r2, #1
10008e18:	4313      	orrs	r3, r2
10008e1a:	70e3      	strb	r3, [r4, #3]
10008e1c:	e7ee      	b.n	10008dfc <usbd_edpt_stall+0x18>
10008e1e:	46c0      	nop			; (mov r8, r8)
10008e20:	200009b4 	.word	0x200009b4

10008e24 <usbd_edpt_clear_stall>:
10008e24:	b570      	push	{r4, r5, r6, lr}
10008e26:	247f      	movs	r4, #127	; 0x7f
10008e28:	400c      	ands	r4, r1
10008e2a:	09cd      	lsrs	r5, r1, #7
10008e2c:	0062      	lsls	r2, r4, #1
10008e2e:	4b0c      	ldr	r3, [pc, #48]	; (10008e60 <usbd_edpt_clear_stall+0x3c>)
10008e30:	189b      	adds	r3, r3, r2
10008e32:	195b      	adds	r3, r3, r5
10008e34:	3330      	adds	r3, #48	; 0x30
10008e36:	78db      	ldrb	r3, [r3, #3]
10008e38:	079b      	lsls	r3, r3, #30
10008e3a:	d400      	bmi.n	10008e3e <usbd_edpt_clear_stall+0x1a>
10008e3c:	bd70      	pop	{r4, r5, r6, pc}
10008e3e:	f7ff f9c5 	bl	100081cc <dcd_edpt_clear_stall>
10008e42:	0063      	lsls	r3, r4, #1
10008e44:	4c06      	ldr	r4, [pc, #24]	; (10008e60 <usbd_edpt_clear_stall+0x3c>)
10008e46:	18e4      	adds	r4, r4, r3
10008e48:	1964      	adds	r4, r4, r5
10008e4a:	3430      	adds	r4, #48	; 0x30
10008e4c:	78e3      	ldrb	r3, [r4, #3]
10008e4e:	2202      	movs	r2, #2
10008e50:	4393      	bics	r3, r2
10008e52:	70e3      	strb	r3, [r4, #3]
10008e54:	78e3      	ldrb	r3, [r4, #3]
10008e56:	3a01      	subs	r2, #1
10008e58:	4393      	bics	r3, r2
10008e5a:	70e3      	strb	r3, [r4, #3]
10008e5c:	e7ee      	b.n	10008e3c <usbd_edpt_clear_stall+0x18>
10008e5e:	46c0      	nop			; (mov r8, r8)
10008e60:	200009b4 	.word	0x200009b4

10008e64 <usbd_edpt_stalled>:
10008e64:	227f      	movs	r2, #127	; 0x7f
10008e66:	400a      	ands	r2, r1
10008e68:	09cb      	lsrs	r3, r1, #7
10008e6a:	0052      	lsls	r2, r2, #1
10008e6c:	4903      	ldr	r1, [pc, #12]	; (10008e7c <usbd_edpt_stalled+0x18>)
10008e6e:	1889      	adds	r1, r1, r2
10008e70:	18c9      	adds	r1, r1, r3
10008e72:	3130      	adds	r1, #48	; 0x30
10008e74:	78c8      	ldrb	r0, [r1, #3]
10008e76:	0780      	lsls	r0, r0, #30
10008e78:	0fc0      	lsrs	r0, r0, #31
10008e7a:	4770      	bx	lr
10008e7c:	200009b4 	.word	0x200009b4

10008e80 <process_control_request>:
10008e80:	b5f0      	push	{r4, r5, r6, r7, lr}
10008e82:	46c6      	mov	lr, r8
10008e84:	b500      	push	{lr}
10008e86:	b082      	sub	sp, #8
10008e88:	0005      	movs	r5, r0
10008e8a:	000c      	movs	r4, r1
10008e8c:	2000      	movs	r0, #0
10008e8e:	f000 fb85 	bl	1000959c <usbd_control_set_complete_callback>
10008e92:	7823      	ldrb	r3, [r4, #0]
10008e94:	2260      	movs	r2, #96	; 0x60
10008e96:	4013      	ands	r3, r2
10008e98:	2b60      	cmp	r3, #96	; 0x60
10008e9a:	d012      	beq.n	10008ec2 <process_control_request+0x42>
10008e9c:	2b40      	cmp	r3, #64	; 0x40
10008e9e:	d017      	beq.n	10008ed0 <process_control_request+0x50>
10008ea0:	7822      	ldrb	r2, [r4, #0]
10008ea2:	06d2      	lsls	r2, r2, #27
10008ea4:	0ed2      	lsrs	r2, r2, #27
10008ea6:	2a01      	cmp	r2, #1
10008ea8:	d100      	bne.n	10008eac <process_control_request+0x2c>
10008eaa:	e0d9      	b.n	10009060 <process_control_request+0x1e0>
10008eac:	2a02      	cmp	r2, #2
10008eae:	d100      	bne.n	10008eb2 <process_control_request+0x32>
10008eb0:	e120      	b.n	100090f4 <process_control_request+0x274>
10008eb2:	2a00      	cmp	r2, #0
10008eb4:	d01a      	beq.n	10008eec <process_control_request+0x6c>
10008eb6:	2600      	movs	r6, #0
10008eb8:	0030      	movs	r0, r6
10008eba:	b002      	add	sp, #8
10008ebc:	bc80      	pop	{r7}
10008ebe:	46b8      	mov	r8, r7
10008ec0:	bdf0      	pop	{r4, r5, r6, r7, pc}
10008ec2:	4acc      	ldr	r2, [pc, #816]	; (100091f4 <process_control_request+0x374>)
10008ec4:	49cc      	ldr	r1, [pc, #816]	; (100091f8 <process_control_request+0x378>)
10008ec6:	48cd      	ldr	r0, [pc, #820]	; (100091fc <process_control_request+0x37c>)
10008ec8:	f7fe fc92 	bl	100077f0 <__wrap_printf>
10008ecc:	2600      	movs	r6, #0
10008ece:	e7f3      	b.n	10008eb8 <process_control_request+0x38>
10008ed0:	4bcb      	ldr	r3, [pc, #812]	; (10009200 <process_control_request+0x380>)
10008ed2:	2b00      	cmp	r3, #0
10008ed4:	d100      	bne.n	10008ed8 <process_control_request+0x58>
10008ed6:	e181      	b.n	100091dc <process_control_request+0x35c>
10008ed8:	0018      	movs	r0, r3
10008eda:	f000 fb5f 	bl	1000959c <usbd_control_set_complete_callback>
10008ede:	0022      	movs	r2, r4
10008ee0:	2100      	movs	r1, #0
10008ee2:	0028      	movs	r0, r5
10008ee4:	e000      	b.n	10008ee8 <process_control_request+0x68>
10008ee6:	bf00      	nop
10008ee8:	0006      	movs	r6, r0
10008eea:	e7e5      	b.n	10008eb8 <process_control_request+0x38>
10008eec:	2b20      	cmp	r3, #32
10008eee:	d00a      	beq.n	10008f06 <process_control_request+0x86>
10008ef0:	2b00      	cmp	r3, #0
10008ef2:	d000      	beq.n	10008ef6 <process_control_request+0x76>
10008ef4:	e17a      	b.n	100091ec <process_control_request+0x36c>
10008ef6:	7863      	ldrb	r3, [r4, #1]
10008ef8:	2b09      	cmp	r3, #9
10008efa:	d900      	bls.n	10008efe <process_control_request+0x7e>
10008efc:	e178      	b.n	100091f0 <process_control_request+0x370>
10008efe:	009b      	lsls	r3, r3, #2
10008f00:	4ac0      	ldr	r2, [pc, #768]	; (10009204 <process_control_request+0x384>)
10008f02:	58d3      	ldr	r3, [r2, r3]
10008f04:	469f      	mov	pc, r3
10008f06:	7923      	ldrb	r3, [r4, #4]
10008f08:	2b0f      	cmp	r3, #15
10008f0a:	d900      	bls.n	10008f0e <process_control_request+0x8e>
10008f0c:	e168      	b.n	100091e0 <process_control_request+0x360>
10008f0e:	4abe      	ldr	r2, [pc, #760]	; (10009208 <process_control_request+0x388>)
10008f10:	18d3      	adds	r3, r2, r3
10008f12:	78db      	ldrb	r3, [r3, #3]
10008f14:	4abd      	ldr	r2, [pc, #756]	; (1000920c <process_control_request+0x38c>)
10008f16:	2a00      	cmp	r2, #0
10008f18:	d005      	beq.n	10008f26 <process_control_request+0xa6>
10008f1a:	4abd      	ldr	r2, [pc, #756]	; (10009210 <process_control_request+0x390>)
10008f1c:	7812      	ldrb	r2, [r2, #0]
10008f1e:	4293      	cmp	r3, r2
10008f20:	d312      	bcc.n	10008f48 <process_control_request+0xc8>
10008f22:	1a9b      	subs	r3, r3, r2
10008f24:	b2db      	uxtb	r3, r3
10008f26:	2b00      	cmp	r3, #0
10008f28:	d000      	beq.n	10008f2c <process_control_request+0xac>
10008f2a:	e15b      	b.n	100091e4 <process_control_request+0x364>
10008f2c:	0059      	lsls	r1, r3, #1
10008f2e:	18cb      	adds	r3, r1, r3
10008f30:	00db      	lsls	r3, r3, #3
10008f32:	49b8      	ldr	r1, [pc, #736]	; (10009214 <process_control_request+0x394>)
10008f34:	18c9      	adds	r1, r1, r3
10008f36:	2900      	cmp	r1, #0
10008f38:	d100      	bne.n	10008f3c <process_control_request+0xbc>
10008f3a:	e155      	b.n	100091e8 <process_control_request+0x368>
10008f3c:	0022      	movs	r2, r4
10008f3e:	0028      	movs	r0, r5
10008f40:	f7ff faf8 	bl	10008534 <invoke_class_control>
10008f44:	0006      	movs	r6, r0
10008f46:	e7b7      	b.n	10008eb8 <process_control_request+0x38>
10008f48:	0059      	lsls	r1, r3, #1
10008f4a:	18cb      	adds	r3, r1, r3
10008f4c:	00db      	lsls	r3, r3, #3
10008f4e:	4ab2      	ldr	r2, [pc, #712]	; (10009218 <process_control_request+0x398>)
10008f50:	6811      	ldr	r1, [r2, #0]
10008f52:	18c9      	adds	r1, r1, r3
10008f54:	e7ef      	b.n	10008f36 <process_control_request+0xb6>
10008f56:	0020      	movs	r0, r4
10008f58:	f000 fb26 	bl	100095a8 <usbd_control_set_request>
10008f5c:	78a1      	ldrb	r1, [r4, #2]
10008f5e:	0028      	movs	r0, r5
10008f60:	f7ff f878 	bl	10008054 <dcd_set_address>
10008f64:	4aa8      	ldr	r2, [pc, #672]	; (10009208 <process_control_request+0x388>)
10008f66:	7813      	ldrb	r3, [r2, #0]
10008f68:	2102      	movs	r1, #2
10008f6a:	430b      	orrs	r3, r1
10008f6c:	7013      	strb	r3, [r2, #0]
10008f6e:	2601      	movs	r6, #1
10008f70:	e7a2      	b.n	10008eb8 <process_control_request+0x38>
10008f72:	4ba5      	ldr	r3, [pc, #660]	; (10009208 <process_control_request+0x388>)
10008f74:	785b      	ldrb	r3, [r3, #1]
10008f76:	466a      	mov	r2, sp
10008f78:	3206      	adds	r2, #6
10008f7a:	7013      	strb	r3, [r2, #0]
10008f7c:	2301      	movs	r3, #1
10008f7e:	0021      	movs	r1, r4
10008f80:	0028      	movs	r0, r5
10008f82:	f000 faad 	bl	100094e0 <tud_control_xfer>
10008f86:	2601      	movs	r6, #1
10008f88:	e796      	b.n	10008eb8 <process_control_request+0x38>
10008f8a:	78a7      	ldrb	r7, [r4, #2]
10008f8c:	4b9e      	ldr	r3, [pc, #632]	; (10009208 <process_control_request+0x388>)
10008f8e:	785b      	ldrb	r3, [r3, #1]
10008f90:	b2db      	uxtb	r3, r3
10008f92:	42bb      	cmp	r3, r7
10008f94:	d005      	beq.n	10008fa2 <process_control_request+0x122>
10008f96:	4b9c      	ldr	r3, [pc, #624]	; (10009208 <process_control_request+0x388>)
10008f98:	785b      	ldrb	r3, [r3, #1]
10008f9a:	2b00      	cmp	r3, #0
10008f9c:	d109      	bne.n	10008fb2 <process_control_request+0x132>
10008f9e:	2f00      	cmp	r7, #0
10008fa0:	d113      	bne.n	10008fca <process_control_request+0x14a>
10008fa2:	4b99      	ldr	r3, [pc, #612]	; (10009208 <process_control_request+0x388>)
10008fa4:	705f      	strb	r7, [r3, #1]
10008fa6:	0021      	movs	r1, r4
10008fa8:	0028      	movs	r0, r5
10008faa:	f000 fa7d 	bl	100094a8 <tud_control_status>
10008fae:	2601      	movs	r6, #1
10008fb0:	e782      	b.n	10008eb8 <process_control_request+0x38>
10008fb2:	0028      	movs	r0, r5
10008fb4:	f7ff f8d8 	bl	10008168 <dcd_edpt_close_all>
10008fb8:	4e93      	ldr	r6, [pc, #588]	; (10009208 <process_control_request+0x388>)
10008fba:	78b3      	ldrb	r3, [r6, #2]
10008fbc:	4698      	mov	r8, r3
10008fbe:	0028      	movs	r0, r5
10008fc0:	f7ff fa70 	bl	100084a4 <configuration_reset>
10008fc4:	4643      	mov	r3, r8
10008fc6:	70b3      	strb	r3, [r6, #2]
10008fc8:	e7e9      	b.n	10008f9e <process_control_request+0x11e>
10008fca:	0039      	movs	r1, r7
10008fcc:	0028      	movs	r0, r5
10008fce:	f7ff fabf 	bl	10008550 <process_set_config>
10008fd2:	1e06      	subs	r6, r0, #0
10008fd4:	d1e5      	bne.n	10008fa2 <process_control_request+0x122>
10008fd6:	4a91      	ldr	r2, [pc, #580]	; (1000921c <process_control_request+0x39c>)
10008fd8:	4987      	ldr	r1, [pc, #540]	; (100091f8 <process_control_request+0x378>)
10008fda:	4888      	ldr	r0, [pc, #544]	; (100091fc <process_control_request+0x37c>)
10008fdc:	f7fe fc08 	bl	100077f0 <__wrap_printf>
10008fe0:	e76a      	b.n	10008eb8 <process_control_request+0x38>
10008fe2:	0021      	movs	r1, r4
10008fe4:	0028      	movs	r0, r5
10008fe6:	f7ff fb8b 	bl	10008700 <process_get_descriptor>
10008fea:	0006      	movs	r6, r0
10008fec:	e764      	b.n	10008eb8 <process_control_request+0x38>
10008fee:	78a2      	ldrb	r2, [r4, #2]
10008ff0:	78e3      	ldrb	r3, [r4, #3]
10008ff2:	021b      	lsls	r3, r3, #8
10008ff4:	4313      	orrs	r3, r2
10008ff6:	2b01      	cmp	r3, #1
10008ff8:	d001      	beq.n	10008ffe <process_control_request+0x17e>
10008ffa:	2600      	movs	r6, #0
10008ffc:	e75c      	b.n	10008eb8 <process_control_request+0x38>
10008ffe:	4a82      	ldr	r2, [pc, #520]	; (10009208 <process_control_request+0x388>)
10009000:	7813      	ldrb	r3, [r2, #0]
10009002:	2108      	movs	r1, #8
10009004:	430b      	orrs	r3, r1
10009006:	7013      	strb	r3, [r2, #0]
10009008:	0021      	movs	r1, r4
1000900a:	0028      	movs	r0, r5
1000900c:	f000 fa4c 	bl	100094a8 <tud_control_status>
10009010:	2601      	movs	r6, #1
10009012:	e751      	b.n	10008eb8 <process_control_request+0x38>
10009014:	78a2      	ldrb	r2, [r4, #2]
10009016:	78e3      	ldrb	r3, [r4, #3]
10009018:	021b      	lsls	r3, r3, #8
1000901a:	4313      	orrs	r3, r2
1000901c:	2b01      	cmp	r3, #1
1000901e:	d001      	beq.n	10009024 <process_control_request+0x1a4>
10009020:	2600      	movs	r6, #0
10009022:	e749      	b.n	10008eb8 <process_control_request+0x38>
10009024:	4a78      	ldr	r2, [pc, #480]	; (10009208 <process_control_request+0x388>)
10009026:	7813      	ldrb	r3, [r2, #0]
10009028:	2108      	movs	r1, #8
1000902a:	438b      	bics	r3, r1
1000902c:	7013      	strb	r3, [r2, #0]
1000902e:	0021      	movs	r1, r4
10009030:	0028      	movs	r0, r5
10009032:	f000 fa39 	bl	100094a8 <tud_control_status>
10009036:	2601      	movs	r6, #1
10009038:	e73e      	b.n	10008eb8 <process_control_request+0x38>
1000903a:	4b73      	ldr	r3, [pc, #460]	; (10009208 <process_control_request+0x388>)
1000903c:	781a      	ldrb	r2, [r3, #0]
1000903e:	0951      	lsrs	r1, r2, #5
10009040:	0892      	lsrs	r2, r2, #2
10009042:	2301      	movs	r3, #1
10009044:	400b      	ands	r3, r1
10009046:	2102      	movs	r1, #2
10009048:	400a      	ands	r2, r1
1000904a:	4313      	orrs	r3, r2
1000904c:	466a      	mov	r2, sp
1000904e:	3206      	adds	r2, #6
10009050:	8013      	strh	r3, [r2, #0]
10009052:	2302      	movs	r3, #2
10009054:	0021      	movs	r1, r4
10009056:	0028      	movs	r0, r5
10009058:	f000 fa42 	bl	100094e0 <tud_control_xfer>
1000905c:	2601      	movs	r6, #1
1000905e:	e72b      	b.n	10008eb8 <process_control_request+0x38>
10009060:	7923      	ldrb	r3, [r4, #4]
10009062:	2b0f      	cmp	r3, #15
10009064:	d900      	bls.n	10009068 <process_control_request+0x1e8>
10009066:	e0dd      	b.n	10009224 <process_control_request+0x3a4>
10009068:	4a67      	ldr	r2, [pc, #412]	; (10009208 <process_control_request+0x388>)
1000906a:	18d3      	adds	r3, r2, r3
1000906c:	78d9      	ldrb	r1, [r3, #3]
1000906e:	4b67      	ldr	r3, [pc, #412]	; (1000920c <process_control_request+0x38c>)
10009070:	2b00      	cmp	r3, #0
10009072:	d005      	beq.n	10009080 <process_control_request+0x200>
10009074:	4b66      	ldr	r3, [pc, #408]	; (10009210 <process_control_request+0x390>)
10009076:	781b      	ldrb	r3, [r3, #0]
10009078:	4299      	cmp	r1, r3
1000907a:	d329      	bcc.n	100090d0 <process_control_request+0x250>
1000907c:	1ac9      	subs	r1, r1, r3
1000907e:	b2c9      	uxtb	r1, r1
10009080:	2900      	cmp	r1, #0
10009082:	d000      	beq.n	10009086 <process_control_request+0x206>
10009084:	e0d0      	b.n	10009228 <process_control_request+0x3a8>
10009086:	004b      	lsls	r3, r1, #1
10009088:	185b      	adds	r3, r3, r1
1000908a:	00db      	lsls	r3, r3, #3
1000908c:	4961      	ldr	r1, [pc, #388]	; (10009214 <process_control_request+0x394>)
1000908e:	18c9      	adds	r1, r1, r3
10009090:	2900      	cmp	r1, #0
10009092:	d100      	bne.n	10009096 <process_control_request+0x216>
10009094:	e0ca      	b.n	1000922c <process_control_request+0x3ac>
10009096:	0022      	movs	r2, r4
10009098:	0028      	movs	r0, r5
1000909a:	f7ff fa4b 	bl	10008534 <invoke_class_control>
1000909e:	1e06      	subs	r6, r0, #0
100090a0:	d000      	beq.n	100090a4 <process_control_request+0x224>
100090a2:	e709      	b.n	10008eb8 <process_control_request+0x38>
100090a4:	7823      	ldrb	r3, [r4, #0]
100090a6:	2260      	movs	r2, #96	; 0x60
100090a8:	421a      	tst	r2, r3
100090aa:	d000      	beq.n	100090ae <process_control_request+0x22e>
100090ac:	e704      	b.n	10008eb8 <process_control_request+0x38>
100090ae:	7863      	ldrb	r3, [r4, #1]
100090b0:	3b0a      	subs	r3, #10
100090b2:	2b01      	cmp	r3, #1
100090b4:	d900      	bls.n	100090b8 <process_control_request+0x238>
100090b6:	e6ff      	b.n	10008eb8 <process_control_request+0x38>
100090b8:	2000      	movs	r0, #0
100090ba:	f000 fa6f 	bl	1000959c <usbd_control_set_complete_callback>
100090be:	7863      	ldrb	r3, [r4, #1]
100090c0:	2b0a      	cmp	r3, #10
100090c2:	d00c      	beq.n	100090de <process_control_request+0x25e>
100090c4:	0021      	movs	r1, r4
100090c6:	0028      	movs	r0, r5
100090c8:	f000 f9ee 	bl	100094a8 <tud_control_status>
100090cc:	2601      	movs	r6, #1
100090ce:	e6f3      	b.n	10008eb8 <process_control_request+0x38>
100090d0:	004b      	lsls	r3, r1, #1
100090d2:	185b      	adds	r3, r3, r1
100090d4:	00db      	lsls	r3, r3, #3
100090d6:	4a50      	ldr	r2, [pc, #320]	; (10009218 <process_control_request+0x398>)
100090d8:	6811      	ldr	r1, [r2, #0]
100090da:	18c9      	adds	r1, r1, r3
100090dc:	e7d8      	b.n	10009090 <process_control_request+0x210>
100090de:	466b      	mov	r3, sp
100090e0:	1d9a      	adds	r2, r3, #6
100090e2:	2300      	movs	r3, #0
100090e4:	7013      	strb	r3, [r2, #0]
100090e6:	3301      	adds	r3, #1
100090e8:	0021      	movs	r1, r4
100090ea:	0028      	movs	r0, r5
100090ec:	f000 f9f8 	bl	100094e0 <tud_control_xfer>
100090f0:	3601      	adds	r6, #1
100090f2:	e6e1      	b.n	10008eb8 <process_control_request+0x38>
100090f4:	7921      	ldrb	r1, [r4, #4]
100090f6:	227f      	movs	r2, #127	; 0x7f
100090f8:	400a      	ands	r2, r1
100090fa:	09ce      	lsrs	r6, r1, #7
100090fc:	2070      	movs	r0, #112	; 0x70
100090fe:	4208      	tst	r0, r1
10009100:	d120      	bne.n	10009144 <process_control_request+0x2c4>
10009102:	0052      	lsls	r2, r2, #1
10009104:	4840      	ldr	r0, [pc, #256]	; (10009208 <process_control_request+0x388>)
10009106:	1882      	adds	r2, r0, r2
10009108:	1992      	adds	r2, r2, r6
1000910a:	7cd2      	ldrb	r2, [r2, #19]
1000910c:	483f      	ldr	r0, [pc, #252]	; (1000920c <process_control_request+0x38c>)
1000910e:	2800      	cmp	r0, #0
10009110:	d005      	beq.n	1000911e <process_control_request+0x29e>
10009112:	483f      	ldr	r0, [pc, #252]	; (10009210 <process_control_request+0x390>)
10009114:	7800      	ldrb	r0, [r0, #0]
10009116:	4282      	cmp	r2, r0
10009118:	d31b      	bcc.n	10009152 <process_control_request+0x2d2>
1000911a:	1a12      	subs	r2, r2, r0
1000911c:	b2d2      	uxtb	r2, r2
1000911e:	2a00      	cmp	r2, #0
10009120:	d11e      	bne.n	10009160 <process_control_request+0x2e0>
10009122:	0056      	lsls	r6, r2, #1
10009124:	18b2      	adds	r2, r6, r2
10009126:	00d2      	lsls	r2, r2, #3
10009128:	4e3a      	ldr	r6, [pc, #232]	; (10009214 <process_control_request+0x394>)
1000912a:	18b6      	adds	r6, r6, r2
1000912c:	2b00      	cmp	r3, #0
1000912e:	d019      	beq.n	10009164 <process_control_request+0x2e4>
10009130:	2e00      	cmp	r6, #0
10009132:	d100      	bne.n	10009136 <process_control_request+0x2b6>
10009134:	e07c      	b.n	10009230 <process_control_request+0x3b0>
10009136:	0022      	movs	r2, r4
10009138:	0031      	movs	r1, r6
1000913a:	0028      	movs	r0, r5
1000913c:	f7ff f9fa 	bl	10008534 <invoke_class_control>
10009140:	0006      	movs	r6, r0
10009142:	e6b9      	b.n	10008eb8 <process_control_request+0x38>
10009144:	4a36      	ldr	r2, [pc, #216]	; (10009220 <process_control_request+0x3a0>)
10009146:	492c      	ldr	r1, [pc, #176]	; (100091f8 <process_control_request+0x378>)
10009148:	482c      	ldr	r0, [pc, #176]	; (100091fc <process_control_request+0x37c>)
1000914a:	f7fe fb51 	bl	100077f0 <__wrap_printf>
1000914e:	2600      	movs	r6, #0
10009150:	e6b2      	b.n	10008eb8 <process_control_request+0x38>
10009152:	0056      	lsls	r6, r2, #1
10009154:	18b2      	adds	r2, r6, r2
10009156:	00d2      	lsls	r2, r2, #3
10009158:	482f      	ldr	r0, [pc, #188]	; (10009218 <process_control_request+0x398>)
1000915a:	6806      	ldr	r6, [r0, #0]
1000915c:	18b6      	adds	r6, r6, r2
1000915e:	e7e5      	b.n	1000912c <process_control_request+0x2ac>
10009160:	2600      	movs	r6, #0
10009162:	e7e3      	b.n	1000912c <process_control_request+0x2ac>
10009164:	7863      	ldrb	r3, [r4, #1]
10009166:	2b01      	cmp	r3, #1
10009168:	d012      	beq.n	10009190 <process_control_request+0x310>
1000916a:	2b03      	cmp	r3, #3
1000916c:	d010      	beq.n	10009190 <process_control_request+0x310>
1000916e:	2b00      	cmp	r3, #0
10009170:	d001      	beq.n	10009176 <process_control_request+0x2f6>
10009172:	2600      	movs	r6, #0
10009174:	e6a0      	b.n	10008eb8 <process_control_request+0x38>
10009176:	0028      	movs	r0, r5
10009178:	f7ff fe74 	bl	10008e64 <usbd_edpt_stalled>
1000917c:	466b      	mov	r3, sp
1000917e:	1d9a      	adds	r2, r3, #6
10009180:	8010      	strh	r0, [r2, #0]
10009182:	2302      	movs	r3, #2
10009184:	0021      	movs	r1, r4
10009186:	0028      	movs	r0, r5
10009188:	f000 f9aa 	bl	100094e0 <tud_control_xfer>
1000918c:	2601      	movs	r6, #1
1000918e:	e693      	b.n	10008eb8 <process_control_request+0x38>
10009190:	78a7      	ldrb	r7, [r4, #2]
10009192:	78e2      	ldrb	r2, [r4, #3]
10009194:	0212      	lsls	r2, r2, #8
10009196:	433a      	orrs	r2, r7
10009198:	d104      	bne.n	100091a4 <process_control_request+0x324>
1000919a:	2b01      	cmp	r3, #1
1000919c:	d01a      	beq.n	100091d4 <process_control_request+0x354>
1000919e:	0028      	movs	r0, r5
100091a0:	f7ff fe20 	bl	10008de4 <usbd_edpt_stall>
100091a4:	2e00      	cmp	r6, #0
100091a6:	d045      	beq.n	10009234 <process_control_request+0x3b4>
100091a8:	0022      	movs	r2, r4
100091aa:	0031      	movs	r1, r6
100091ac:	0028      	movs	r0, r5
100091ae:	f7ff f9c1 	bl	10008534 <invoke_class_control>
100091b2:	2000      	movs	r0, #0
100091b4:	f000 f9f2 	bl	1000959c <usbd_control_set_complete_callback>
100091b8:	4a13      	ldr	r2, [pc, #76]	; (10009208 <process_control_request+0x388>)
100091ba:	2334      	movs	r3, #52	; 0x34
100091bc:	5cd3      	ldrb	r3, [r2, r3]
100091be:	07db      	lsls	r3, r3, #31
100091c0:	0fde      	lsrs	r6, r3, #31
100091c2:	2b00      	cmp	r3, #0
100091c4:	d000      	beq.n	100091c8 <process_control_request+0x348>
100091c6:	e677      	b.n	10008eb8 <process_control_request+0x38>
100091c8:	0021      	movs	r1, r4
100091ca:	0028      	movs	r0, r5
100091cc:	f000 f96c 	bl	100094a8 <tud_control_status>
100091d0:	2601      	movs	r6, #1
100091d2:	e671      	b.n	10008eb8 <process_control_request+0x38>
100091d4:	0028      	movs	r0, r5
100091d6:	f7ff fe25 	bl	10008e24 <usbd_edpt_clear_stall>
100091da:	e7e3      	b.n	100091a4 <process_control_request+0x324>
100091dc:	2600      	movs	r6, #0
100091de:	e66b      	b.n	10008eb8 <process_control_request+0x38>
100091e0:	2600      	movs	r6, #0
100091e2:	e669      	b.n	10008eb8 <process_control_request+0x38>
100091e4:	2600      	movs	r6, #0
100091e6:	e667      	b.n	10008eb8 <process_control_request+0x38>
100091e8:	2600      	movs	r6, #0
100091ea:	e665      	b.n	10008eb8 <process_control_request+0x38>
100091ec:	2600      	movs	r6, #0
100091ee:	e663      	b.n	10008eb8 <process_control_request+0x38>
100091f0:	2600      	movs	r6, #0
100091f2:	e661      	b.n	10008eb8 <process_control_request+0x38>
100091f4:	0000027f 	.word	0x0000027f
100091f8:	1000c4e4 	.word	0x1000c4e4
100091fc:	1000c3d0 	.word	0x1000c3d0
10009200:	00000000 	.word	0x00000000
10009204:	1000c428 	.word	0x1000c428
10009208:	200009b4 	.word	0x200009b4
1000920c:	10007a01 	.word	0x10007a01
10009210:	20002146 	.word	0x20002146
10009214:	1000c508 	.word	0x1000c508
10009218:	2000067c 	.word	0x2000067c
1000921c:	000002d3 	.word	0x000002d3
10009220:	00000333 	.word	0x00000333
10009224:	2600      	movs	r6, #0
10009226:	e647      	b.n	10008eb8 <process_control_request+0x38>
10009228:	2600      	movs	r6, #0
1000922a:	e645      	b.n	10008eb8 <process_control_request+0x38>
1000922c:	2600      	movs	r6, #0
1000922e:	e643      	b.n	10008eb8 <process_control_request+0x38>
10009230:	2600      	movs	r6, #0
10009232:	e641      	b.n	10008eb8 <process_control_request+0x38>
10009234:	2601      	movs	r6, #1
10009236:	e63f      	b.n	10008eb8 <process_control_request+0x38>

10009238 <tud_task>:
10009238:	b530      	push	{r4, r5, lr}
1000923a:	b085      	sub	sp, #20
1000923c:	f000 fd80 	bl	10009d40 <tusb_inited>
10009240:	2800      	cmp	r0, #0
10009242:	d108      	bne.n	10009256 <tud_task+0x1e>
10009244:	b005      	add	sp, #20
10009246:	bd30      	pop	{r4, r5, pc}
10009248:	ac01      	add	r4, sp, #4
1000924a:	7820      	ldrb	r0, [r4, #0]
1000924c:	f7ff f96c 	bl	10008528 <usbd_reset>
10009250:	7922      	ldrb	r2, [r4, #4]
10009252:	4b72      	ldr	r3, [pc, #456]	; (1000941c <tud_task+0x1e4>)
10009254:	709a      	strb	r2, [r3, #2]
10009256:	4b72      	ldr	r3, [pc, #456]	; (10009420 <tud_task+0x1e8>)
10009258:	681c      	ldr	r4, [r3, #0]
1000925a:	69e2      	ldr	r2, [r4, #28]
1000925c:	f3ef 8110 	mrs	r1, PRIMASK
10009260:	b672      	cpsid	i
10009262:	6813      	ldr	r3, [r2, #0]
10009264:	2b00      	cmp	r3, #0
10009266:	d0fc      	beq.n	10009262 <tud_task+0x2a>
10009268:	f3bf 8f5f 	dmb	sy
1000926c:	6221      	str	r1, [r4, #32]
1000926e:	a901      	add	r1, sp, #4
10009270:	0020      	movs	r0, r4
10009272:	f001 f87a 	bl	1000a36a <tu_fifo_read>
10009276:	69e2      	ldr	r2, [r4, #28]
10009278:	6a23      	ldr	r3, [r4, #32]
1000927a:	f3bf 8f5f 	dmb	sy
1000927e:	2100      	movs	r1, #0
10009280:	6011      	str	r1, [r2, #0]
10009282:	f383 8810 	msr	PRIMASK, r3
10009286:	2800      	cmp	r0, #0
10009288:	d0dc      	beq.n	10009244 <tud_task+0xc>
1000928a:	ab01      	add	r3, sp, #4
1000928c:	785b      	ldrb	r3, [r3, #1]
1000928e:	2b08      	cmp	r3, #8
10009290:	d8e1      	bhi.n	10009256 <tud_task+0x1e>
10009292:	009b      	lsls	r3, r3, #2
10009294:	4a63      	ldr	r2, [pc, #396]	; (10009424 <tud_task+0x1ec>)
10009296:	58d3      	ldr	r3, [r2, r3]
10009298:	469f      	mov	pc, r3
1000929a:	ab01      	add	r3, sp, #4
1000929c:	7818      	ldrb	r0, [r3, #0]
1000929e:	f7ff f943 	bl	10008528 <usbd_reset>
100092a2:	4b61      	ldr	r3, [pc, #388]	; (10009428 <tud_task+0x1f0>)
100092a4:	2b00      	cmp	r3, #0
100092a6:	d0d6      	beq.n	10009256 <tud_task+0x1e>
100092a8:	e000      	b.n	100092ac <tud_task+0x74>
100092aa:	bf00      	nop
100092ac:	e7d3      	b.n	10009256 <tud_task+0x1e>
100092ae:	4b5b      	ldr	r3, [pc, #364]	; (1000941c <tud_task+0x1e4>)
100092b0:	781a      	ldrb	r2, [r3, #0]
100092b2:	2401      	movs	r4, #1
100092b4:	2101      	movs	r1, #1
100092b6:	430a      	orrs	r2, r1
100092b8:	701a      	strb	r2, [r3, #0]
100092ba:	2233      	movs	r2, #51	; 0x33
100092bc:	5c99      	ldrb	r1, [r3, r2]
100092be:	43a1      	bics	r1, r4
100092c0:	5499      	strb	r1, [r3, r2]
100092c2:	5c99      	ldrb	r1, [r3, r2]
100092c4:	2004      	movs	r0, #4
100092c6:	4381      	bics	r1, r0
100092c8:	5499      	strb	r1, [r3, r2]
100092ca:	3201      	adds	r2, #1
100092cc:	5c99      	ldrb	r1, [r3, r2]
100092ce:	43a1      	bics	r1, r4
100092d0:	5499      	strb	r1, [r3, r2]
100092d2:	5c99      	ldrb	r1, [r3, r2]
100092d4:	4381      	bics	r1, r0
100092d6:	5499      	strb	r1, [r3, r2]
100092d8:	ab01      	add	r3, sp, #4
100092da:	7818      	ldrb	r0, [r3, #0]
100092dc:	a902      	add	r1, sp, #8
100092de:	f7ff fdcf 	bl	10008e80 <process_control_request>
100092e2:	2800      	cmp	r0, #0
100092e4:	d1b7      	bne.n	10009256 <tud_task+0x1e>
100092e6:	ac01      	add	r4, sp, #4
100092e8:	7820      	ldrb	r0, [r4, #0]
100092ea:	2100      	movs	r1, #0
100092ec:	f7fe ff58 	bl	100081a0 <dcd_edpt_stall>
100092f0:	7820      	ldrb	r0, [r4, #0]
100092f2:	2180      	movs	r1, #128	; 0x80
100092f4:	f7fe ff54 	bl	100081a0 <dcd_edpt_stall>
100092f8:	e7ad      	b.n	10009256 <tud_task+0x1e>
100092fa:	ab01      	add	r3, sp, #4
100092fc:	7919      	ldrb	r1, [r3, #4]
100092fe:	227f      	movs	r2, #127	; 0x7f
10009300:	400a      	ands	r2, r1
10009302:	09cc      	lsrs	r4, r1, #7
10009304:	0050      	lsls	r0, r2, #1
10009306:	4b45      	ldr	r3, [pc, #276]	; (1000941c <tud_task+0x1e4>)
10009308:	181b      	adds	r3, r3, r0
1000930a:	191b      	adds	r3, r3, r4
1000930c:	3330      	adds	r3, #48	; 0x30
1000930e:	78d8      	ldrb	r0, [r3, #3]
10009310:	2501      	movs	r5, #1
10009312:	43a8      	bics	r0, r5
10009314:	70d8      	strb	r0, [r3, #3]
10009316:	78d8      	ldrb	r0, [r3, #3]
10009318:	3503      	adds	r5, #3
1000931a:	43a8      	bics	r0, r5
1000931c:	70d8      	strb	r0, [r3, #3]
1000931e:	2a00      	cmp	r2, #0
10009320:	d01d      	beq.n	1000935e <tud_task+0x126>
10009322:	0052      	lsls	r2, r2, #1
10009324:	4b3d      	ldr	r3, [pc, #244]	; (1000941c <tud_task+0x1e4>)
10009326:	189a      	adds	r2, r3, r2
10009328:	1912      	adds	r2, r2, r4
1000932a:	7cd3      	ldrb	r3, [r2, #19]
1000932c:	4a3f      	ldr	r2, [pc, #252]	; (1000942c <tud_task+0x1f4>)
1000932e:	2a00      	cmp	r2, #0
10009330:	d005      	beq.n	1000933e <tud_task+0x106>
10009332:	4a3f      	ldr	r2, [pc, #252]	; (10009430 <tud_task+0x1f8>)
10009334:	7812      	ldrb	r2, [r2, #0]
10009336:	4293      	cmp	r3, r2
10009338:	d318      	bcc.n	1000936c <tud_task+0x134>
1000933a:	1a9b      	subs	r3, r3, r2
1000933c:	b2db      	uxtb	r3, r3
1000933e:	2b00      	cmp	r3, #0
10009340:	d11b      	bne.n	1000937a <tud_task+0x142>
10009342:	005a      	lsls	r2, r3, #1
10009344:	18d2      	adds	r2, r2, r3
10009346:	00d2      	lsls	r2, r2, #3
10009348:	4b3a      	ldr	r3, [pc, #232]	; (10009434 <tud_task+0x1fc>)
1000934a:	189b      	adds	r3, r3, r2
1000934c:	2b00      	cmp	r3, #0
1000934e:	d014      	beq.n	1000937a <tud_task+0x142>
10009350:	691c      	ldr	r4, [r3, #16]
10009352:	a801      	add	r0, sp, #4
10009354:	7942      	ldrb	r2, [r0, #5]
10009356:	9b03      	ldr	r3, [sp, #12]
10009358:	7800      	ldrb	r0, [r0, #0]
1000935a:	47a0      	blx	r4
1000935c:	e77b      	b.n	10009256 <tud_task+0x1e>
1000935e:	a801      	add	r0, sp, #4
10009360:	7942      	ldrb	r2, [r0, #5]
10009362:	9b03      	ldr	r3, [sp, #12]
10009364:	7800      	ldrb	r0, [r0, #0]
10009366:	f000 f92d 	bl	100095c4 <usbd_control_xfer_cb>
1000936a:	e774      	b.n	10009256 <tud_task+0x1e>
1000936c:	005a      	lsls	r2, r3, #1
1000936e:	18d2      	adds	r2, r2, r3
10009370:	00d2      	lsls	r2, r2, #3
10009372:	4b31      	ldr	r3, [pc, #196]	; (10009438 <tud_task+0x200>)
10009374:	681b      	ldr	r3, [r3, #0]
10009376:	189b      	adds	r3, r3, r2
10009378:	e7e8      	b.n	1000934c <tud_task+0x114>
1000937a:	4a30      	ldr	r2, [pc, #192]	; (1000943c <tud_task+0x204>)
1000937c:	4930      	ldr	r1, [pc, #192]	; (10009440 <tud_task+0x208>)
1000937e:	4831      	ldr	r0, [pc, #196]	; (10009444 <tud_task+0x20c>)
10009380:	f7fe fa36 	bl	100077f0 <__wrap_printf>
10009384:	e75e      	b.n	10009244 <tud_task+0xc>
10009386:	4b25      	ldr	r3, [pc, #148]	; (1000941c <tud_task+0x1e4>)
10009388:	781b      	ldrb	r3, [r3, #0]
1000938a:	07db      	lsls	r3, r3, #31
1000938c:	d400      	bmi.n	10009390 <tud_task+0x158>
1000938e:	e762      	b.n	10009256 <tud_task+0x1e>
10009390:	4b2d      	ldr	r3, [pc, #180]	; (10009448 <tud_task+0x210>)
10009392:	2b00      	cmp	r3, #0
10009394:	d100      	bne.n	10009398 <tud_task+0x160>
10009396:	e75e      	b.n	10009256 <tud_task+0x1e>
10009398:	4b20      	ldr	r3, [pc, #128]	; (1000941c <tud_task+0x1e4>)
1000939a:	7818      	ldrb	r0, [r3, #0]
1000939c:	0700      	lsls	r0, r0, #28
1000939e:	0fc0      	lsrs	r0, r0, #31
100093a0:	e000      	b.n	100093a4 <tud_task+0x16c>
100093a2:	bf00      	nop
100093a4:	e757      	b.n	10009256 <tud_task+0x1e>
100093a6:	4b1d      	ldr	r3, [pc, #116]	; (1000941c <tud_task+0x1e4>)
100093a8:	781b      	ldrb	r3, [r3, #0]
100093aa:	07db      	lsls	r3, r3, #31
100093ac:	d400      	bmi.n	100093b0 <tud_task+0x178>
100093ae:	e752      	b.n	10009256 <tud_task+0x1e>
100093b0:	4b26      	ldr	r3, [pc, #152]	; (1000944c <tud_task+0x214>)
100093b2:	2b00      	cmp	r3, #0
100093b4:	d100      	bne.n	100093b8 <tud_task+0x180>
100093b6:	e74e      	b.n	10009256 <tud_task+0x1e>
100093b8:	e000      	b.n	100093bc <tud_task+0x184>
100093ba:	bf00      	nop
100093bc:	e74b      	b.n	10009256 <tud_task+0x1e>
100093be:	0063      	lsls	r3, r4, #1
100093c0:	191b      	adds	r3, r3, r4
100093c2:	00da      	lsls	r2, r3, #3
100093c4:	4b1c      	ldr	r3, [pc, #112]	; (10009438 <tud_task+0x200>)
100093c6:	681b      	ldr	r3, [r3, #0]
100093c8:	189b      	adds	r3, r3, r2
100093ca:	e002      	b.n	100093d2 <tud_task+0x19a>
100093cc:	0023      	movs	r3, r4
100093ce:	e014      	b.n	100093fa <tud_task+0x1c2>
100093d0:	2300      	movs	r3, #0
100093d2:	695b      	ldr	r3, [r3, #20]
100093d4:	2b00      	cmp	r3, #0
100093d6:	d002      	beq.n	100093de <tud_task+0x1a6>
100093d8:	aa01      	add	r2, sp, #4
100093da:	7810      	ldrb	r0, [r2, #0]
100093dc:	4798      	blx	r3
100093de:	3401      	adds	r4, #1
100093e0:	b2e4      	uxtb	r4, r4
100093e2:	4b13      	ldr	r3, [pc, #76]	; (10009430 <tud_task+0x1f8>)
100093e4:	781b      	ldrb	r3, [r3, #0]
100093e6:	42a3      	cmp	r3, r4
100093e8:	d200      	bcs.n	100093ec <tud_task+0x1b4>
100093ea:	e734      	b.n	10009256 <tud_task+0x1e>
100093ec:	4a0f      	ldr	r2, [pc, #60]	; (1000942c <tud_task+0x1f4>)
100093ee:	2a00      	cmp	r2, #0
100093f0:	d0ec      	beq.n	100093cc <tud_task+0x194>
100093f2:	42a3      	cmp	r3, r4
100093f4:	d8e3      	bhi.n	100093be <tud_task+0x186>
100093f6:	1ae3      	subs	r3, r4, r3
100093f8:	b2db      	uxtb	r3, r3
100093fa:	2b00      	cmp	r3, #0
100093fc:	d1e8      	bne.n	100093d0 <tud_task+0x198>
100093fe:	005a      	lsls	r2, r3, #1
10009400:	18d2      	adds	r2, r2, r3
10009402:	00d2      	lsls	r2, r2, #3
10009404:	4b0b      	ldr	r3, [pc, #44]	; (10009434 <tud_task+0x1fc>)
10009406:	189b      	adds	r3, r3, r2
10009408:	e7e3      	b.n	100093d2 <tud_task+0x19a>
1000940a:	2400      	movs	r4, #0
1000940c:	e7e9      	b.n	100093e2 <tud_task+0x1aa>
1000940e:	9b02      	ldr	r3, [sp, #8]
10009410:	2b00      	cmp	r3, #0
10009412:	d100      	bne.n	10009416 <tud_task+0x1de>
10009414:	e71f      	b.n	10009256 <tud_task+0x1e>
10009416:	9803      	ldr	r0, [sp, #12]
10009418:	4798      	blx	r3
1000941a:	e71c      	b.n	10009256 <tud_task+0x1e>
1000941c:	200009b4 	.word	0x200009b4
10009420:	20000a0c 	.word	0x20000a0c
10009424:	1000c450 	.word	0x1000c450
10009428:	00000000 	.word	0x00000000
1000942c:	10007a01 	.word	0x10007a01
10009430:	20002146 	.word	0x20002146
10009434:	1000c508 	.word	0x1000c508
10009438:	2000067c 	.word	0x2000067c
1000943c:	00000237 	.word	0x00000237
10009440:	1000c4fc 	.word	0x1000c4fc
10009444:	1000c3d0 	.word	0x1000c3d0
	...

10009450 <_data_stage_xact>:
10009450:	b5f8      	push	{r3, r4, r5, r6, r7, lr}
10009452:	0005      	movs	r5, r0
10009454:	4b12      	ldr	r3, [pc, #72]	; (100094a0 <_data_stage_xact+0x50>)
10009456:	899f      	ldrh	r7, [r3, #12]
10009458:	89de      	ldrh	r6, [r3, #14]
1000945a:	1bb9      	subs	r1, r7, r6
1000945c:	b289      	uxth	r1, r1
1000945e:	1c0b      	adds	r3, r1, #0
10009460:	2940      	cmp	r1, #64	; 0x40
10009462:	d900      	bls.n	10009466 <_data_stage_xact+0x16>
10009464:	2340      	movs	r3, #64	; 0x40
10009466:	b29c      	uxth	r4, r3
10009468:	4b0d      	ldr	r3, [pc, #52]	; (100094a0 <_data_stage_xact+0x50>)
1000946a:	781b      	ldrb	r3, [r3, #0]
1000946c:	b25b      	sxtb	r3, r3
1000946e:	2b00      	cmp	r3, #0
10009470:	db08      	blt.n	10009484 <_data_stage_xact+0x34>
10009472:	2100      	movs	r1, #0
10009474:	42b7      	cmp	r7, r6
10009476:	d011      	beq.n	1000949c <_data_stage_xact+0x4c>
10009478:	4a0a      	ldr	r2, [pc, #40]	; (100094a4 <_data_stage_xact+0x54>)
1000947a:	0023      	movs	r3, r4
1000947c:	0028      	movs	r0, r5
1000947e:	f7ff fc71 	bl	10008d64 <usbd_edpt_xfer>
10009482:	bdf8      	pop	{r3, r4, r5, r6, r7, pc}
10009484:	42b7      	cmp	r7, r6
10009486:	d101      	bne.n	1000948c <_data_stage_xact+0x3c>
10009488:	2180      	movs	r1, #128	; 0x80
1000948a:	e7f3      	b.n	10009474 <_data_stage_xact+0x24>
1000948c:	4b04      	ldr	r3, [pc, #16]	; (100094a0 <_data_stage_xact+0x50>)
1000948e:	6899      	ldr	r1, [r3, #8]
10009490:	0022      	movs	r2, r4
10009492:	4804      	ldr	r0, [pc, #16]	; (100094a4 <_data_stage_xact+0x54>)
10009494:	f7fe f868 	bl	10007568 <__wrap___aeabi_memcpy>
10009498:	2180      	movs	r1, #128	; 0x80
1000949a:	e7eb      	b.n	10009474 <_data_stage_xact+0x24>
1000949c:	2200      	movs	r2, #0
1000949e:	e7ec      	b.n	1000947a <_data_stage_xact+0x2a>
100094a0:	20000958 	.word	0x20000958
100094a4:	20000974 	.word	0x20000974

100094a8 <tud_control_status>:
100094a8:	b570      	push	{r4, r5, r6, lr}
100094aa:	0006      	movs	r6, r0
100094ac:	000c      	movs	r4, r1
100094ae:	4d0b      	ldr	r5, [pc, #44]	; (100094dc <tud_control_status+0x34>)
100094b0:	2208      	movs	r2, #8
100094b2:	0028      	movs	r0, r5
100094b4:	f7fe f858 	bl	10007568 <__wrap___aeabi_memcpy>
100094b8:	2300      	movs	r3, #0
100094ba:	60ab      	str	r3, [r5, #8]
100094bc:	81eb      	strh	r3, [r5, #14]
100094be:	81ab      	strh	r3, [r5, #12]
100094c0:	2300      	movs	r3, #0
100094c2:	56e3      	ldrsb	r3, [r4, r3]
100094c4:	2b00      	cmp	r3, #0
100094c6:	db06      	blt.n	100094d6 <tud_control_status+0x2e>
100094c8:	2180      	movs	r1, #128	; 0x80
100094ca:	2300      	movs	r3, #0
100094cc:	2200      	movs	r2, #0
100094ce:	0030      	movs	r0, r6
100094d0:	f7ff fc48 	bl	10008d64 <usbd_edpt_xfer>
100094d4:	bd70      	pop	{r4, r5, r6, pc}
100094d6:	2100      	movs	r1, #0
100094d8:	e7f7      	b.n	100094ca <tud_control_status+0x22>
100094da:	46c0      	nop			; (mov r8, r8)
100094dc:	20000958 	.word	0x20000958

100094e0 <tud_control_xfer>:
100094e0:	b5f0      	push	{r4, r5, r6, r7, lr}
100094e2:	46c6      	mov	lr, r8
100094e4:	b500      	push	{lr}
100094e6:	4680      	mov	r8, r0
100094e8:	000c      	movs	r4, r1
100094ea:	0016      	movs	r6, r2
100094ec:	001d      	movs	r5, r3
100094ee:	4f23      	ldr	r7, [pc, #140]	; (1000957c <tud_control_xfer+0x9c>)
100094f0:	2208      	movs	r2, #8
100094f2:	0038      	movs	r0, r7
100094f4:	f7fe f838 	bl	10007568 <__wrap___aeabi_memcpy>
100094f8:	60be      	str	r6, [r7, #8]
100094fa:	2300      	movs	r3, #0
100094fc:	81fb      	strh	r3, [r7, #14]
100094fe:	79a3      	ldrb	r3, [r4, #6]
10009500:	79e1      	ldrb	r1, [r4, #7]
10009502:	0209      	lsls	r1, r1, #8
10009504:	4319      	orrs	r1, r3
10009506:	1c0b      	adds	r3, r1, #0
10009508:	42a9      	cmp	r1, r5
1000950a:	d900      	bls.n	1000950e <tud_control_xfer+0x2e>
1000950c:	1c2b      	adds	r3, r5, #0
1000950e:	b299      	uxth	r1, r3
10009510:	4a1a      	ldr	r2, [pc, #104]	; (1000957c <tud_control_xfer+0x9c>)
10009512:	8193      	strh	r3, [r2, #12]
10009514:	79a2      	ldrb	r2, [r4, #6]
10009516:	79e3      	ldrb	r3, [r4, #7]
10009518:	021b      	lsls	r3, r3, #8
1000951a:	4313      	orrs	r3, r2
1000951c:	d019      	beq.n	10009552 <tud_control_xfer+0x72>
1000951e:	2900      	cmp	r1, #0
10009520:	d001      	beq.n	10009526 <tud_control_xfer+0x46>
10009522:	2e00      	cmp	r6, #0
10009524:	d008      	beq.n	10009538 <tud_control_xfer+0x58>
10009526:	4640      	mov	r0, r8
10009528:	f7ff ff92 	bl	10009450 <_data_stage_xact>
1000952c:	1e04      	subs	r4, r0, #0
1000952e:	d00a      	beq.n	10009546 <tud_control_xfer+0x66>
10009530:	0020      	movs	r0, r4
10009532:	bc80      	pop	{r7}
10009534:	46b8      	mov	r8, r7
10009536:	bdf0      	pop	{r4, r5, r6, r7, pc}
10009538:	2273      	movs	r2, #115	; 0x73
1000953a:	4911      	ldr	r1, [pc, #68]	; (10009580 <tud_control_xfer+0xa0>)
1000953c:	4811      	ldr	r0, [pc, #68]	; (10009584 <tud_control_xfer+0xa4>)
1000953e:	f7fe f957 	bl	100077f0 <__wrap_printf>
10009542:	2400      	movs	r4, #0
10009544:	e7f4      	b.n	10009530 <tud_control_xfer+0x50>
10009546:	2279      	movs	r2, #121	; 0x79
10009548:	490d      	ldr	r1, [pc, #52]	; (10009580 <tud_control_xfer+0xa0>)
1000954a:	480e      	ldr	r0, [pc, #56]	; (10009584 <tud_control_xfer+0xa4>)
1000954c:	f7fe f950 	bl	100077f0 <__wrap_printf>
10009550:	e7ee      	b.n	10009530 <tud_control_xfer+0x50>
10009552:	2300      	movs	r3, #0
10009554:	56e3      	ldrsb	r3, [r4, r3]
10009556:	2b00      	cmp	r3, #0
10009558:	db0d      	blt.n	10009576 <tud_control_xfer+0x96>
1000955a:	2180      	movs	r1, #128	; 0x80
1000955c:	2300      	movs	r3, #0
1000955e:	2200      	movs	r2, #0
10009560:	4640      	mov	r0, r8
10009562:	f7ff fbff 	bl	10008d64 <usbd_edpt_xfer>
10009566:	1e04      	subs	r4, r0, #0
10009568:	d1e2      	bne.n	10009530 <tud_control_xfer+0x50>
1000956a:	227e      	movs	r2, #126	; 0x7e
1000956c:	4904      	ldr	r1, [pc, #16]	; (10009580 <tud_control_xfer+0xa0>)
1000956e:	4805      	ldr	r0, [pc, #20]	; (10009584 <tud_control_xfer+0xa4>)
10009570:	f7fe f93e 	bl	100077f0 <__wrap_printf>
10009574:	e7dc      	b.n	10009530 <tud_control_xfer+0x50>
10009576:	2100      	movs	r1, #0
10009578:	e7f0      	b.n	1000955c <tud_control_xfer+0x7c>
1000957a:	46c0      	nop			; (mov r8, r8)
1000957c:	20000958 	.word	0x20000958
10009580:	1000c538 	.word	0x1000c538
10009584:	1000c3d0 	.word	0x1000c3d0

10009588 <usbd_control_reset>:
10009588:	b510      	push	{r4, lr}
1000958a:	2214      	movs	r2, #20
1000958c:	2100      	movs	r1, #0
1000958e:	4802      	ldr	r0, [pc, #8]	; (10009598 <usbd_control_reset+0x10>)
10009590:	f7fd ffe4 	bl	1000755c <__wrap_memset>
10009594:	bd10      	pop	{r4, pc}
10009596:	46c0      	nop			; (mov r8, r8)
10009598:	20000958 	.word	0x20000958

1000959c <usbd_control_set_complete_callback>:
1000959c:	4b01      	ldr	r3, [pc, #4]	; (100095a4 <usbd_control_set_complete_callback+0x8>)
1000959e:	6118      	str	r0, [r3, #16]
100095a0:	4770      	bx	lr
100095a2:	46c0      	nop			; (mov r8, r8)
100095a4:	20000958 	.word	0x20000958

100095a8 <usbd_control_set_request>:
100095a8:	b510      	push	{r4, lr}
100095aa:	0001      	movs	r1, r0
100095ac:	4c04      	ldr	r4, [pc, #16]	; (100095c0 <usbd_control_set_request+0x18>)
100095ae:	2208      	movs	r2, #8
100095b0:	0020      	movs	r0, r4
100095b2:	f7fd ffd9 	bl	10007568 <__wrap___aeabi_memcpy>
100095b6:	2300      	movs	r3, #0
100095b8:	60a3      	str	r3, [r4, #8]
100095ba:	81e3      	strh	r3, [r4, #14]
100095bc:	81a3      	strh	r3, [r4, #12]
100095be:	bd10      	pop	{r4, pc}
100095c0:	20000958 	.word	0x20000958

100095c4 <usbd_control_xfer_cb>:
100095c4:	b570      	push	{r4, r5, r6, lr}
100095c6:	0005      	movs	r5, r0
100095c8:	001c      	movs	r4, r3
100095ca:	09c9      	lsrs	r1, r1, #7
100095cc:	4b37      	ldr	r3, [pc, #220]	; (100096ac <usbd_control_xfer_cb+0xe8>)
100095ce:	781b      	ldrb	r3, [r3, #0]
100095d0:	09db      	lsrs	r3, r3, #7
100095d2:	428b      	cmp	r3, r1
100095d4:	d019      	beq.n	1000960a <usbd_control_xfer_cb+0x46>
100095d6:	2c00      	cmp	r4, #0
100095d8:	d110      	bne.n	100095fc <usbd_control_xfer_cb+0x38>
100095da:	4b35      	ldr	r3, [pc, #212]	; (100096b0 <usbd_control_xfer_cb+0xec>)
100095dc:	2b00      	cmp	r3, #0
100095de:	d002      	beq.n	100095e6 <usbd_control_xfer_cb+0x22>
100095e0:	4932      	ldr	r1, [pc, #200]	; (100096ac <usbd_control_xfer_cb+0xe8>)
100095e2:	f7fe fd93 	bl	1000810c <dcd_edpt0_status_complete>
100095e6:	4b31      	ldr	r3, [pc, #196]	; (100096ac <usbd_control_xfer_cb+0xe8>)
100095e8:	691b      	ldr	r3, [r3, #16]
100095ea:	2b00      	cmp	r3, #0
100095ec:	d003      	beq.n	100095f6 <usbd_control_xfer_cb+0x32>
100095ee:	4a2f      	ldr	r2, [pc, #188]	; (100096ac <usbd_control_xfer_cb+0xe8>)
100095f0:	2102      	movs	r1, #2
100095f2:	0028      	movs	r0, r5
100095f4:	4798      	blx	r3
100095f6:	2401      	movs	r4, #1
100095f8:	0020      	movs	r0, r4
100095fa:	bd70      	pop	{r4, r5, r6, pc}
100095fc:	22ab      	movs	r2, #171	; 0xab
100095fe:	492d      	ldr	r1, [pc, #180]	; (100096b4 <usbd_control_xfer_cb+0xf0>)
10009600:	482d      	ldr	r0, [pc, #180]	; (100096b8 <usbd_control_xfer_cb+0xf4>)
10009602:	f7fe f8f5 	bl	100077f0 <__wrap_printf>
10009606:	2400      	movs	r4, #0
10009608:	e7f6      	b.n	100095f8 <usbd_control_xfer_cb+0x34>
1000960a:	4b28      	ldr	r3, [pc, #160]	; (100096ac <usbd_control_xfer_cb+0xe8>)
1000960c:	781b      	ldrb	r3, [r3, #0]
1000960e:	b25b      	sxtb	r3, r3
10009610:	2b00      	cmp	r3, #0
10009612:	db07      	blt.n	10009624 <usbd_control_xfer_cb+0x60>
10009614:	4b25      	ldr	r3, [pc, #148]	; (100096ac <usbd_control_xfer_cb+0xe8>)
10009616:	6898      	ldr	r0, [r3, #8]
10009618:	2800      	cmp	r0, #0
1000961a:	d044      	beq.n	100096a6 <usbd_control_xfer_cb+0xe2>
1000961c:	0022      	movs	r2, r4
1000961e:	4927      	ldr	r1, [pc, #156]	; (100096bc <usbd_control_xfer_cb+0xf8>)
10009620:	f7fd ffa2 	bl	10007568 <__wrap___aeabi_memcpy>
10009624:	4a21      	ldr	r2, [pc, #132]	; (100096ac <usbd_control_xfer_cb+0xe8>)
10009626:	89d3      	ldrh	r3, [r2, #14]
10009628:	191b      	adds	r3, r3, r4
1000962a:	b29b      	uxth	r3, r3
1000962c:	81d3      	strh	r3, [r2, #14]
1000962e:	6891      	ldr	r1, [r2, #8]
10009630:	1909      	adds	r1, r1, r4
10009632:	6091      	str	r1, [r2, #8]
10009634:	88d2      	ldrh	r2, [r2, #6]
10009636:	4293      	cmp	r3, r2
10009638:	d001      	beq.n	1000963e <usbd_control_xfer_cb+0x7a>
1000963a:	2c3f      	cmp	r4, #63	; 0x3f
1000963c:	d828      	bhi.n	10009690 <usbd_control_xfer_cb+0xcc>
1000963e:	4b1b      	ldr	r3, [pc, #108]	; (100096ac <usbd_control_xfer_cb+0xe8>)
10009640:	691b      	ldr	r3, [r3, #16]
10009642:	2b00      	cmp	r3, #0
10009644:	d005      	beq.n	10009652 <usbd_control_xfer_cb+0x8e>
10009646:	4a19      	ldr	r2, [pc, #100]	; (100096ac <usbd_control_xfer_cb+0xe8>)
10009648:	2101      	movs	r1, #1
1000964a:	0028      	movs	r0, r5
1000964c:	4798      	blx	r3
1000964e:	2800      	cmp	r0, #0
10009650:	d014      	beq.n	1000967c <usbd_control_xfer_cb+0xb8>
10009652:	4b16      	ldr	r3, [pc, #88]	; (100096ac <usbd_control_xfer_cb+0xe8>)
10009654:	781b      	ldrb	r3, [r3, #0]
10009656:	b25b      	sxtb	r3, r3
10009658:	2b00      	cmp	r3, #0
1000965a:	db0d      	blt.n	10009678 <usbd_control_xfer_cb+0xb4>
1000965c:	2180      	movs	r1, #128	; 0x80
1000965e:	2300      	movs	r3, #0
10009660:	2200      	movs	r2, #0
10009662:	0028      	movs	r0, r5
10009664:	f7ff fb7e 	bl	10008d64 <usbd_edpt_xfer>
10009668:	1e04      	subs	r4, r0, #0
1000966a:	d1c5      	bne.n	100095f8 <usbd_control_xfer_cb+0x34>
1000966c:	22d8      	movs	r2, #216	; 0xd8
1000966e:	4911      	ldr	r1, [pc, #68]	; (100096b4 <usbd_control_xfer_cb+0xf0>)
10009670:	4811      	ldr	r0, [pc, #68]	; (100096b8 <usbd_control_xfer_cb+0xf4>)
10009672:	f7fe f8bd 	bl	100077f0 <__wrap_printf>
10009676:	e7bf      	b.n	100095f8 <usbd_control_xfer_cb+0x34>
10009678:	2100      	movs	r1, #0
1000967a:	e7f0      	b.n	1000965e <usbd_control_xfer_cb+0x9a>
1000967c:	2100      	movs	r1, #0
1000967e:	0028      	movs	r0, r5
10009680:	f7fe fd8e 	bl	100081a0 <dcd_edpt_stall>
10009684:	2180      	movs	r1, #128	; 0x80
10009686:	0028      	movs	r0, r5
10009688:	f7fe fd8a 	bl	100081a0 <dcd_edpt_stall>
1000968c:	2401      	movs	r4, #1
1000968e:	e7b3      	b.n	100095f8 <usbd_control_xfer_cb+0x34>
10009690:	0028      	movs	r0, r5
10009692:	f7ff fedd 	bl	10009450 <_data_stage_xact>
10009696:	1e04      	subs	r4, r0, #0
10009698:	d1ae      	bne.n	100095f8 <usbd_control_xfer_cb+0x34>
1000969a:	22e3      	movs	r2, #227	; 0xe3
1000969c:	4905      	ldr	r1, [pc, #20]	; (100096b4 <usbd_control_xfer_cb+0xf0>)
1000969e:	4806      	ldr	r0, [pc, #24]	; (100096b8 <usbd_control_xfer_cb+0xf4>)
100096a0:	f7fe f8a6 	bl	100077f0 <__wrap_printf>
100096a4:	e7a8      	b.n	100095f8 <usbd_control_xfer_cb+0x34>
100096a6:	2400      	movs	r4, #0
100096a8:	e7a6      	b.n	100095f8 <usbd_control_xfer_cb+0x34>
100096aa:	46c0      	nop			; (mov r8, r8)
100096ac:	20000958 	.word	0x20000958
100096b0:	1000810d 	.word	0x1000810d
100096b4:	1000c520 	.word	0x1000c520
100096b8:	1000c3d0 	.word	0x1000c3d0
100096bc:	20000974 	.word	0x20000974

100096c0 <_prep_out_transaction>:
100096c0:	b570      	push	{r4, r5, r6, lr}
100096c2:	0004      	movs	r4, r0
100096c4:	0005      	movs	r5, r0
100096c6:	3510      	adds	r5, #16
100096c8:	0028      	movs	r0, r5
100096ca:	f000 fe3e 	bl	1000a34a <tu_fifo_remaining>
100096ce:	283f      	cmp	r0, #63	; 0x3f
100096d0:	d800      	bhi.n	100096d4 <_prep_out_transaction+0x14>
100096d2:	bd70      	pop	{r4, r5, r6, pc}
100096d4:	78e1      	ldrb	r1, [r4, #3]
100096d6:	2000      	movs	r0, #0
100096d8:	f7ff faca 	bl	10008c70 <usbd_edpt_claim>
100096dc:	2800      	cmp	r0, #0
100096de:	d0f8      	beq.n	100096d2 <_prep_out_transaction+0x12>
100096e0:	0028      	movs	r0, r5
100096e2:	f000 fe32 	bl	1000a34a <tu_fifo_remaining>
100096e6:	283f      	cmp	r0, #63	; 0x3f
100096e8:	d908      	bls.n	100096fc <_prep_out_transaction+0x3c>
100096ea:	2396      	movs	r3, #150	; 0x96
100096ec:	009b      	lsls	r3, r3, #2
100096ee:	18e2      	adds	r2, r4, r3
100096f0:	78e1      	ldrb	r1, [r4, #3]
100096f2:	2340      	movs	r3, #64	; 0x40
100096f4:	2000      	movs	r0, #0
100096f6:	f7ff fb35 	bl	10008d64 <usbd_edpt_xfer>
100096fa:	e7ea      	b.n	100096d2 <_prep_out_transaction+0x12>
100096fc:	78e1      	ldrb	r1, [r4, #3]
100096fe:	2000      	movs	r0, #0
10009700:	f7ff fafc 	bl	10008cfc <usbd_edpt_release>
10009704:	e7e5      	b.n	100096d2 <_prep_out_transaction+0x12>
	...

10009708 <tud_cdc_n_connected>:
10009708:	b510      	push	{r4, lr}
1000970a:	0004      	movs	r4, r0
1000970c:	f7ff f86e 	bl	100087ec <tud_mounted>
10009710:	2800      	cmp	r0, #0
10009712:	d10c      	bne.n	1000972e <tud_cdc_n_connected+0x26>
10009714:	2200      	movs	r2, #0
10009716:	2a00      	cmp	r2, #0
10009718:	d011      	beq.n	1000973e <tud_cdc_n_connected+0x36>
1000971a:	23b6      	movs	r3, #182	; 0xb6
1000971c:	009b      	lsls	r3, r3, #2
1000971e:	4363      	muls	r3, r4
10009720:	4809      	ldr	r0, [pc, #36]	; (10009748 <tud_cdc_n_connected+0x40>)
10009722:	18c0      	adds	r0, r0, r3
10009724:	7903      	ldrb	r3, [r0, #4]
10009726:	07db      	lsls	r3, r3, #31
10009728:	d50b      	bpl.n	10009742 <tud_cdc_n_connected+0x3a>
1000972a:	2001      	movs	r0, #1
1000972c:	e008      	b.n	10009740 <tud_cdc_n_connected+0x38>
1000972e:	f7ff f865 	bl	100087fc <tud_suspended>
10009732:	2800      	cmp	r0, #0
10009734:	d101      	bne.n	1000973a <tud_cdc_n_connected+0x32>
10009736:	2201      	movs	r2, #1
10009738:	e7ed      	b.n	10009716 <tud_cdc_n_connected+0xe>
1000973a:	2200      	movs	r2, #0
1000973c:	e7eb      	b.n	10009716 <tud_cdc_n_connected+0xe>
1000973e:	2000      	movs	r0, #0
10009740:	bd10      	pop	{r4, pc}
10009742:	2000      	movs	r0, #0
10009744:	e7fc      	b.n	10009740 <tud_cdc_n_connected+0x38>
10009746:	46c0      	nop			; (mov r8, r8)
10009748:	20000680 	.word	0x20000680

1000974c <tud_cdc_n_available>:
1000974c:	b510      	push	{r4, lr}
1000974e:	23b6      	movs	r3, #182	; 0xb6
10009750:	009b      	lsls	r3, r3, #2
10009752:	4358      	muls	r0, r3
10009754:	3010      	adds	r0, #16
10009756:	4b02      	ldr	r3, [pc, #8]	; (10009760 <tud_cdc_n_available+0x14>)
10009758:	18c0      	adds	r0, r0, r3
1000975a:	f000 fddb 	bl	1000a314 <tu_fifo_count>
1000975e:	bd10      	pop	{r4, pc}
10009760:	20000680 	.word	0x20000680

10009764 <tud_cdc_n_read>:
10009764:	b570      	push	{r4, r5, r6, lr}
10009766:	23b6      	movs	r3, #182	; 0xb6
10009768:	009b      	lsls	r3, r3, #2
1000976a:	4358      	muls	r0, r3
1000976c:	4b06      	ldr	r3, [pc, #24]	; (10009788 <tud_cdc_n_read+0x24>)
1000976e:	18c5      	adds	r5, r0, r3
10009770:	b292      	uxth	r2, r2
10009772:	3010      	adds	r0, #16
10009774:	18c0      	adds	r0, r0, r3
10009776:	f000 fe19 	bl	1000a3ac <tu_fifo_read_n>
1000977a:	0004      	movs	r4, r0
1000977c:	0028      	movs	r0, r5
1000977e:	f7ff ff9f 	bl	100096c0 <_prep_out_transaction>
10009782:	0020      	movs	r0, r4
10009784:	bd70      	pop	{r4, r5, r6, pc}
10009786:	46c0      	nop			; (mov r8, r8)
10009788:	20000680 	.word	0x20000680

1000978c <tud_cdc_n_write_flush>:
1000978c:	b570      	push	{r4, r5, r6, lr}
1000978e:	0005      	movs	r5, r0
10009790:	f7ff f82c 	bl	100087ec <tud_mounted>
10009794:	2800      	cmp	r0, #0
10009796:	d104      	bne.n	100097a2 <tud_cdc_n_write_flush+0x16>
10009798:	2300      	movs	r3, #0
1000979a:	2b00      	cmp	r3, #0
1000979c:	d109      	bne.n	100097b2 <tud_cdc_n_write_flush+0x26>
1000979e:	2000      	movs	r0, #0
100097a0:	bd70      	pop	{r4, r5, r6, pc}
100097a2:	f7ff f82b 	bl	100087fc <tud_suspended>
100097a6:	2800      	cmp	r0, #0
100097a8:	d101      	bne.n	100097ae <tud_cdc_n_write_flush+0x22>
100097aa:	2301      	movs	r3, #1
100097ac:	e7f5      	b.n	1000979a <tud_cdc_n_write_flush+0xe>
100097ae:	2300      	movs	r3, #0
100097b0:	e7f3      	b.n	1000979a <tud_cdc_n_write_flush+0xe>
100097b2:	24b6      	movs	r4, #182	; 0xb6
100097b4:	00a4      	lsls	r4, r4, #2
100097b6:	436c      	muls	r4, r5
100097b8:	3428      	adds	r4, #40	; 0x28
100097ba:	4b24      	ldr	r3, [pc, #144]	; (1000984c <tud_cdc_n_write_flush+0xc0>)
100097bc:	18e4      	adds	r4, r4, r3
100097be:	3404      	adds	r4, #4
100097c0:	0020      	movs	r0, r4
100097c2:	f000 fda7 	bl	1000a314 <tu_fifo_count>
100097c6:	2800      	cmp	r0, #0
100097c8:	d101      	bne.n	100097ce <tud_cdc_n_write_flush+0x42>
100097ca:	2000      	movs	r0, #0
100097cc:	e7e8      	b.n	100097a0 <tud_cdc_n_write_flush+0x14>
100097ce:	22b6      	movs	r2, #182	; 0xb6
100097d0:	0092      	lsls	r2, r2, #2
100097d2:	436a      	muls	r2, r5
100097d4:	4b1d      	ldr	r3, [pc, #116]	; (1000984c <tud_cdc_n_write_flush+0xc0>)
100097d6:	189b      	adds	r3, r3, r2
100097d8:	7899      	ldrb	r1, [r3, #2]
100097da:	2000      	movs	r0, #0
100097dc:	f7ff fa48 	bl	10008c70 <usbd_edpt_claim>
100097e0:	2800      	cmp	r0, #0
100097e2:	d101      	bne.n	100097e8 <tud_cdc_n_write_flush+0x5c>
100097e4:	2000      	movs	r0, #0
100097e6:	e7db      	b.n	100097a0 <tud_cdc_n_write_flush+0x14>
100097e8:	26b6      	movs	r6, #182	; 0xb6
100097ea:	00b6      	lsls	r6, r6, #2
100097ec:	436e      	muls	r6, r5
100097ee:	23a6      	movs	r3, #166	; 0xa6
100097f0:	009b      	lsls	r3, r3, #2
100097f2:	469c      	mov	ip, r3
100097f4:	4466      	add	r6, ip
100097f6:	4b15      	ldr	r3, [pc, #84]	; (1000984c <tud_cdc_n_write_flush+0xc0>)
100097f8:	18f6      	adds	r6, r6, r3
100097fa:	2240      	movs	r2, #64	; 0x40
100097fc:	0031      	movs	r1, r6
100097fe:	0020      	movs	r0, r4
10009800:	f000 fdd4 	bl	1000a3ac <tu_fifo_read_n>
10009804:	1e04      	subs	r4, r0, #0
10009806:	d015      	beq.n	10009834 <tud_cdc_n_write_flush+0xa8>
10009808:	20b6      	movs	r0, #182	; 0xb6
1000980a:	0080      	lsls	r0, r0, #2
1000980c:	4368      	muls	r0, r5
1000980e:	4d0f      	ldr	r5, [pc, #60]	; (1000984c <tud_cdc_n_write_flush+0xc0>)
10009810:	182d      	adds	r5, r5, r0
10009812:	78a9      	ldrb	r1, [r5, #2]
10009814:	0023      	movs	r3, r4
10009816:	0032      	movs	r2, r6
10009818:	2000      	movs	r0, #0
1000981a:	f7ff faa3 	bl	10008d64 <usbd_edpt_xfer>
1000981e:	2800      	cmp	r0, #0
10009820:	d001      	beq.n	10009826 <tud_cdc_n_write_flush+0x9a>
10009822:	0020      	movs	r0, r4
10009824:	e7bc      	b.n	100097a0 <tud_cdc_n_write_flush+0x14>
10009826:	22c8      	movs	r2, #200	; 0xc8
10009828:	4909      	ldr	r1, [pc, #36]	; (10009850 <tud_cdc_n_write_flush+0xc4>)
1000982a:	480a      	ldr	r0, [pc, #40]	; (10009854 <tud_cdc_n_write_flush+0xc8>)
1000982c:	f7fd ffe0 	bl	100077f0 <__wrap_printf>
10009830:	2000      	movs	r0, #0
10009832:	e7b5      	b.n	100097a0 <tud_cdc_n_write_flush+0x14>
10009834:	20b6      	movs	r0, #182	; 0xb6
10009836:	0080      	lsls	r0, r0, #2
10009838:	4368      	muls	r0, r5
1000983a:	4d04      	ldr	r5, [pc, #16]	; (1000984c <tud_cdc_n_write_flush+0xc0>)
1000983c:	182d      	adds	r5, r5, r0
1000983e:	78a9      	ldrb	r1, [r5, #2]
10009840:	2000      	movs	r0, #0
10009842:	f7ff fa5b 	bl	10008cfc <usbd_edpt_release>
10009846:	2000      	movs	r0, #0
10009848:	e7aa      	b.n	100097a0 <tud_cdc_n_write_flush+0x14>
1000984a:	46c0      	nop			; (mov r8, r8)
1000984c:	20000680 	.word	0x20000680
10009850:	1000c568 	.word	0x1000c568
10009854:	1000c3d0 	.word	0x1000c3d0

10009858 <tud_cdc_n_write>:
10009858:	b570      	push	{r4, r5, r6, lr}
1000985a:	0005      	movs	r5, r0
1000985c:	24b6      	movs	r4, #182	; 0xb6
1000985e:	00a4      	lsls	r4, r4, #2
10009860:	4344      	muls	r4, r0
10009862:	3428      	adds	r4, #40	; 0x28
10009864:	4b09      	ldr	r3, [pc, #36]	; (1000988c <tud_cdc_n_write+0x34>)
10009866:	18e4      	adds	r4, r4, r3
10009868:	3404      	adds	r4, #4
1000986a:	b292      	uxth	r2, r2
1000986c:	0020      	movs	r0, r4
1000986e:	f000 fdd8 	bl	1000a422 <tu_fifo_write_n>
10009872:	0006      	movs	r6, r0
10009874:	0020      	movs	r0, r4
10009876:	f000 fd4d 	bl	1000a314 <tu_fifo_count>
1000987a:	283f      	cmp	r0, #63	; 0x3f
1000987c:	d801      	bhi.n	10009882 <tud_cdc_n_write+0x2a>
1000987e:	0030      	movs	r0, r6
10009880:	bd70      	pop	{r4, r5, r6, pc}
10009882:	0028      	movs	r0, r5
10009884:	f7ff ff82 	bl	1000978c <tud_cdc_n_write_flush>
10009888:	e7f9      	b.n	1000987e <tud_cdc_n_write+0x26>
1000988a:	46c0      	nop			; (mov r8, r8)
1000988c:	20000680 	.word	0x20000680

10009890 <tud_cdc_n_write_available>:
10009890:	b510      	push	{r4, lr}
10009892:	23b6      	movs	r3, #182	; 0xb6
10009894:	009b      	lsls	r3, r3, #2
10009896:	4358      	muls	r0, r3
10009898:	3028      	adds	r0, #40	; 0x28
1000989a:	4b03      	ldr	r3, [pc, #12]	; (100098a8 <tud_cdc_n_write_available+0x18>)
1000989c:	18c0      	adds	r0, r0, r3
1000989e:	3004      	adds	r0, #4
100098a0:	f000 fd53 	bl	1000a34a <tu_fifo_remaining>
100098a4:	bd10      	pop	{r4, pc}
100098a6:	46c0      	nop			; (mov r8, r8)
100098a8:	20000680 	.word	0x20000680

100098ac <cdcd_init>:
100098ac:	b5f0      	push	{r4, r5, r6, r7, lr}
100098ae:	46ce      	mov	lr, r9
100098b0:	4647      	mov	r7, r8
100098b2:	b580      	push	{r7, lr}
100098b4:	b083      	sub	sp, #12
100098b6:	22b6      	movs	r2, #182	; 0xb6
100098b8:	0092      	lsls	r2, r2, #2
100098ba:	2100      	movs	r1, #0
100098bc:	4828      	ldr	r0, [pc, #160]	; (10009960 <cdcd_init+0xb4>)
100098be:	f7fd fe4d 	bl	1000755c <__wrap_memset>
100098c2:	2600      	movs	r6, #0
100098c4:	2e00      	cmp	r6, #0
100098c6:	d004      	beq.n	100098d2 <cdcd_init+0x26>
100098c8:	b003      	add	sp, #12
100098ca:	bcc0      	pop	{r6, r7}
100098cc:	46b9      	mov	r9, r7
100098ce:	46b0      	mov	r8, r6
100098d0:	bdf0      	pop	{r4, r5, r6, r7, pc}
100098d2:	4f23      	ldr	r7, [pc, #140]	; (10009960 <cdcd_init+0xb4>)
100098d4:	24b6      	movs	r4, #182	; 0xb6
100098d6:	00a4      	lsls	r4, r4, #2
100098d8:	4374      	muls	r4, r6
100098da:	193d      	adds	r5, r7, r4
100098dc:	23ff      	movs	r3, #255	; 0xff
100098de:	716b      	strb	r3, [r5, #5]
100098e0:	2300      	movs	r3, #0
100098e2:	4698      	mov	r8, r3
100098e4:	4a1f      	ldr	r2, [pc, #124]	; (10009964 <cdcd_init+0xb8>)
100098e6:	80ea      	strh	r2, [r5, #6]
100098e8:	2201      	movs	r2, #1
100098ea:	812a      	strh	r2, [r5, #8]
100098ec:	72ab      	strb	r3, [r5, #10]
100098ee:	72eb      	strb	r3, [r5, #11]
100098f0:	2308      	movs	r3, #8
100098f2:	732b      	strb	r3, [r5, #12]
100098f4:	0021      	movs	r1, r4
100098f6:	3148      	adds	r1, #72	; 0x48
100098f8:	19c9      	adds	r1, r1, r7
100098fa:	33f8      	adds	r3, #248	; 0xf8
100098fc:	4699      	mov	r9, r3
100098fe:	0020      	movs	r0, r4
10009900:	3010      	adds	r0, #16
10009902:	19c0      	adds	r0, r0, r7
10009904:	4643      	mov	r3, r8
10009906:	9300      	str	r3, [sp, #0]
10009908:	3301      	adds	r3, #1
1000990a:	464a      	mov	r2, r9
1000990c:	f000 fcc9 	bl	1000a2a2 <tu_fifo_config>
10009910:	0021      	movs	r1, r4
10009912:	3149      	adds	r1, #73	; 0x49
10009914:	31ff      	adds	r1, #255	; 0xff
10009916:	19c9      	adds	r1, r1, r7
10009918:	0020      	movs	r0, r4
1000991a:	3028      	adds	r0, #40	; 0x28
1000991c:	19c0      	adds	r0, r0, r7
1000991e:	3004      	adds	r0, #4
10009920:	2301      	movs	r3, #1
10009922:	9300      	str	r3, [sp, #0]
10009924:	464a      	mov	r2, r9
10009926:	f000 fcbc 	bl	1000a2a2 <tu_fifo_config>
1000992a:	2392      	movs	r3, #146	; 0x92
1000992c:	009b      	lsls	r3, r3, #2
1000992e:	18e3      	adds	r3, r4, r3
10009930:	4699      	mov	r9, r3
10009932:	44b9      	add	r9, r7
10009934:	4648      	mov	r0, r9
10009936:	f7fa fd2b 	bl	10004390 <mutex_init>
1000993a:	4643      	mov	r3, r8
1000993c:	626b      	str	r3, [r5, #36]	; 0x24
1000993e:	464b      	mov	r3, r9
10009940:	62ab      	str	r3, [r5, #40]	; 0x28
10009942:	2394      	movs	r3, #148	; 0x94
10009944:	009b      	lsls	r3, r3, #2
10009946:	469c      	mov	ip, r3
10009948:	4464      	add	r4, ip
1000994a:	19e4      	adds	r4, r4, r7
1000994c:	0020      	movs	r0, r4
1000994e:	f7fa fd1f 	bl	10004390 <mutex_init>
10009952:	642c      	str	r4, [r5, #64]	; 0x40
10009954:	4643      	mov	r3, r8
10009956:	646b      	str	r3, [r5, #68]	; 0x44
10009958:	3601      	adds	r6, #1
1000995a:	b2f6      	uxtb	r6, r6
1000995c:	e7b2      	b.n	100098c4 <cdcd_init+0x18>
1000995e:	46c0      	nop			; (mov r8, r8)
10009960:	20000680 	.word	0x20000680
10009964:	ffffc200 	.word	0xffffc200

10009968 <cdcd_reset>:
10009968:	b570      	push	{r4, r5, r6, lr}
1000996a:	2500      	movs	r5, #0
1000996c:	2d00      	cmp	r5, #0
1000996e:	d000      	beq.n	10009972 <cdcd_reset+0xa>
10009970:	bd70      	pop	{r4, r5, r6, pc}
10009972:	24b6      	movs	r4, #182	; 0xb6
10009974:	00a4      	lsls	r4, r4, #2
10009976:	436c      	muls	r4, r5
10009978:	4e0b      	ldr	r6, [pc, #44]	; (100099a8 <cdcd_reset+0x40>)
1000997a:	19a0      	adds	r0, r4, r6
1000997c:	2205      	movs	r2, #5
1000997e:	2100      	movs	r1, #0
10009980:	f7fd fdec 	bl	1000755c <__wrap_memset>
10009984:	0020      	movs	r0, r4
10009986:	3010      	adds	r0, #16
10009988:	1980      	adds	r0, r0, r6
1000998a:	f000 fd4f 	bl	1000a42c <tu_fifo_clear>
1000998e:	3428      	adds	r4, #40	; 0x28
10009990:	19a4      	adds	r4, r4, r6
10009992:	3404      	adds	r4, #4
10009994:	0020      	movs	r0, r4
10009996:	f000 fd49 	bl	1000a42c <tu_fifo_clear>
1000999a:	2101      	movs	r1, #1
1000999c:	0020      	movs	r0, r4
1000999e:	f000 fd6b 	bl	1000a478 <tu_fifo_set_overwritable>
100099a2:	3501      	adds	r5, #1
100099a4:	b2ed      	uxtb	r5, r5
100099a6:	e7e1      	b.n	1000996c <cdcd_reset+0x4>
100099a8:	20000680 	.word	0x20000680

100099ac <cdcd_open>:
100099ac:	b5f0      	push	{r4, r5, r6, r7, lr}
100099ae:	b083      	sub	sp, #12
100099b0:	0006      	movs	r6, r0
100099b2:	794b      	ldrb	r3, [r1, #5]
100099b4:	2b02      	cmp	r3, #2
100099b6:	d168      	bne.n	10009a8a <cdcd_open+0xde>
100099b8:	798b      	ldrb	r3, [r1, #6]
100099ba:	2b02      	cmp	r3, #2
100099bc:	d169      	bne.n	10009a92 <cdcd_open+0xe6>
100099be:	2300      	movs	r3, #0
100099c0:	2b00      	cmp	r3, #0
100099c2:	d008      	beq.n	100099d6 <cdcd_open+0x2a>
100099c4:	2700      	movs	r7, #0
100099c6:	2f00      	cmp	r7, #0
100099c8:	d013      	beq.n	100099f2 <cdcd_open+0x46>
100099ca:	788b      	ldrb	r3, [r1, #2]
100099cc:	703b      	strb	r3, [r7, #0]
100099ce:	780c      	ldrb	r4, [r1, #0]
100099d0:	190c      	adds	r4, r1, r4
100099d2:	2509      	movs	r5, #9
100099d4:	e019      	b.n	10009a0a <cdcd_open+0x5e>
100099d6:	24b6      	movs	r4, #182	; 0xb6
100099d8:	00a4      	lsls	r4, r4, #2
100099da:	435c      	muls	r4, r3
100099dc:	482e      	ldr	r0, [pc, #184]	; (10009a98 <cdcd_open+0xec>)
100099de:	1900      	adds	r0, r0, r4
100099e0:	7880      	ldrb	r0, [r0, #2]
100099e2:	2800      	cmp	r0, #0
100099e4:	d002      	beq.n	100099ec <cdcd_open+0x40>
100099e6:	3301      	adds	r3, #1
100099e8:	b2db      	uxtb	r3, r3
100099ea:	e7e9      	b.n	100099c0 <cdcd_open+0x14>
100099ec:	4f2a      	ldr	r7, [pc, #168]	; (10009a98 <cdcd_open+0xec>)
100099ee:	19e7      	adds	r7, r4, r7
100099f0:	e7e9      	b.n	100099c6 <cdcd_open+0x1a>
100099f2:	228f      	movs	r2, #143	; 0x8f
100099f4:	0052      	lsls	r2, r2, #1
100099f6:	4929      	ldr	r1, [pc, #164]	; (10009a9c <cdcd_open+0xf0>)
100099f8:	4829      	ldr	r0, [pc, #164]	; (10009aa0 <cdcd_open+0xf4>)
100099fa:	f7fd fef9 	bl	100077f0 <__wrap_printf>
100099fe:	2500      	movs	r5, #0
10009a00:	e044      	b.n	10009a8c <cdcd_open+0xe0>
10009a02:	7821      	ldrb	r1, [r4, #0]
10009a04:	194d      	adds	r5, r1, r5
10009a06:	b2ad      	uxth	r5, r5
10009a08:	1864      	adds	r4, r4, r1
10009a0a:	7863      	ldrb	r3, [r4, #1]
10009a0c:	2b24      	cmp	r3, #36	; 0x24
10009a0e:	d101      	bne.n	10009a14 <cdcd_open+0x68>
10009a10:	4295      	cmp	r5, r2
10009a12:	d9f6      	bls.n	10009a02 <cdcd_open+0x56>
10009a14:	2b05      	cmp	r3, #5
10009a16:	d009      	beq.n	10009a2c <cdcd_open+0x80>
10009a18:	7863      	ldrb	r3, [r4, #1]
10009a1a:	2b04      	cmp	r3, #4
10009a1c:	d102      	bne.n	10009a24 <cdcd_open+0x78>
10009a1e:	7963      	ldrb	r3, [r4, #5]
10009a20:	2b0a      	cmp	r3, #10
10009a22:	d018      	beq.n	10009a56 <cdcd_open+0xaa>
10009a24:	0038      	movs	r0, r7
10009a26:	f7ff fe4b 	bl	100096c0 <_prep_out_transaction>
10009a2a:	e02f      	b.n	10009a8c <cdcd_open+0xe0>
10009a2c:	0021      	movs	r1, r4
10009a2e:	0030      	movs	r0, r6
10009a30:	f7ff f8ac 	bl	10008b8c <usbd_edpt_open>
10009a34:	2800      	cmp	r0, #0
10009a36:	d006      	beq.n	10009a46 <cdcd_open+0x9a>
10009a38:	78a3      	ldrb	r3, [r4, #2]
10009a3a:	707b      	strb	r3, [r7, #1]
10009a3c:	7822      	ldrb	r2, [r4, #0]
10009a3e:	1955      	adds	r5, r2, r5
10009a40:	b2ad      	uxth	r5, r5
10009a42:	18a4      	adds	r4, r4, r2
10009a44:	e7e8      	b.n	10009a18 <cdcd_open+0x6c>
10009a46:	2299      	movs	r2, #153	; 0x99
10009a48:	0052      	lsls	r2, r2, #1
10009a4a:	4914      	ldr	r1, [pc, #80]	; (10009a9c <cdcd_open+0xf0>)
10009a4c:	4814      	ldr	r0, [pc, #80]	; (10009aa0 <cdcd_open+0xf4>)
10009a4e:	f7fd fecf 	bl	100077f0 <__wrap_printf>
10009a52:	2500      	movs	r5, #0
10009a54:	e01a      	b.n	10009a8c <cdcd_open+0xe0>
10009a56:	7821      	ldrb	r1, [r4, #0]
10009a58:	194d      	adds	r5, r1, r5
10009a5a:	b2ad      	uxth	r5, r5
10009a5c:	1861      	adds	r1, r4, r1
10009a5e:	1cbb      	adds	r3, r7, #2
10009a60:	9301      	str	r3, [sp, #4]
10009a62:	1cfb      	adds	r3, r7, #3
10009a64:	9300      	str	r3, [sp, #0]
10009a66:	2302      	movs	r3, #2
10009a68:	2202      	movs	r2, #2
10009a6a:	0030      	movs	r0, r6
10009a6c:	f7ff f8ba 	bl	10008be4 <usbd_open_edpt_pair>
10009a70:	2800      	cmp	r0, #0
10009a72:	d002      	beq.n	10009a7a <cdcd_open+0xce>
10009a74:	350e      	adds	r5, #14
10009a76:	b2ad      	uxth	r5, r5
10009a78:	e7d4      	b.n	10009a24 <cdcd_open+0x78>
10009a7a:	22a1      	movs	r2, #161	; 0xa1
10009a7c:	0052      	lsls	r2, r2, #1
10009a7e:	4907      	ldr	r1, [pc, #28]	; (10009a9c <cdcd_open+0xf0>)
10009a80:	4807      	ldr	r0, [pc, #28]	; (10009aa0 <cdcd_open+0xf4>)
10009a82:	f7fd feb5 	bl	100077f0 <__wrap_printf>
10009a86:	2500      	movs	r5, #0
10009a88:	e000      	b.n	10009a8c <cdcd_open+0xe0>
10009a8a:	2500      	movs	r5, #0
10009a8c:	0028      	movs	r0, r5
10009a8e:	b003      	add	sp, #12
10009a90:	bdf0      	pop	{r4, r5, r6, r7, pc}
10009a92:	2500      	movs	r5, #0
10009a94:	e7fa      	b.n	10009a8c <cdcd_open+0xe0>
10009a96:	46c0      	nop			; (mov r8, r8)
10009a98:	20000680 	.word	0x20000680
10009a9c:	1000c55c 	.word	0x1000c55c
10009aa0:	1000c3d0 	.word	0x1000c3d0

10009aa4 <cdcd_control_xfer_cb>:
10009aa4:	b5f8      	push	{r3, r4, r5, r6, r7, lr}
10009aa6:	0014      	movs	r4, r2
10009aa8:	7812      	ldrb	r2, [r2, #0]
10009aaa:	2360      	movs	r3, #96	; 0x60
10009aac:	4013      	ands	r3, r2
10009aae:	2b20      	cmp	r3, #32
10009ab0:	d000      	beq.n	10009ab4 <cdcd_control_xfer_cb+0x10>
10009ab2:	e07f      	b.n	10009bb4 <cdcd_control_xfer_cb+0x110>
10009ab4:	4a44      	ldr	r2, [pc, #272]	; (10009bc8 <cdcd_control_xfer_cb+0x124>)
10009ab6:	2500      	movs	r5, #0
10009ab8:	2d00      	cmp	r5, #0
10009aba:	d000      	beq.n	10009abe <cdcd_control_xfer_cb+0x1a>
10009abc:	e07c      	b.n	10009bb8 <cdcd_control_xfer_cb+0x114>
10009abe:	7816      	ldrb	r6, [r2, #0]
10009ac0:	7927      	ldrb	r7, [r4, #4]
10009ac2:	7963      	ldrb	r3, [r4, #5]
10009ac4:	021b      	lsls	r3, r3, #8
10009ac6:	433b      	orrs	r3, r7
10009ac8:	429e      	cmp	r6, r3
10009aca:	d006      	beq.n	10009ada <cdcd_control_xfer_cb+0x36>
10009acc:	3501      	adds	r5, #1
10009ace:	b2ed      	uxtb	r5, r5
10009ad0:	23b6      	movs	r3, #182	; 0xb6
10009ad2:	009b      	lsls	r3, r3, #2
10009ad4:	469c      	mov	ip, r3
10009ad6:	4462      	add	r2, ip
10009ad8:	e7ee      	b.n	10009ab8 <cdcd_control_xfer_cb+0x14>
10009ada:	7863      	ldrb	r3, [r4, #1]
10009adc:	2b22      	cmp	r3, #34	; 0x22
10009ade:	d031      	beq.n	10009b44 <cdcd_control_xfer_cb+0xa0>
10009ae0:	d809      	bhi.n	10009af6 <cdcd_control_xfer_cb+0x52>
10009ae2:	2b20      	cmp	r3, #32
10009ae4:	d011      	beq.n	10009b0a <cdcd_control_xfer_cb+0x66>
10009ae6:	2b21      	cmp	r3, #33	; 0x21
10009ae8:	d103      	bne.n	10009af2 <cdcd_control_xfer_cb+0x4e>
10009aea:	2900      	cmp	r1, #0
10009aec:	d023      	beq.n	10009b36 <cdcd_control_xfer_cb+0x92>
10009aee:	2001      	movs	r0, #1
10009af0:	e061      	b.n	10009bb6 <cdcd_control_xfer_cb+0x112>
10009af2:	2000      	movs	r0, #0
10009af4:	e05f      	b.n	10009bb6 <cdcd_control_xfer_cb+0x112>
10009af6:	2b23      	cmp	r3, #35	; 0x23
10009af8:	d105      	bne.n	10009b06 <cdcd_control_xfer_cb+0x62>
10009afa:	2900      	cmp	r1, #0
10009afc:	d049      	beq.n	10009b92 <cdcd_control_xfer_cb+0xee>
10009afe:	2902      	cmp	r1, #2
10009b00:	d04c      	beq.n	10009b9c <cdcd_control_xfer_cb+0xf8>
10009b02:	2001      	movs	r0, #1
10009b04:	e057      	b.n	10009bb6 <cdcd_control_xfer_cb+0x112>
10009b06:	2000      	movs	r0, #0
10009b08:	e055      	b.n	10009bb6 <cdcd_control_xfer_cb+0x112>
10009b0a:	2900      	cmp	r1, #0
10009b0c:	d003      	beq.n	10009b16 <cdcd_control_xfer_cb+0x72>
10009b0e:	2902      	cmp	r1, #2
10009b10:	d008      	beq.n	10009b24 <cdcd_control_xfer_cb+0x80>
10009b12:	2001      	movs	r0, #1
10009b14:	e04f      	b.n	10009bb6 <cdcd_control_xfer_cb+0x112>
10009b16:	3206      	adds	r2, #6
10009b18:	2307      	movs	r3, #7
10009b1a:	0021      	movs	r1, r4
10009b1c:	f7ff fce0 	bl	100094e0 <tud_control_xfer>
10009b20:	2001      	movs	r0, #1
10009b22:	e048      	b.n	10009bb6 <cdcd_control_xfer_cb+0x112>
10009b24:	4b29      	ldr	r3, [pc, #164]	; (10009bcc <cdcd_control_xfer_cb+0x128>)
10009b26:	2b00      	cmp	r3, #0
10009b28:	d048      	beq.n	10009bbc <cdcd_control_xfer_cb+0x118>
10009b2a:	1d91      	adds	r1, r2, #6
10009b2c:	0028      	movs	r0, r5
10009b2e:	f7fd ff6d 	bl	10007a0c <tud_cdc_line_coding_cb>
10009b32:	2001      	movs	r0, #1
10009b34:	e03f      	b.n	10009bb6 <cdcd_control_xfer_cb+0x112>
10009b36:	3206      	adds	r2, #6
10009b38:	2307      	movs	r3, #7
10009b3a:	0021      	movs	r1, r4
10009b3c:	f7ff fcd0 	bl	100094e0 <tud_control_xfer>
10009b40:	2001      	movs	r0, #1
10009b42:	e038      	b.n	10009bb6 <cdcd_control_xfer_cb+0x112>
10009b44:	2900      	cmp	r1, #0
10009b46:	d003      	beq.n	10009b50 <cdcd_control_xfer_cb+0xac>
10009b48:	2902      	cmp	r1, #2
10009b4a:	d006      	beq.n	10009b5a <cdcd_control_xfer_cb+0xb6>
10009b4c:	2001      	movs	r0, #1
10009b4e:	e032      	b.n	10009bb6 <cdcd_control_xfer_cb+0x112>
10009b50:	0021      	movs	r1, r4
10009b52:	f7ff fca9 	bl	100094a8 <tud_control_status>
10009b56:	2001      	movs	r0, #1
10009b58:	e02d      	b.n	10009bb6 <cdcd_control_xfer_cb+0x112>
10009b5a:	78a1      	ldrb	r1, [r4, #2]
10009b5c:	78e3      	ldrb	r3, [r4, #3]
10009b5e:	021b      	lsls	r3, r3, #8
10009b60:	430b      	orrs	r3, r1
10009b62:	2001      	movs	r0, #1
10009b64:	0019      	movs	r1, r3
10009b66:	4001      	ands	r1, r0
10009b68:	000e      	movs	r6, r1
10009b6a:	085c      	lsrs	r4, r3, #1
10009b6c:	4004      	ands	r4, r0
10009b6e:	7113      	strb	r3, [r2, #4]
10009b70:	424b      	negs	r3, r1
10009b72:	4159      	adcs	r1, r3
10009b74:	b2c9      	uxtb	r1, r1
10009b76:	322c      	adds	r2, #44	; 0x2c
10009b78:	0010      	movs	r0, r2
10009b7a:	f000 fc7d 	bl	1000a478 <tu_fifo_set_overwritable>
10009b7e:	4b14      	ldr	r3, [pc, #80]	; (10009bd0 <cdcd_control_xfer_cb+0x12c>)
10009b80:	2b00      	cmp	r3, #0
10009b82:	d01d      	beq.n	10009bc0 <cdcd_control_xfer_cb+0x11c>
10009b84:	0022      	movs	r2, r4
10009b86:	0031      	movs	r1, r6
10009b88:	0028      	movs	r0, r5
10009b8a:	e000      	b.n	10009b8e <cdcd_control_xfer_cb+0xea>
10009b8c:	bf00      	nop
10009b8e:	2001      	movs	r0, #1
10009b90:	e011      	b.n	10009bb6 <cdcd_control_xfer_cb+0x112>
10009b92:	0021      	movs	r1, r4
10009b94:	f7ff fc88 	bl	100094a8 <tud_control_status>
10009b98:	2001      	movs	r0, #1
10009b9a:	e00c      	b.n	10009bb6 <cdcd_control_xfer_cb+0x112>
10009b9c:	4b0d      	ldr	r3, [pc, #52]	; (10009bd4 <cdcd_control_xfer_cb+0x130>)
10009b9e:	2b00      	cmp	r3, #0
10009ba0:	d010      	beq.n	10009bc4 <cdcd_control_xfer_cb+0x120>
10009ba2:	78a3      	ldrb	r3, [r4, #2]
10009ba4:	78e1      	ldrb	r1, [r4, #3]
10009ba6:	0209      	lsls	r1, r1, #8
10009ba8:	4319      	orrs	r1, r3
10009baa:	0028      	movs	r0, r5
10009bac:	e000      	b.n	10009bb0 <cdcd_control_xfer_cb+0x10c>
10009bae:	bf00      	nop
10009bb0:	2001      	movs	r0, #1
10009bb2:	e000      	b.n	10009bb6 <cdcd_control_xfer_cb+0x112>
10009bb4:	2000      	movs	r0, #0
10009bb6:	bdf8      	pop	{r3, r4, r5, r6, r7, pc}
10009bb8:	2000      	movs	r0, #0
10009bba:	e7fc      	b.n	10009bb6 <cdcd_control_xfer_cb+0x112>
10009bbc:	2001      	movs	r0, #1
10009bbe:	e7fa      	b.n	10009bb6 <cdcd_control_xfer_cb+0x112>
10009bc0:	2001      	movs	r0, #1
10009bc2:	e7f8      	b.n	10009bb6 <cdcd_control_xfer_cb+0x112>
10009bc4:	2001      	movs	r0, #1
10009bc6:	e7f6      	b.n	10009bb6 <cdcd_control_xfer_cb+0x112>
10009bc8:	20000680 	.word	0x20000680
10009bcc:	10007a0d 	.word	0x10007a0d
	...

10009bd8 <cdcd_xfer_cb>:
10009bd8:	b5f0      	push	{r4, r5, r6, r7, lr}
10009bda:	46d6      	mov	lr, sl
10009bdc:	b500      	push	{lr}
10009bde:	b082      	sub	sp, #8
10009be0:	9001      	str	r0, [sp, #4]
10009be2:	000f      	movs	r7, r1
10009be4:	9300      	str	r3, [sp, #0]
10009be6:	2400      	movs	r4, #0
10009be8:	2c00      	cmp	r4, #0
10009bea:	d00d      	beq.n	10009c08 <cdcd_xfer_cb+0x30>
10009bec:	2c00      	cmp	r4, #0
10009bee:	d119      	bne.n	10009c24 <cdcd_xfer_cb+0x4c>
10009bf0:	78eb      	ldrb	r3, [r5, #3]
10009bf2:	42bb      	cmp	r3, r7
10009bf4:	d01e      	beq.n	10009c34 <cdcd_xfer_cb+0x5c>
10009bf6:	78ab      	ldrb	r3, [r5, #2]
10009bf8:	42bb      	cmp	r3, r7
10009bfa:	d055      	beq.n	10009ca8 <cdcd_xfer_cb+0xd0>
10009bfc:	2401      	movs	r4, #1
10009bfe:	0020      	movs	r0, r4
10009c00:	b002      	add	sp, #8
10009c02:	bc80      	pop	{r7}
10009c04:	46ba      	mov	sl, r7
10009c06:	bdf0      	pop	{r4, r5, r6, r7, pc}
10009c08:	25b6      	movs	r5, #182	; 0xb6
10009c0a:	00ad      	lsls	r5, r5, #2
10009c0c:	4365      	muls	r5, r4
10009c0e:	4b3d      	ldr	r3, [pc, #244]	; (10009d04 <cdcd_xfer_cb+0x12c>)
10009c10:	18ed      	adds	r5, r5, r3
10009c12:	78eb      	ldrb	r3, [r5, #3]
10009c14:	42bb      	cmp	r3, r7
10009c16:	d0e9      	beq.n	10009bec <cdcd_xfer_cb+0x14>
10009c18:	78ab      	ldrb	r3, [r5, #2]
10009c1a:	42bb      	cmp	r3, r7
10009c1c:	d0e6      	beq.n	10009bec <cdcd_xfer_cb+0x14>
10009c1e:	3401      	adds	r4, #1
10009c20:	b2e4      	uxtb	r4, r4
10009c22:	e7e1      	b.n	10009be8 <cdcd_xfer_cb+0x10>
10009c24:	22b0      	movs	r2, #176	; 0xb0
10009c26:	32ff      	adds	r2, #255	; 0xff
10009c28:	4937      	ldr	r1, [pc, #220]	; (10009d08 <cdcd_xfer_cb+0x130>)
10009c2a:	4838      	ldr	r0, [pc, #224]	; (10009d0c <cdcd_xfer_cb+0x134>)
10009c2c:	f7fd fde0 	bl	100077f0 <__wrap_printf>
10009c30:	2400      	movs	r4, #0
10009c32:	e7e4      	b.n	10009bfe <cdcd_xfer_cb+0x26>
10009c34:	2310      	movs	r3, #16
10009c36:	469a      	mov	sl, r3
10009c38:	44aa      	add	sl, r5
10009c3a:	2396      	movs	r3, #150	; 0x96
10009c3c:	009b      	lsls	r3, r3, #2
10009c3e:	18e9      	adds	r1, r5, r3
10009c40:	466b      	mov	r3, sp
10009c42:	881a      	ldrh	r2, [r3, #0]
10009c44:	4650      	mov	r0, sl
10009c46:	f000 fbec 	bl	1000a422 <tu_fifo_write_n>
10009c4a:	4b31      	ldr	r3, [pc, #196]	; (10009d10 <cdcd_xfer_cb+0x138>)
10009c4c:	2b00      	cmp	r3, #0
10009c4e:	d01b      	beq.n	10009c88 <cdcd_xfer_cb+0xb0>
10009c50:	796b      	ldrb	r3, [r5, #5]
10009c52:	2bff      	cmp	r3, #255	; 0xff
10009c54:	d018      	beq.n	10009c88 <cdcd_xfer_cb+0xb0>
10009c56:	2600      	movs	r6, #0
10009c58:	e000      	b.n	10009c5c <cdcd_xfer_cb+0x84>
10009c5a:	3601      	adds	r6, #1
10009c5c:	9b00      	ldr	r3, [sp, #0]
10009c5e:	429e      	cmp	r6, r3
10009c60:	d212      	bcs.n	10009c88 <cdcd_xfer_cb+0xb0>
10009c62:	796a      	ldrb	r2, [r5, #5]
10009c64:	19ab      	adds	r3, r5, r6
10009c66:	2196      	movs	r1, #150	; 0x96
10009c68:	0089      	lsls	r1, r1, #2
10009c6a:	468c      	mov	ip, r1
10009c6c:	4463      	add	r3, ip
10009c6e:	781b      	ldrb	r3, [r3, #0]
10009c70:	429a      	cmp	r2, r3
10009c72:	d1f2      	bne.n	10009c5a <cdcd_xfer_cb+0x82>
10009c74:	4650      	mov	r0, sl
10009c76:	f000 fb60 	bl	1000a33a <tu_fifo_empty>
10009c7a:	2800      	cmp	r0, #0
10009c7c:	d1ed      	bne.n	10009c5a <cdcd_xfer_cb+0x82>
10009c7e:	7969      	ldrb	r1, [r5, #5]
10009c80:	0020      	movs	r0, r4
10009c82:	e000      	b.n	10009c86 <cdcd_xfer_cb+0xae>
10009c84:	bf00      	nop
10009c86:	e7e8      	b.n	10009c5a <cdcd_xfer_cb+0x82>
10009c88:	4b22      	ldr	r3, [pc, #136]	; (10009d14 <cdcd_xfer_cb+0x13c>)
10009c8a:	2b00      	cmp	r3, #0
10009c8c:	d004      	beq.n	10009c98 <cdcd_xfer_cb+0xc0>
10009c8e:	4650      	mov	r0, sl
10009c90:	f000 fb53 	bl	1000a33a <tu_fifo_empty>
10009c94:	2800      	cmp	r0, #0
10009c96:	d003      	beq.n	10009ca0 <cdcd_xfer_cb+0xc8>
10009c98:	0028      	movs	r0, r5
10009c9a:	f7ff fd11 	bl	100096c0 <_prep_out_transaction>
10009c9e:	e7aa      	b.n	10009bf6 <cdcd_xfer_cb+0x1e>
10009ca0:	0020      	movs	r0, r4
10009ca2:	e000      	b.n	10009ca6 <cdcd_xfer_cb+0xce>
10009ca4:	bf00      	nop
10009ca6:	e7f7      	b.n	10009c98 <cdcd_xfer_cb+0xc0>
10009ca8:	4b1b      	ldr	r3, [pc, #108]	; (10009d18 <cdcd_xfer_cb+0x140>)
10009caa:	2b00      	cmp	r3, #0
10009cac:	d002      	beq.n	10009cb4 <cdcd_xfer_cb+0xdc>
10009cae:	0020      	movs	r0, r4
10009cb0:	e000      	b.n	10009cb4 <cdcd_xfer_cb+0xdc>
10009cb2:	bf00      	nop
10009cb4:	0020      	movs	r0, r4
10009cb6:	f7ff fd69 	bl	1000978c <tud_cdc_n_write_flush>
10009cba:	2800      	cmp	r0, #0
10009cbc:	d001      	beq.n	10009cc2 <cdcd_xfer_cb+0xea>
10009cbe:	2401      	movs	r4, #1
10009cc0:	e79d      	b.n	10009bfe <cdcd_xfer_cb+0x26>
10009cc2:	0028      	movs	r0, r5
10009cc4:	302c      	adds	r0, #44	; 0x2c
10009cc6:	f000 fb25 	bl	1000a314 <tu_fifo_count>
10009cca:	2800      	cmp	r0, #0
10009ccc:	d115      	bne.n	10009cfa <cdcd_xfer_cb+0x122>
10009cce:	9b00      	ldr	r3, [sp, #0]
10009cd0:	2b00      	cmp	r3, #0
10009cd2:	d014      	beq.n	10009cfe <cdcd_xfer_cb+0x126>
10009cd4:	069b      	lsls	r3, r3, #26
10009cd6:	d001      	beq.n	10009cdc <cdcd_xfer_cb+0x104>
10009cd8:	2401      	movs	r4, #1
10009cda:	e790      	b.n	10009bfe <cdcd_xfer_cb+0x26>
10009cdc:	78a9      	ldrb	r1, [r5, #2]
10009cde:	9801      	ldr	r0, [sp, #4]
10009ce0:	f7fe ffc6 	bl	10008c70 <usbd_edpt_claim>
10009ce4:	1e04      	subs	r4, r0, #0
10009ce6:	d101      	bne.n	10009cec <cdcd_xfer_cb+0x114>
10009ce8:	2401      	movs	r4, #1
10009cea:	e788      	b.n	10009bfe <cdcd_xfer_cb+0x26>
10009cec:	78a9      	ldrb	r1, [r5, #2]
10009cee:	2300      	movs	r3, #0
10009cf0:	2200      	movs	r2, #0
10009cf2:	9801      	ldr	r0, [sp, #4]
10009cf4:	f7ff f836 	bl	10008d64 <usbd_edpt_xfer>
10009cf8:	e781      	b.n	10009bfe <cdcd_xfer_cb+0x26>
10009cfa:	2401      	movs	r4, #1
10009cfc:	e77f      	b.n	10009bfe <cdcd_xfer_cb+0x26>
10009cfe:	2401      	movs	r4, #1
10009d00:	e77d      	b.n	10009bfe <cdcd_xfer_cb+0x26>
10009d02:	46c0      	nop			; (mov r8, r8)
10009d04:	20000680 	.word	0x20000680
10009d08:	1000c54c 	.word	0x1000c54c
10009d0c:	1000c3d0 	.word	0x1000c3d0
	...

10009d1c <tusb_init>:
10009d1c:	b510      	push	{r4, lr}
10009d1e:	2000      	movs	r0, #0
10009d20:	f7fe fd7a 	bl	10008818 <tud_init>
10009d24:	1e04      	subs	r4, r0, #0
10009d26:	d001      	beq.n	10009d2c <tusb_init+0x10>
10009d28:	0020      	movs	r0, r4
10009d2a:	bd10      	pop	{r4, pc}
10009d2c:	2229      	movs	r2, #41	; 0x29
10009d2e:	4902      	ldr	r1, [pc, #8]	; (10009d38 <tusb_init+0x1c>)
10009d30:	4802      	ldr	r0, [pc, #8]	; (10009d3c <tusb_init+0x20>)
10009d32:	f7fd fd5d 	bl	100077f0 <__wrap_printf>
10009d36:	e7f7      	b.n	10009d28 <tusb_init+0xc>
10009d38:	1000c594 	.word	0x1000c594
10009d3c:	1000c3d0 	.word	0x1000c3d0

10009d40 <tusb_inited>:
10009d40:	b510      	push	{r4, lr}
10009d42:	f7fe fd63 	bl	1000880c <tud_inited>
10009d46:	2800      	cmp	r0, #0
10009d48:	d000      	beq.n	10009d4c <tusb_inited+0xc>
10009d4a:	2001      	movs	r0, #1
10009d4c:	bd10      	pop	{r4, pc}
	...

10009d50 <tu_edpt_validate>:
10009d50:	b510      	push	{r4, lr}
10009d52:	7902      	ldrb	r2, [r0, #4]
10009d54:	7944      	ldrb	r4, [r0, #5]
10009d56:	2307      	movs	r3, #7
10009d58:	4023      	ands	r3, r4
10009d5a:	021b      	lsls	r3, r3, #8
10009d5c:	431a      	orrs	r2, r3
10009d5e:	78c3      	ldrb	r3, [r0, #3]
10009d60:	079b      	lsls	r3, r3, #30
10009d62:	0f9b      	lsrs	r3, r3, #30
10009d64:	2b02      	cmp	r3, #2
10009d66:	d016      	beq.n	10009d96 <tu_edpt_validate+0x46>
10009d68:	2b03      	cmp	r3, #3
10009d6a:	d02e      	beq.n	10009dca <tu_edpt_validate+0x7a>
10009d6c:	2b01      	cmp	r3, #1
10009d6e:	d001      	beq.n	10009d74 <tu_edpt_validate+0x24>
10009d70:	2000      	movs	r0, #0
10009d72:	bd10      	pop	{r4, pc}
10009d74:	2902      	cmp	r1, #2
10009d76:	d004      	beq.n	10009d82 <tu_edpt_validate+0x32>
10009d78:	4b1c      	ldr	r3, [pc, #112]	; (10009dec <tu_edpt_validate+0x9c>)
10009d7a:	4293      	cmp	r3, r2
10009d7c:	d304      	bcc.n	10009d88 <tu_edpt_validate+0x38>
10009d7e:	2001      	movs	r0, #1
10009d80:	e7f7      	b.n	10009d72 <tu_edpt_validate+0x22>
10009d82:	2380      	movs	r3, #128	; 0x80
10009d84:	00db      	lsls	r3, r3, #3
10009d86:	e7f8      	b.n	10009d7a <tu_edpt_validate+0x2a>
10009d88:	2250      	movs	r2, #80	; 0x50
10009d8a:	4919      	ldr	r1, [pc, #100]	; (10009df0 <tu_edpt_validate+0xa0>)
10009d8c:	4819      	ldr	r0, [pc, #100]	; (10009df4 <tu_edpt_validate+0xa4>)
10009d8e:	f7fd fd2f 	bl	100077f0 <__wrap_printf>
10009d92:	2000      	movs	r0, #0
10009d94:	e7ed      	b.n	10009d72 <tu_edpt_validate+0x22>
10009d96:	2902      	cmp	r1, #2
10009d98:	d003      	beq.n	10009da2 <tu_edpt_validate+0x52>
10009d9a:	2a40      	cmp	r2, #64	; 0x40
10009d9c:	d80e      	bhi.n	10009dbc <tu_edpt_validate+0x6c>
10009d9e:	2001      	movs	r0, #1
10009da0:	e7e7      	b.n	10009d72 <tu_edpt_validate+0x22>
10009da2:	2380      	movs	r3, #128	; 0x80
10009da4:	009b      	lsls	r3, r3, #2
10009da6:	429a      	cmp	r2, r3
10009da8:	d101      	bne.n	10009dae <tu_edpt_validate+0x5e>
10009daa:	2001      	movs	r0, #1
10009dac:	e7e1      	b.n	10009d72 <tu_edpt_validate+0x22>
10009dae:	2258      	movs	r2, #88	; 0x58
10009db0:	490f      	ldr	r1, [pc, #60]	; (10009df0 <tu_edpt_validate+0xa0>)
10009db2:	4810      	ldr	r0, [pc, #64]	; (10009df4 <tu_edpt_validate+0xa4>)
10009db4:	f7fd fd1c 	bl	100077f0 <__wrap_printf>
10009db8:	2000      	movs	r0, #0
10009dba:	e7da      	b.n	10009d72 <tu_edpt_validate+0x22>
10009dbc:	225c      	movs	r2, #92	; 0x5c
10009dbe:	490c      	ldr	r1, [pc, #48]	; (10009df0 <tu_edpt_validate+0xa0>)
10009dc0:	480c      	ldr	r0, [pc, #48]	; (10009df4 <tu_edpt_validate+0xa4>)
10009dc2:	f7fd fd15 	bl	100077f0 <__wrap_printf>
10009dc6:	2000      	movs	r0, #0
10009dc8:	e7d3      	b.n	10009d72 <tu_edpt_validate+0x22>
10009dca:	2902      	cmp	r1, #2
10009dcc:	d004      	beq.n	10009dd8 <tu_edpt_validate+0x88>
10009dce:	2340      	movs	r3, #64	; 0x40
10009dd0:	4293      	cmp	r3, r2
10009dd2:	d304      	bcc.n	10009dde <tu_edpt_validate+0x8e>
10009dd4:	2001      	movs	r0, #1
10009dd6:	e7cc      	b.n	10009d72 <tu_edpt_validate+0x22>
10009dd8:	2380      	movs	r3, #128	; 0x80
10009dda:	00db      	lsls	r3, r3, #3
10009ddc:	e7f8      	b.n	10009dd0 <tu_edpt_validate+0x80>
10009dde:	2263      	movs	r2, #99	; 0x63
10009de0:	4903      	ldr	r1, [pc, #12]	; (10009df0 <tu_edpt_validate+0xa0>)
10009de2:	4804      	ldr	r0, [pc, #16]	; (10009df4 <tu_edpt_validate+0xa4>)
10009de4:	f7fd fd04 	bl	100077f0 <__wrap_printf>
10009de8:	2000      	movs	r0, #0
10009dea:	e7c2      	b.n	10009d72 <tu_edpt_validate+0x22>
10009dec:	000003ff 	.word	0x000003ff
10009df0:	1000c580 	.word	0x1000c580
10009df4:	1000c3d0 	.word	0x1000c3d0

10009df8 <tu_edpt_bind_driver>:
10009df8:	b570      	push	{r4, r5, r6, lr}
10009dfa:	2500      	movs	r5, #0
10009dfc:	e003      	b.n	10009e06 <tu_edpt_bind_driver+0xe>
10009dfe:	780e      	ldrb	r6, [r1, #0]
10009e00:	19ad      	adds	r5, r5, r6
10009e02:	b2ad      	uxth	r5, r5
10009e04:	1989      	adds	r1, r1, r6
10009e06:	4295      	cmp	r5, r2
10009e08:	d20a      	bcs.n	10009e20 <tu_edpt_bind_driver+0x28>
10009e0a:	784c      	ldrb	r4, [r1, #1]
10009e0c:	2c05      	cmp	r4, #5
10009e0e:	d1f6      	bne.n	10009dfe <tu_edpt_bind_driver+0x6>
10009e10:	788e      	ldrb	r6, [r1, #2]
10009e12:	347a      	adds	r4, #122	; 0x7a
10009e14:	4034      	ands	r4, r6
10009e16:	0064      	lsls	r4, r4, #1
10009e18:	1904      	adds	r4, r0, r4
10009e1a:	09f6      	lsrs	r6, r6, #7
10009e1c:	55a3      	strb	r3, [r4, r6]
10009e1e:	e7ee      	b.n	10009dfe <tu_edpt_bind_driver+0x6>
10009e20:	bd70      	pop	{r4, r5, r6, pc}

10009e22 <advance_pointer>:
10009e22:	0003      	movs	r3, r0
10009e24:	188a      	adds	r2, r1, r2
10009e26:	b290      	uxth	r0, r2
10009e28:	4288      	cmp	r0, r1
10009e2a:	d302      	bcc.n	10009e32 <advance_pointer+0x10>
10009e2c:	899a      	ldrh	r2, [r3, #12]
10009e2e:	4290      	cmp	r0, r2
10009e30:	d902      	bls.n	10009e38 <advance_pointer+0x16>
10009e32:	895a      	ldrh	r2, [r3, #10]
10009e34:	1880      	adds	r0, r0, r2
10009e36:	b280      	uxth	r0, r0
10009e38:	4770      	bx	lr

10009e3a <backward_pointer>:
10009e3a:	b510      	push	{r4, lr}
10009e3c:	0003      	movs	r3, r0
10009e3e:	428a      	cmp	r2, r1
10009e40:	d804      	bhi.n	10009e4c <backward_pointer+0x12>
10009e42:	1a88      	subs	r0, r1, r2
10009e44:	b280      	uxth	r0, r0
10009e46:	899c      	ldrh	r4, [r3, #12]
10009e48:	42a0      	cmp	r0, r4
10009e4a:	d904      	bls.n	10009e56 <backward_pointer+0x1c>
10009e4c:	1a89      	subs	r1, r1, r2
10009e4e:	b289      	uxth	r1, r1
10009e50:	8958      	ldrh	r0, [r3, #10]
10009e52:	1a08      	subs	r0, r1, r0
10009e54:	b280      	uxth	r0, r0
10009e56:	bd10      	pop	{r4, pc}

10009e58 <get_relative_pointer>:
10009e58:	8883      	ldrh	r3, [r0, #4]
10009e5a:	e001      	b.n	10009e60 <get_relative_pointer+0x8>
10009e5c:	1ac9      	subs	r1, r1, r3
10009e5e:	b289      	uxth	r1, r1
10009e60:	428b      	cmp	r3, r1
10009e62:	d9fb      	bls.n	10009e5c <get_relative_pointer+0x4>
10009e64:	0008      	movs	r0, r1
10009e66:	4770      	bx	lr

10009e68 <_tu_fifo_peek>:
10009e68:	b5f0      	push	{r4, r5, r6, r7, lr}
10009e6a:	b083      	sub	sp, #12
10009e6c:	0006      	movs	r6, r0
10009e6e:	9101      	str	r1, [sp, #4]
10009e70:	0011      	movs	r1, r2
10009e72:	001f      	movs	r7, r3
10009e74:	1ad4      	subs	r4, r2, r3
10009e76:	b2a4      	uxth	r4, r4
10009e78:	429a      	cmp	r2, r3
10009e7a:	d202      	bcs.n	10009e82 <_tu_fifo_peek+0x1a>
10009e7c:	8943      	ldrh	r3, [r0, #10]
10009e7e:	1ae4      	subs	r4, r4, r3
10009e80:	b2a4      	uxth	r4, r4
10009e82:	88b5      	ldrh	r5, [r6, #4]
10009e84:	42a5      	cmp	r5, r4
10009e86:	d205      	bcs.n	10009e94 <_tu_fifo_peek+0x2c>
10009e88:	002a      	movs	r2, r5
10009e8a:	0030      	movs	r0, r6
10009e8c:	f7ff ffd5 	bl	10009e3a <backward_pointer>
10009e90:	8230      	strh	r0, [r6, #16]
10009e92:	002c      	movs	r4, r5
10009e94:	2c00      	cmp	r4, #0
10009e96:	d102      	bne.n	10009e9e <_tu_fifo_peek+0x36>
10009e98:	2000      	movs	r0, #0
10009e9a:	b003      	add	sp, #12
10009e9c:	bdf0      	pop	{r4, r5, r6, r7, pc}
10009e9e:	0039      	movs	r1, r7
10009ea0:	0030      	movs	r0, r6
10009ea2:	f7ff ffd9 	bl	10009e58 <get_relative_pointer>
10009ea6:	6831      	ldr	r1, [r6, #0]
10009ea8:	88f2      	ldrh	r2, [r6, #6]
10009eaa:	4350      	muls	r0, r2
10009eac:	1809      	adds	r1, r1, r0
10009eae:	9801      	ldr	r0, [sp, #4]
10009eb0:	f7fd fb5a 	bl	10007568 <__wrap___aeabi_memcpy>
10009eb4:	2001      	movs	r0, #1
10009eb6:	e7f0      	b.n	10009e9a <_tu_fifo_peek+0x32>

10009eb8 <_ff_pull_const_addr>:
10009eb8:	b5f0      	push	{r4, r5, r6, r7, lr}
10009eba:	b083      	sub	sp, #12
10009ebc:	0006      	movs	r6, r0
10009ebe:	0893      	lsrs	r3, r2, #2
10009ec0:	e00c      	b.n	10009edc <_ff_pull_const_addr+0x24>
10009ec2:	780b      	ldrb	r3, [r1, #0]
10009ec4:	784d      	ldrb	r5, [r1, #1]
10009ec6:	022d      	lsls	r5, r5, #8
10009ec8:	431d      	orrs	r5, r3
10009eca:	788c      	ldrb	r4, [r1, #2]
10009ecc:	0424      	lsls	r4, r4, #16
10009ece:	4325      	orrs	r5, r4
10009ed0:	78cb      	ldrb	r3, [r1, #3]
10009ed2:	061b      	lsls	r3, r3, #24
10009ed4:	432b      	orrs	r3, r5
10009ed6:	6033      	str	r3, [r6, #0]
10009ed8:	3104      	adds	r1, #4
10009eda:	003b      	movs	r3, r7
10009edc:	1e5f      	subs	r7, r3, #1
10009ede:	b2bf      	uxth	r7, r7
10009ee0:	2b00      	cmp	r3, #0
10009ee2:	d1ee      	bne.n	10009ec2 <_ff_pull_const_addr+0xa>
10009ee4:	3303      	adds	r3, #3
10009ee6:	0010      	movs	r0, r2
10009ee8:	4018      	ands	r0, r3
10009eea:	421a      	tst	r2, r3
10009eec:	d101      	bne.n	10009ef2 <_ff_pull_const_addr+0x3a>
10009eee:	b003      	add	sp, #12
10009ef0:	bdf0      	pop	{r4, r5, r6, r7, pc}
10009ef2:	2300      	movs	r3, #0
10009ef4:	9301      	str	r3, [sp, #4]
10009ef6:	0002      	movs	r2, r0
10009ef8:	a801      	add	r0, sp, #4
10009efa:	f7fd fb35 	bl	10007568 <__wrap___aeabi_memcpy>
10009efe:	9b01      	ldr	r3, [sp, #4]
10009f00:	6033      	str	r3, [r6, #0]
10009f02:	e7f4      	b.n	10009eee <_ff_pull_const_addr+0x36>

10009f04 <_ff_pull_n>:
10009f04:	b5f0      	push	{r4, r5, r6, r7, lr}
10009f06:	46de      	mov	lr, fp
10009f08:	4657      	mov	r7, sl
10009f0a:	464e      	mov	r6, r9
10009f0c:	4645      	mov	r5, r8
10009f0e:	b5e0      	push	{r5, r6, r7, lr}
10009f10:	b083      	sub	sp, #12
10009f12:	0005      	movs	r5, r0
10009f14:	468a      	mov	sl, r1
10009f16:	a90c      	add	r1, sp, #48	; 0x30
10009f18:	7809      	ldrb	r1, [r1, #0]
10009f1a:	8884      	ldrh	r4, [r0, #4]
10009f1c:	1ae0      	subs	r0, r4, r3
10009f1e:	b280      	uxth	r0, r0
10009f20:	1b1c      	subs	r4, r3, r4
10009f22:	1914      	adds	r4, r2, r4
10009f24:	b2a4      	uxth	r4, r4
10009f26:	88ee      	ldrh	r6, [r5, #6]
10009f28:	0007      	movs	r7, r0
10009f2a:	4377      	muls	r7, r6
10009f2c:	b2bf      	uxth	r7, r7
10009f2e:	4374      	muls	r4, r6
10009f30:	b2a4      	uxth	r4, r4
10009f32:	46a3      	mov	fp, r4
10009f34:	4373      	muls	r3, r6
10009f36:	682c      	ldr	r4, [r5, #0]
10009f38:	46a0      	mov	r8, r4
10009f3a:	4498      	add	r8, r3
10009f3c:	2900      	cmp	r1, #0
10009f3e:	d008      	beq.n	10009f52 <_ff_pull_n+0x4e>
10009f40:	2901      	cmp	r1, #1
10009f42:	d01a      	beq.n	10009f7a <_ff_pull_n+0x76>
10009f44:	b003      	add	sp, #12
10009f46:	bcf0      	pop	{r4, r5, r6, r7}
10009f48:	46bb      	mov	fp, r7
10009f4a:	46b2      	mov	sl, r6
10009f4c:	46a9      	mov	r9, r5
10009f4e:	46a0      	mov	r8, r4
10009f50:	bdf0      	pop	{r4, r5, r6, r7, pc}
10009f52:	4290      	cmp	r0, r2
10009f54:	d305      	bcc.n	10009f62 <_ff_pull_n+0x5e>
10009f56:	4372      	muls	r2, r6
10009f58:	4641      	mov	r1, r8
10009f5a:	4650      	mov	r0, sl
10009f5c:	f7fd fb04 	bl	10007568 <__wrap___aeabi_memcpy>
10009f60:	e7f0      	b.n	10009f44 <_ff_pull_n+0x40>
10009f62:	003a      	movs	r2, r7
10009f64:	4641      	mov	r1, r8
10009f66:	4650      	mov	r0, sl
10009f68:	f7fd fafe 	bl	10007568 <__wrap___aeabi_memcpy>
10009f6c:	6829      	ldr	r1, [r5, #0]
10009f6e:	0038      	movs	r0, r7
10009f70:	4450      	add	r0, sl
10009f72:	465a      	mov	r2, fp
10009f74:	f7fd faf8 	bl	10007568 <__wrap___aeabi_memcpy>
10009f78:	e7e4      	b.n	10009f44 <_ff_pull_n+0x40>
10009f7a:	4290      	cmp	r0, r2
10009f7c:	d306      	bcc.n	10009f8c <_ff_pull_n+0x88>
10009f7e:	4372      	muls	r2, r6
10009f80:	b292      	uxth	r2, r2
10009f82:	4641      	mov	r1, r8
10009f84:	4650      	mov	r0, sl
10009f86:	f7ff ff97 	bl	10009eb8 <_ff_pull_const_addr>
10009f8a:	e7db      	b.n	10009f44 <_ff_pull_n+0x40>
10009f8c:	2303      	movs	r3, #3
10009f8e:	003a      	movs	r2, r7
10009f90:	439a      	bics	r2, r3
10009f92:	4691      	mov	r9, r2
10009f94:	4641      	mov	r1, r8
10009f96:	4650      	mov	r0, sl
10009f98:	f7ff ff8e 	bl	10009eb8 <_ff_pull_const_addr>
10009f9c:	4643      	mov	r3, r8
10009f9e:	444b      	add	r3, r9
10009fa0:	2103      	movs	r1, #3
10009fa2:	003a      	movs	r2, r7
10009fa4:	400a      	ands	r2, r1
10009fa6:	420f      	tst	r7, r1
10009fa8:	d030      	beq.n	1000a00c <_ff_pull_n+0x108>
10009faa:	2104      	movs	r1, #4
10009fac:	1a89      	subs	r1, r1, r2
10009fae:	b289      	uxth	r1, r1
10009fb0:	1c08      	adds	r0, r1, #0
10009fb2:	4559      	cmp	r1, fp
10009fb4:	d900      	bls.n	10009fb8 <_ff_pull_n+0xb4>
10009fb6:	4658      	mov	r0, fp
10009fb8:	b2c7      	uxtb	r7, r0
10009fba:	21ff      	movs	r1, #255	; 0xff
10009fbc:	4001      	ands	r1, r0
10009fbe:	4658      	mov	r0, fp
10009fc0:	1a44      	subs	r4, r0, r1
10009fc2:	b2a1      	uxth	r1, r4
10009fc4:	468b      	mov	fp, r1
10009fc6:	2100      	movs	r1, #0
10009fc8:	9101      	str	r1, [sp, #4]
10009fca:	a801      	add	r0, sp, #4
10009fcc:	e004      	b.n	10009fd8 <_ff_pull_n+0xd4>
10009fce:	781a      	ldrb	r2, [r3, #0]
10009fd0:	7002      	strb	r2, [r0, #0]
10009fd2:	3001      	adds	r0, #1
10009fd4:	000a      	movs	r2, r1
10009fd6:	3301      	adds	r3, #1
10009fd8:	1e51      	subs	r1, r2, #1
10009fda:	b2c9      	uxtb	r1, r1
10009fdc:	2a00      	cmp	r2, #0
10009fde:	d1f6      	bne.n	10009fce <_ff_pull_n+0xca>
10009fe0:	6829      	ldr	r1, [r5, #0]
10009fe2:	e004      	b.n	10009fee <_ff_pull_n+0xea>
10009fe4:	780a      	ldrb	r2, [r1, #0]
10009fe6:	7002      	strb	r2, [r0, #0]
10009fe8:	3001      	adds	r0, #1
10009fea:	001f      	movs	r7, r3
10009fec:	3101      	adds	r1, #1
10009fee:	1e7b      	subs	r3, r7, #1
10009ff0:	b2db      	uxtb	r3, r3
10009ff2:	2f00      	cmp	r7, #0
10009ff4:	d1f6      	bne.n	10009fe4 <_ff_pull_n+0xe0>
10009ff6:	4653      	mov	r3, sl
10009ff8:	9a01      	ldr	r2, [sp, #4]
10009ffa:	601a      	str	r2, [r3, #0]
10009ffc:	465b      	mov	r3, fp
10009ffe:	2b00      	cmp	r3, #0
1000a000:	d0a0      	beq.n	10009f44 <_ff_pull_n+0x40>
1000a002:	465a      	mov	r2, fp
1000a004:	4650      	mov	r0, sl
1000a006:	f7ff ff57 	bl	10009eb8 <_ff_pull_const_addr>
1000a00a:	e79b      	b.n	10009f44 <_ff_pull_n+0x40>
1000a00c:	6829      	ldr	r1, [r5, #0]
1000a00e:	e7f5      	b.n	10009ffc <_ff_pull_n+0xf8>

1000a010 <_tu_fifo_peek_n>:
1000a010:	b5f0      	push	{r4, r5, r6, r7, lr}
1000a012:	b085      	sub	sp, #20
1000a014:	0005      	movs	r5, r0
1000a016:	9102      	str	r1, [sp, #8]
1000a018:	9203      	str	r2, [sp, #12]
1000a01a:	aa0a      	add	r2, sp, #40	; 0x28
1000a01c:	8811      	ldrh	r1, [r2, #0]
1000a01e:	aa0b      	add	r2, sp, #44	; 0x2c
1000a020:	7817      	ldrb	r7, [r2, #0]
1000a022:	1a5c      	subs	r4, r3, r1
1000a024:	b2a4      	uxth	r4, r4
1000a026:	428b      	cmp	r3, r1
1000a028:	d202      	bcs.n	1000a030 <_tu_fifo_peek_n+0x20>
1000a02a:	8942      	ldrh	r2, [r0, #10]
1000a02c:	1aa4      	subs	r4, r4, r2
1000a02e:	b2a4      	uxth	r4, r4
1000a030:	88ae      	ldrh	r6, [r5, #4]
1000a032:	42a6      	cmp	r6, r4
1000a034:	d208      	bcs.n	1000a048 <_tu_fifo_peek_n+0x38>
1000a036:	0032      	movs	r2, r6
1000a038:	0019      	movs	r1, r3
1000a03a:	0028      	movs	r0, r5
1000a03c:	f7ff fefd 	bl	10009e3a <backward_pointer>
1000a040:	8228      	strh	r0, [r5, #16]
1000a042:	8a29      	ldrh	r1, [r5, #16]
1000a044:	b289      	uxth	r1, r1
1000a046:	0034      	movs	r4, r6
1000a048:	2c00      	cmp	r4, #0
1000a04a:	d00d      	beq.n	1000a068 <_tu_fifo_peek_n+0x58>
1000a04c:	9b03      	ldr	r3, [sp, #12]
1000a04e:	429c      	cmp	r4, r3
1000a050:	d300      	bcc.n	1000a054 <_tu_fifo_peek_n+0x44>
1000a052:	001c      	movs	r4, r3
1000a054:	0028      	movs	r0, r5
1000a056:	f7ff feff 	bl	10009e58 <get_relative_pointer>
1000a05a:	0003      	movs	r3, r0
1000a05c:	9700      	str	r7, [sp, #0]
1000a05e:	0022      	movs	r2, r4
1000a060:	9902      	ldr	r1, [sp, #8]
1000a062:	0028      	movs	r0, r5
1000a064:	f7ff ff4e 	bl	10009f04 <_ff_pull_n>
1000a068:	0020      	movs	r0, r4
1000a06a:	b005      	add	sp, #20
1000a06c:	bdf0      	pop	{r4, r5, r6, r7, pc}

1000a06e <_tu_fifo_read_n>:
1000a06e:	b5f0      	push	{r4, r5, r6, r7, lr}
1000a070:	b083      	sub	sp, #12
1000a072:	0004      	movs	r4, r0
1000a074:	000d      	movs	r5, r1
1000a076:	0016      	movs	r6, r2
1000a078:	001f      	movs	r7, r3
1000a07a:	6980      	ldr	r0, [r0, #24]
1000a07c:	2800      	cmp	r0, #0
1000a07e:	d003      	beq.n	1000a088 <_tu_fifo_read_n+0x1a>
1000a080:	2101      	movs	r1, #1
1000a082:	4249      	negs	r1, r1
1000a084:	f000 fcb4 	bl	1000a9f0 <__mutex_enter_timeout_ms_veneer>
1000a088:	89e3      	ldrh	r3, [r4, #14]
1000a08a:	b29b      	uxth	r3, r3
1000a08c:	8a22      	ldrh	r2, [r4, #16]
1000a08e:	9701      	str	r7, [sp, #4]
1000a090:	9200      	str	r2, [sp, #0]
1000a092:	0032      	movs	r2, r6
1000a094:	0029      	movs	r1, r5
1000a096:	0020      	movs	r0, r4
1000a098:	f7ff ffba 	bl	1000a010 <_tu_fifo_peek_n>
1000a09c:	0005      	movs	r5, r0
1000a09e:	8a21      	ldrh	r1, [r4, #16]
1000a0a0:	b289      	uxth	r1, r1
1000a0a2:	0002      	movs	r2, r0
1000a0a4:	0020      	movs	r0, r4
1000a0a6:	f7ff febc 	bl	10009e22 <advance_pointer>
1000a0aa:	8220      	strh	r0, [r4, #16]
1000a0ac:	69a0      	ldr	r0, [r4, #24]
1000a0ae:	2800      	cmp	r0, #0
1000a0b0:	d001      	beq.n	1000a0b6 <_tu_fifo_read_n+0x48>
1000a0b2:	f000 fc7d 	bl	1000a9b0 <__mutex_exit_veneer>
1000a0b6:	0028      	movs	r0, r5
1000a0b8:	b003      	add	sp, #12
1000a0ba:	bdf0      	pop	{r4, r5, r6, r7, pc}

1000a0bc <_ff_push_const_addr>:
1000a0bc:	b570      	push	{r4, r5, r6, lr}
1000a0be:	b082      	sub	sp, #8
1000a0c0:	0016      	movs	r6, r2
1000a0c2:	0895      	lsrs	r5, r2, #2
1000a0c4:	e009      	b.n	1000a0da <_ff_push_const_addr+0x1e>
1000a0c6:	680b      	ldr	r3, [r1, #0]
1000a0c8:	7003      	strb	r3, [r0, #0]
1000a0ca:	0a1d      	lsrs	r5, r3, #8
1000a0cc:	7045      	strb	r5, [r0, #1]
1000a0ce:	0c1d      	lsrs	r5, r3, #16
1000a0d0:	7085      	strb	r5, [r0, #2]
1000a0d2:	0e1b      	lsrs	r3, r3, #24
1000a0d4:	70c3      	strb	r3, [r0, #3]
1000a0d6:	3004      	adds	r0, #4
1000a0d8:	0025      	movs	r5, r4
1000a0da:	1e6c      	subs	r4, r5, #1
1000a0dc:	b2a4      	uxth	r4, r4
1000a0de:	2d00      	cmp	r5, #0
1000a0e0:	d1f1      	bne.n	1000a0c6 <_ff_push_const_addr+0xa>
1000a0e2:	2303      	movs	r3, #3
1000a0e4:	0032      	movs	r2, r6
1000a0e6:	401a      	ands	r2, r3
1000a0e8:	421e      	tst	r6, r3
1000a0ea:	d101      	bne.n	1000a0f0 <_ff_push_const_addr+0x34>
1000a0ec:	b002      	add	sp, #8
1000a0ee:	bd70      	pop	{r4, r5, r6, pc}
1000a0f0:	680b      	ldr	r3, [r1, #0]
1000a0f2:	9301      	str	r3, [sp, #4]
1000a0f4:	a901      	add	r1, sp, #4
1000a0f6:	f7fd fa37 	bl	10007568 <__wrap___aeabi_memcpy>
1000a0fa:	e7f7      	b.n	1000a0ec <_ff_push_const_addr+0x30>

1000a0fc <_ff_push_n>:
1000a0fc:	b5f0      	push	{r4, r5, r6, r7, lr}
1000a0fe:	46de      	mov	lr, fp
1000a100:	4657      	mov	r7, sl
1000a102:	464e      	mov	r6, r9
1000a104:	4645      	mov	r5, r8
1000a106:	b5e0      	push	{r5, r6, r7, lr}
1000a108:	b083      	sub	sp, #12
1000a10a:	0005      	movs	r5, r0
1000a10c:	468a      	mov	sl, r1
1000a10e:	a90c      	add	r1, sp, #48	; 0x30
1000a110:	7808      	ldrb	r0, [r1, #0]
1000a112:	88ac      	ldrh	r4, [r5, #4]
1000a114:	1ae1      	subs	r1, r4, r3
1000a116:	b289      	uxth	r1, r1
1000a118:	1b1c      	subs	r4, r3, r4
1000a11a:	1914      	adds	r4, r2, r4
1000a11c:	b2a4      	uxth	r4, r4
1000a11e:	88ee      	ldrh	r6, [r5, #6]
1000a120:	000f      	movs	r7, r1
1000a122:	4377      	muls	r7, r6
1000a124:	b2bf      	uxth	r7, r7
1000a126:	4374      	muls	r4, r6
1000a128:	b2a4      	uxth	r4, r4
1000a12a:	46a3      	mov	fp, r4
1000a12c:	4373      	muls	r3, r6
1000a12e:	682c      	ldr	r4, [r5, #0]
1000a130:	46a0      	mov	r8, r4
1000a132:	4498      	add	r8, r3
1000a134:	2800      	cmp	r0, #0
1000a136:	d008      	beq.n	1000a14a <_ff_push_n+0x4e>
1000a138:	2801      	cmp	r0, #1
1000a13a:	d01a      	beq.n	1000a172 <_ff_push_n+0x76>
1000a13c:	b003      	add	sp, #12
1000a13e:	bcf0      	pop	{r4, r5, r6, r7}
1000a140:	46bb      	mov	fp, r7
1000a142:	46b2      	mov	sl, r6
1000a144:	46a9      	mov	r9, r5
1000a146:	46a0      	mov	r8, r4
1000a148:	bdf0      	pop	{r4, r5, r6, r7, pc}
1000a14a:	4291      	cmp	r1, r2
1000a14c:	d305      	bcc.n	1000a15a <_ff_push_n+0x5e>
1000a14e:	4372      	muls	r2, r6
1000a150:	4651      	mov	r1, sl
1000a152:	4640      	mov	r0, r8
1000a154:	f7fd fa08 	bl	10007568 <__wrap___aeabi_memcpy>
1000a158:	e7f0      	b.n	1000a13c <_ff_push_n+0x40>
1000a15a:	003a      	movs	r2, r7
1000a15c:	4651      	mov	r1, sl
1000a15e:	4640      	mov	r0, r8
1000a160:	f7fd fa02 	bl	10007568 <__wrap___aeabi_memcpy>
1000a164:	6828      	ldr	r0, [r5, #0]
1000a166:	0039      	movs	r1, r7
1000a168:	4451      	add	r1, sl
1000a16a:	465a      	mov	r2, fp
1000a16c:	f7fd f9fc 	bl	10007568 <__wrap___aeabi_memcpy>
1000a170:	e7e4      	b.n	1000a13c <_ff_push_n+0x40>
1000a172:	4291      	cmp	r1, r2
1000a174:	d306      	bcc.n	1000a184 <_ff_push_n+0x88>
1000a176:	4372      	muls	r2, r6
1000a178:	b292      	uxth	r2, r2
1000a17a:	4651      	mov	r1, sl
1000a17c:	4640      	mov	r0, r8
1000a17e:	f7ff ff9d 	bl	1000a0bc <_ff_push_const_addr>
1000a182:	e7db      	b.n	1000a13c <_ff_push_n+0x40>
1000a184:	2303      	movs	r3, #3
1000a186:	003a      	movs	r2, r7
1000a188:	439a      	bics	r2, r3
1000a18a:	4691      	mov	r9, r2
1000a18c:	4651      	mov	r1, sl
1000a18e:	4640      	mov	r0, r8
1000a190:	f7ff ff94 	bl	1000a0bc <_ff_push_const_addr>
1000a194:	4643      	mov	r3, r8
1000a196:	444b      	add	r3, r9
1000a198:	2103      	movs	r1, #3
1000a19a:	003a      	movs	r2, r7
1000a19c:	400a      	ands	r2, r1
1000a19e:	420f      	tst	r7, r1
1000a1a0:	d02e      	beq.n	1000a200 <_ff_push_n+0x104>
1000a1a2:	2104      	movs	r1, #4
1000a1a4:	1a89      	subs	r1, r1, r2
1000a1a6:	b289      	uxth	r1, r1
1000a1a8:	1c08      	adds	r0, r1, #0
1000a1aa:	4559      	cmp	r1, fp
1000a1ac:	d900      	bls.n	1000a1b0 <_ff_push_n+0xb4>
1000a1ae:	4658      	mov	r0, fp
1000a1b0:	b2c7      	uxtb	r7, r0
1000a1b2:	21ff      	movs	r1, #255	; 0xff
1000a1b4:	4001      	ands	r1, r0
1000a1b6:	4658      	mov	r0, fp
1000a1b8:	1a44      	subs	r4, r0, r1
1000a1ba:	b2a1      	uxth	r1, r4
1000a1bc:	468b      	mov	fp, r1
1000a1be:	4651      	mov	r1, sl
1000a1c0:	6809      	ldr	r1, [r1, #0]
1000a1c2:	9101      	str	r1, [sp, #4]
1000a1c4:	a901      	add	r1, sp, #4
1000a1c6:	e004      	b.n	1000a1d2 <_ff_push_n+0xd6>
1000a1c8:	780a      	ldrb	r2, [r1, #0]
1000a1ca:	701a      	strb	r2, [r3, #0]
1000a1cc:	3101      	adds	r1, #1
1000a1ce:	0002      	movs	r2, r0
1000a1d0:	3301      	adds	r3, #1
1000a1d2:	1e50      	subs	r0, r2, #1
1000a1d4:	b2c0      	uxtb	r0, r0
1000a1d6:	2a00      	cmp	r2, #0
1000a1d8:	d1f6      	bne.n	1000a1c8 <_ff_push_n+0xcc>
1000a1da:	6828      	ldr	r0, [r5, #0]
1000a1dc:	e004      	b.n	1000a1e8 <_ff_push_n+0xec>
1000a1de:	780a      	ldrb	r2, [r1, #0]
1000a1e0:	7002      	strb	r2, [r0, #0]
1000a1e2:	3101      	adds	r1, #1
1000a1e4:	001f      	movs	r7, r3
1000a1e6:	3001      	adds	r0, #1
1000a1e8:	1e7b      	subs	r3, r7, #1
1000a1ea:	b2db      	uxtb	r3, r3
1000a1ec:	2f00      	cmp	r7, #0
1000a1ee:	d1f6      	bne.n	1000a1de <_ff_push_n+0xe2>
1000a1f0:	465b      	mov	r3, fp
1000a1f2:	2b00      	cmp	r3, #0
1000a1f4:	d0a2      	beq.n	1000a13c <_ff_push_n+0x40>
1000a1f6:	465a      	mov	r2, fp
1000a1f8:	4651      	mov	r1, sl
1000a1fa:	f7ff ff5f 	bl	1000a0bc <_ff_push_const_addr>
1000a1fe:	e79d      	b.n	1000a13c <_ff_push_n+0x40>
1000a200:	6828      	ldr	r0, [r5, #0]
1000a202:	e7f5      	b.n	1000a1f0 <_ff_push_n+0xf4>

1000a204 <_tu_fifo_write_n>:
1000a204:	b5f0      	push	{r4, r5, r6, r7, lr}
1000a206:	46ce      	mov	lr, r9
1000a208:	b500      	push	{lr}
1000a20a:	b084      	sub	sp, #16
1000a20c:	0004      	movs	r4, r0
1000a20e:	4689      	mov	r9, r1
1000a210:	1e15      	subs	r5, r2, #0
1000a212:	9303      	str	r3, [sp, #12]
1000a214:	d043      	beq.n	1000a29e <_tu_fifo_write_n+0x9a>
1000a216:	6940      	ldr	r0, [r0, #20]
1000a218:	2800      	cmp	r0, #0
1000a21a:	d003      	beq.n	1000a224 <_tu_fifo_write_n+0x20>
1000a21c:	2101      	movs	r1, #1
1000a21e:	4249      	negs	r1, r1
1000a220:	f000 fbe6 	bl	1000a9f0 <__mutex_enter_timeout_ms_veneer>
1000a224:	89e7      	ldrh	r7, [r4, #14]
1000a226:	b2bf      	uxth	r7, r7
1000a228:	8a23      	ldrh	r3, [r4, #16]
1000a22a:	b29b      	uxth	r3, r3
1000a22c:	7a22      	ldrb	r2, [r4, #8]
1000a22e:	2a00      	cmp	r2, #0
1000a230:	d12a      	bne.n	1000a288 <_tu_fifo_write_n+0x84>
1000a232:	88a2      	ldrh	r2, [r4, #4]
1000a234:	1af9      	subs	r1, r7, r3
1000a236:	b289      	uxth	r1, r1
1000a238:	429f      	cmp	r7, r3
1000a23a:	d202      	bcs.n	1000a242 <_tu_fifo_write_n+0x3e>
1000a23c:	8963      	ldrh	r3, [r4, #10]
1000a23e:	1ac9      	subs	r1, r1, r3
1000a240:	b289      	uxth	r1, r1
1000a242:	1a53      	subs	r3, r2, r1
1000a244:	b29b      	uxth	r3, r3
1000a246:	1c2e      	adds	r6, r5, #0
1000a248:	429d      	cmp	r5, r3
1000a24a:	d900      	bls.n	1000a24e <_tu_fifo_write_n+0x4a>
1000a24c:	1c1e      	adds	r6, r3, #0
1000a24e:	b2b6      	uxth	r6, r6
1000a250:	0039      	movs	r1, r7
1000a252:	0020      	movs	r0, r4
1000a254:	f7ff fe00 	bl	10009e58 <get_relative_pointer>
1000a258:	0003      	movs	r3, r0
1000a25a:	9a03      	ldr	r2, [sp, #12]
1000a25c:	9200      	str	r2, [sp, #0]
1000a25e:	0032      	movs	r2, r6
1000a260:	4649      	mov	r1, r9
1000a262:	0020      	movs	r0, r4
1000a264:	f7ff ff4a 	bl	1000a0fc <_ff_push_n>
1000a268:	0032      	movs	r2, r6
1000a26a:	0039      	movs	r1, r7
1000a26c:	0020      	movs	r0, r4
1000a26e:	f7ff fdd8 	bl	10009e22 <advance_pointer>
1000a272:	81e0      	strh	r0, [r4, #14]
1000a274:	6960      	ldr	r0, [r4, #20]
1000a276:	2800      	cmp	r0, #0
1000a278:	d001      	beq.n	1000a27e <_tu_fifo_write_n+0x7a>
1000a27a:	f000 fb99 	bl	1000a9b0 <__mutex_exit_veneer>
1000a27e:	0030      	movs	r0, r6
1000a280:	b004      	add	sp, #16
1000a282:	bc80      	pop	{r7}
1000a284:	46b9      	mov	r9, r7
1000a286:	bdf0      	pop	{r4, r5, r6, r7, pc}
1000a288:	88a6      	ldrh	r6, [r4, #4]
1000a28a:	42ae      	cmp	r6, r5
1000a28c:	d805      	bhi.n	1000a29a <_tu_fifo_write_n+0x96>
1000a28e:	1baa      	subs	r2, r5, r6
1000a290:	88e5      	ldrh	r5, [r4, #6]
1000a292:	4355      	muls	r5, r2
1000a294:	44a9      	add	r9, r5
1000a296:	001f      	movs	r7, r3
1000a298:	e7da      	b.n	1000a250 <_tu_fifo_write_n+0x4c>
1000a29a:	002e      	movs	r6, r5
1000a29c:	e7d8      	b.n	1000a250 <_tu_fifo_write_n+0x4c>
1000a29e:	0016      	movs	r6, r2
1000a2a0:	e7ed      	b.n	1000a27e <_tu_fifo_write_n+0x7a>

1000a2a2 <tu_fifo_config>:
1000a2a2:	b5f0      	push	{r4, r5, r6, r7, lr}
1000a2a4:	b083      	sub	sp, #12
1000a2a6:	0005      	movs	r5, r0
1000a2a8:	000f      	movs	r7, r1
1000a2aa:	0014      	movs	r4, r2
1000a2ac:	9301      	str	r3, [sp, #4]
1000a2ae:	ab08      	add	r3, sp, #32
1000a2b0:	781e      	ldrb	r6, [r3, #0]
1000a2b2:	2380      	movs	r3, #128	; 0x80
1000a2b4:	021b      	lsls	r3, r3, #8
1000a2b6:	429a      	cmp	r2, r3
1000a2b8:	d828      	bhi.n	1000a30c <tu_fifo_config+0x6a>
1000a2ba:	6940      	ldr	r0, [r0, #20]
1000a2bc:	2800      	cmp	r0, #0
1000a2be:	d003      	beq.n	1000a2c8 <tu_fifo_config+0x26>
1000a2c0:	2101      	movs	r1, #1
1000a2c2:	4249      	negs	r1, r1
1000a2c4:	f000 fb94 	bl	1000a9f0 <__mutex_enter_timeout_ms_veneer>
1000a2c8:	69a8      	ldr	r0, [r5, #24]
1000a2ca:	2800      	cmp	r0, #0
1000a2cc:	d003      	beq.n	1000a2d6 <tu_fifo_config+0x34>
1000a2ce:	2101      	movs	r1, #1
1000a2d0:	4249      	negs	r1, r1
1000a2d2:	f000 fb8d 	bl	1000a9f0 <__mutex_enter_timeout_ms_veneer>
1000a2d6:	602f      	str	r7, [r5, #0]
1000a2d8:	80ac      	strh	r4, [r5, #4]
1000a2da:	9b01      	ldr	r3, [sp, #4]
1000a2dc:	80eb      	strh	r3, [r5, #6]
1000a2de:	722e      	strb	r6, [r5, #8]
1000a2e0:	0064      	lsls	r4, r4, #1
1000a2e2:	3c01      	subs	r4, #1
1000a2e4:	b2a4      	uxth	r4, r4
1000a2e6:	81ac      	strh	r4, [r5, #12]
1000a2e8:	43e4      	mvns	r4, r4
1000a2ea:	816c      	strh	r4, [r5, #10]
1000a2ec:	2300      	movs	r3, #0
1000a2ee:	81eb      	strh	r3, [r5, #14]
1000a2f0:	822b      	strh	r3, [r5, #16]
1000a2f2:	6968      	ldr	r0, [r5, #20]
1000a2f4:	2800      	cmp	r0, #0
1000a2f6:	d001      	beq.n	1000a2fc <tu_fifo_config+0x5a>
1000a2f8:	f000 fb5a 	bl	1000a9b0 <__mutex_exit_veneer>
1000a2fc:	69a8      	ldr	r0, [r5, #24]
1000a2fe:	2800      	cmp	r0, #0
1000a300:	d006      	beq.n	1000a310 <tu_fifo_config+0x6e>
1000a302:	f000 fb55 	bl	1000a9b0 <__mutex_exit_veneer>
1000a306:	2001      	movs	r0, #1
1000a308:	b003      	add	sp, #12
1000a30a:	bdf0      	pop	{r4, r5, r6, r7, pc}
1000a30c:	2000      	movs	r0, #0
1000a30e:	e7fb      	b.n	1000a308 <tu_fifo_config+0x66>
1000a310:	2001      	movs	r0, #1
1000a312:	e7f9      	b.n	1000a308 <tu_fifo_config+0x66>

1000a314 <tu_fifo_count>:
1000a314:	b510      	push	{r4, lr}
1000a316:	89c3      	ldrh	r3, [r0, #14]
1000a318:	b29c      	uxth	r4, r3
1000a31a:	8a02      	ldrh	r2, [r0, #16]
1000a31c:	b291      	uxth	r1, r2
1000a31e:	1a9b      	subs	r3, r3, r2
1000a320:	b29b      	uxth	r3, r3
1000a322:	428c      	cmp	r4, r1
1000a324:	d202      	bcs.n	1000a32c <tu_fifo_count+0x18>
1000a326:	8942      	ldrh	r2, [r0, #10]
1000a328:	1a9b      	subs	r3, r3, r2
1000a32a:	b29b      	uxth	r3, r3
1000a32c:	8882      	ldrh	r2, [r0, #4]
1000a32e:	1c10      	adds	r0, r2, #0
1000a330:	429a      	cmp	r2, r3
1000a332:	d900      	bls.n	1000a336 <tu_fifo_count+0x22>
1000a334:	1c18      	adds	r0, r3, #0
1000a336:	b280      	uxth	r0, r0
1000a338:	bd10      	pop	{r4, pc}

1000a33a <tu_fifo_empty>:
1000a33a:	0003      	movs	r3, r0
1000a33c:	89c0      	ldrh	r0, [r0, #14]
1000a33e:	8a1b      	ldrh	r3, [r3, #16]
1000a340:	1ac0      	subs	r0, r0, r3
1000a342:	4243      	negs	r3, r0
1000a344:	4158      	adcs	r0, r3
1000a346:	b2c0      	uxtb	r0, r0
1000a348:	4770      	bx	lr

1000a34a <tu_fifo_remaining>:
1000a34a:	b530      	push	{r4, r5, lr}
1000a34c:	89c3      	ldrh	r3, [r0, #14]
1000a34e:	b29d      	uxth	r5, r3
1000a350:	8a01      	ldrh	r1, [r0, #16]
1000a352:	b28c      	uxth	r4, r1
1000a354:	8882      	ldrh	r2, [r0, #4]
1000a356:	1a5b      	subs	r3, r3, r1
1000a358:	b29b      	uxth	r3, r3
1000a35a:	42a5      	cmp	r5, r4
1000a35c:	d202      	bcs.n	1000a364 <tu_fifo_remaining+0x1a>
1000a35e:	8940      	ldrh	r0, [r0, #10]
1000a360:	1a1b      	subs	r3, r3, r0
1000a362:	b29b      	uxth	r3, r3
1000a364:	1ad0      	subs	r0, r2, r3
1000a366:	b280      	uxth	r0, r0
1000a368:	bd30      	pop	{r4, r5, pc}

1000a36a <tu_fifo_read>:
1000a36a:	b570      	push	{r4, r5, r6, lr}
1000a36c:	0004      	movs	r4, r0
1000a36e:	000d      	movs	r5, r1
1000a370:	6980      	ldr	r0, [r0, #24]
1000a372:	2800      	cmp	r0, #0
1000a374:	d003      	beq.n	1000a37e <tu_fifo_read+0x14>
1000a376:	2101      	movs	r1, #1
1000a378:	4249      	negs	r1, r1
1000a37a:	f000 fb39 	bl	1000a9f0 <__mutex_enter_timeout_ms_veneer>
1000a37e:	89e2      	ldrh	r2, [r4, #14]
1000a380:	b292      	uxth	r2, r2
1000a382:	8a23      	ldrh	r3, [r4, #16]
1000a384:	b29b      	uxth	r3, r3
1000a386:	0029      	movs	r1, r5
1000a388:	0020      	movs	r0, r4
1000a38a:	f7ff fd6d 	bl	10009e68 <_tu_fifo_peek>
1000a38e:	0005      	movs	r5, r0
1000a390:	8a21      	ldrh	r1, [r4, #16]
1000a392:	b289      	uxth	r1, r1
1000a394:	b282      	uxth	r2, r0
1000a396:	0020      	movs	r0, r4
1000a398:	f7ff fd43 	bl	10009e22 <advance_pointer>
1000a39c:	8220      	strh	r0, [r4, #16]
1000a39e:	69a0      	ldr	r0, [r4, #24]
1000a3a0:	2800      	cmp	r0, #0
1000a3a2:	d001      	beq.n	1000a3a8 <tu_fifo_read+0x3e>
1000a3a4:	f000 fb04 	bl	1000a9b0 <__mutex_exit_veneer>
1000a3a8:	0028      	movs	r0, r5
1000a3aa:	bd70      	pop	{r4, r5, r6, pc}

1000a3ac <tu_fifo_read_n>:
1000a3ac:	b510      	push	{r4, lr}
1000a3ae:	2300      	movs	r3, #0
1000a3b0:	f7ff fe5d 	bl	1000a06e <_tu_fifo_read_n>
1000a3b4:	bd10      	pop	{r4, pc}

1000a3b6 <tu_fifo_write>:
1000a3b6:	b570      	push	{r4, r5, r6, lr}
1000a3b8:	0004      	movs	r4, r0
1000a3ba:	000d      	movs	r5, r1
1000a3bc:	6940      	ldr	r0, [r0, #20]
1000a3be:	2800      	cmp	r0, #0
1000a3c0:	d003      	beq.n	1000a3ca <tu_fifo_write+0x14>
1000a3c2:	2101      	movs	r1, #1
1000a3c4:	4249      	negs	r1, r1
1000a3c6:	f000 fb13 	bl	1000a9f0 <__mutex_enter_timeout_ms_veneer>
1000a3ca:	89e3      	ldrh	r3, [r4, #14]
1000a3cc:	b29e      	uxth	r6, r3
1000a3ce:	8a22      	ldrh	r2, [r4, #16]
1000a3d0:	b291      	uxth	r1, r2
1000a3d2:	1a9b      	subs	r3, r3, r2
1000a3d4:	b29b      	uxth	r3, r3
1000a3d6:	42b1      	cmp	r1, r6
1000a3d8:	d902      	bls.n	1000a3e0 <tu_fifo_write+0x2a>
1000a3da:	8962      	ldrh	r2, [r4, #10]
1000a3dc:	1a9b      	subs	r3, r3, r2
1000a3de:	b29b      	uxth	r3, r3
1000a3e0:	88a2      	ldrh	r2, [r4, #4]
1000a3e2:	429a      	cmp	r2, r3
1000a3e4:	d102      	bne.n	1000a3ec <tu_fifo_write+0x36>
1000a3e6:	7a20      	ldrb	r0, [r4, #8]
1000a3e8:	2800      	cmp	r0, #0
1000a3ea:	d017      	beq.n	1000a41c <tu_fifo_write+0x66>
1000a3ec:	0031      	movs	r1, r6
1000a3ee:	0020      	movs	r0, r4
1000a3f0:	f7ff fd32 	bl	10009e58 <get_relative_pointer>
1000a3f4:	88e2      	ldrh	r2, [r4, #6]
1000a3f6:	4350      	muls	r0, r2
1000a3f8:	6823      	ldr	r3, [r4, #0]
1000a3fa:	469c      	mov	ip, r3
1000a3fc:	4460      	add	r0, ip
1000a3fe:	0029      	movs	r1, r5
1000a400:	f7fd f8b2 	bl	10007568 <__wrap___aeabi_memcpy>
1000a404:	2201      	movs	r2, #1
1000a406:	0031      	movs	r1, r6
1000a408:	0020      	movs	r0, r4
1000a40a:	f7ff fd0a 	bl	10009e22 <advance_pointer>
1000a40e:	81e0      	strh	r0, [r4, #14]
1000a410:	6960      	ldr	r0, [r4, #20]
1000a412:	2800      	cmp	r0, #0
1000a414:	d003      	beq.n	1000a41e <tu_fifo_write+0x68>
1000a416:	f000 facb 	bl	1000a9b0 <__mutex_exit_veneer>
1000a41a:	2001      	movs	r0, #1
1000a41c:	bd70      	pop	{r4, r5, r6, pc}
1000a41e:	2001      	movs	r0, #1
1000a420:	e7fc      	b.n	1000a41c <tu_fifo_write+0x66>

1000a422 <tu_fifo_write_n>:
1000a422:	b510      	push	{r4, lr}
1000a424:	2300      	movs	r3, #0
1000a426:	f7ff feed 	bl	1000a204 <_tu_fifo_write_n>
1000a42a:	bd10      	pop	{r4, pc}

1000a42c <tu_fifo_clear>:
1000a42c:	b510      	push	{r4, lr}
1000a42e:	0004      	movs	r4, r0
1000a430:	6940      	ldr	r0, [r0, #20]
1000a432:	2800      	cmp	r0, #0
1000a434:	d003      	beq.n	1000a43e <tu_fifo_clear+0x12>
1000a436:	2101      	movs	r1, #1
1000a438:	4249      	negs	r1, r1
1000a43a:	f000 fad9 	bl	1000a9f0 <__mutex_enter_timeout_ms_veneer>
1000a43e:	69a0      	ldr	r0, [r4, #24]
1000a440:	2800      	cmp	r0, #0
1000a442:	d003      	beq.n	1000a44c <tu_fifo_clear+0x20>
1000a444:	2101      	movs	r1, #1
1000a446:	4249      	negs	r1, r1
1000a448:	f000 fad2 	bl	1000a9f0 <__mutex_enter_timeout_ms_veneer>
1000a44c:	2300      	movs	r3, #0
1000a44e:	81e3      	strh	r3, [r4, #14]
1000a450:	8223      	strh	r3, [r4, #16]
1000a452:	88a3      	ldrh	r3, [r4, #4]
1000a454:	005b      	lsls	r3, r3, #1
1000a456:	3b01      	subs	r3, #1
1000a458:	b29b      	uxth	r3, r3
1000a45a:	81a3      	strh	r3, [r4, #12]
1000a45c:	43db      	mvns	r3, r3
1000a45e:	8163      	strh	r3, [r4, #10]
1000a460:	6960      	ldr	r0, [r4, #20]
1000a462:	2800      	cmp	r0, #0
1000a464:	d001      	beq.n	1000a46a <tu_fifo_clear+0x3e>
1000a466:	f000 faa3 	bl	1000a9b0 <__mutex_exit_veneer>
1000a46a:	69a0      	ldr	r0, [r4, #24]
1000a46c:	2800      	cmp	r0, #0
1000a46e:	d001      	beq.n	1000a474 <tu_fifo_clear+0x48>
1000a470:	f000 fa9e 	bl	1000a9b0 <__mutex_exit_veneer>
1000a474:	2001      	movs	r0, #1
1000a476:	bd10      	pop	{r4, pc}

1000a478 <tu_fifo_set_overwritable>:
1000a478:	b570      	push	{r4, r5, r6, lr}
1000a47a:	0004      	movs	r4, r0
1000a47c:	000d      	movs	r5, r1
1000a47e:	6940      	ldr	r0, [r0, #20]
1000a480:	2800      	cmp	r0, #0
1000a482:	d003      	beq.n	1000a48c <tu_fifo_set_overwritable+0x14>
1000a484:	2101      	movs	r1, #1
1000a486:	4249      	negs	r1, r1
1000a488:	f000 fab2 	bl	1000a9f0 <__mutex_enter_timeout_ms_veneer>
1000a48c:	69a0      	ldr	r0, [r4, #24]
1000a48e:	2800      	cmp	r0, #0
1000a490:	d003      	beq.n	1000a49a <tu_fifo_set_overwritable+0x22>
1000a492:	2101      	movs	r1, #1
1000a494:	4249      	negs	r1, r1
1000a496:	f000 faab 	bl	1000a9f0 <__mutex_enter_timeout_ms_veneer>
1000a49a:	7225      	strb	r5, [r4, #8]
1000a49c:	6960      	ldr	r0, [r4, #20]
1000a49e:	2800      	cmp	r0, #0
1000a4a0:	d001      	beq.n	1000a4a6 <tu_fifo_set_overwritable+0x2e>
1000a4a2:	f000 fa85 	bl	1000a9b0 <__mutex_exit_veneer>
1000a4a6:	69a0      	ldr	r0, [r4, #24]
1000a4a8:	2800      	cmp	r0, #0
1000a4aa:	d001      	beq.n	1000a4b0 <tu_fifo_set_overwritable+0x38>
1000a4ac:	f000 fa80 	bl	1000a9b0 <__mutex_exit_veneer>
1000a4b0:	2001      	movs	r0, #1
1000a4b2:	bd70      	pop	{r4, r5, r6, pc}

1000a4b4 <_retrieve_unique_id_on_boot>:
1000a4b4:	b510      	push	{r4, lr}
1000a4b6:	4802      	ldr	r0, [pc, #8]	; (1000a4c0 <_retrieve_unique_id_on_boot+0xc>)
1000a4b8:	f000 f834 	bl	1000a524 <flash_get_unique_id>
1000a4bc:	bd10      	pop	{r4, pc}
1000a4be:	46c0      	nop			; (mov r8, r8)
1000a4c0:	20001e50 	.word	0x20001e50

1000a4c4 <pico_get_unique_board_id_string>:
1000a4c4:	b510      	push	{r4, lr}
1000a4c6:	2900      	cmp	r1, #0
1000a4c8:	d001      	beq.n	1000a4ce <pico_get_unique_board_id_string+0xa>
1000a4ca:	2300      	movs	r3, #0
1000a4cc:	e00a      	b.n	1000a4e4 <pico_get_unique_board_id_string+0x20>
1000a4ce:	4b11      	ldr	r3, [pc, #68]	; (1000a514 <pico_get_unique_board_id_string+0x50>)
1000a4d0:	4a11      	ldr	r2, [pc, #68]	; (1000a518 <pico_get_unique_board_id_string+0x54>)
1000a4d2:	311f      	adds	r1, #31
1000a4d4:	4811      	ldr	r0, [pc, #68]	; (1000a51c <pico_get_unique_board_id_string+0x58>)
1000a4d6:	f7fa f813 	bl	10004500 <__assert_func>
1000a4da:	2400      	movs	r4, #0
1000a4dc:	e00d      	b.n	1000a4fa <pico_get_unique_board_id_string+0x36>
1000a4de:	3237      	adds	r2, #55	; 0x37
1000a4e0:	54c2      	strb	r2, [r0, r3]
1000a4e2:	3301      	adds	r3, #1
1000a4e4:	1e4a      	subs	r2, r1, #1
1000a4e6:	429a      	cmp	r2, r3
1000a4e8:	d90f      	bls.n	1000a50a <pico_get_unique_board_id_string+0x46>
1000a4ea:	2b0f      	cmp	r3, #15
1000a4ec:	d80d      	bhi.n	1000a50a <pico_get_unique_board_id_string+0x46>
1000a4ee:	085a      	lsrs	r2, r3, #1
1000a4f0:	4c0b      	ldr	r4, [pc, #44]	; (1000a520 <pico_get_unique_board_id_string+0x5c>)
1000a4f2:	5ca2      	ldrb	r2, [r4, r2]
1000a4f4:	07dc      	lsls	r4, r3, #31
1000a4f6:	d4f0      	bmi.n	1000a4da <pico_get_unique_board_id_string+0x16>
1000a4f8:	2404      	movs	r4, #4
1000a4fa:	4122      	asrs	r2, r4
1000a4fc:	0014      	movs	r4, r2
1000a4fe:	220f      	movs	r2, #15
1000a500:	4022      	ands	r2, r4
1000a502:	2a09      	cmp	r2, #9
1000a504:	dceb      	bgt.n	1000a4de <pico_get_unique_board_id_string+0x1a>
1000a506:	3230      	adds	r2, #48	; 0x30
1000a508:	e7ea      	b.n	1000a4e0 <pico_get_unique_board_id_string+0x1c>
1000a50a:	18c0      	adds	r0, r0, r3
1000a50c:	2300      	movs	r3, #0
1000a50e:	7003      	strb	r3, [r0, #0]
1000a510:	bd10      	pop	{r4, pc}
1000a512:	46c0      	nop			; (mov r8, r8)
1000a514:	1000c5a0 	.word	0x1000c5a0
1000a518:	1000c5f0 	.word	0x1000c5f0
1000a51c:	1000c5a8 	.word	0x1000c5a8
1000a520:	20001e50 	.word	0x20001e50

1000a524 <flash_get_unique_id>:
1000a524:	b570      	push	{r4, r5, r6, lr}
1000a526:	b088      	sub	sp, #32
1000a528:	0004      	movs	r4, r0
1000a52a:	ad04      	add	r5, sp, #16
1000a52c:	2600      	movs	r6, #0
1000a52e:	9604      	str	r6, [sp, #16]
1000a530:	2209      	movs	r2, #9
1000a532:	2100      	movs	r1, #0
1000a534:	a805      	add	r0, sp, #20
1000a536:	f7fd f811 	bl	1000755c <__wrap_memset>
1000a53a:	9600      	str	r6, [sp, #0]
1000a53c:	2209      	movs	r2, #9
1000a53e:	2100      	movs	r1, #0
1000a540:	a801      	add	r0, sp, #4
1000a542:	f7fd f80b 	bl	1000755c <__wrap_memset>
1000a546:	234b      	movs	r3, #75	; 0x4b
1000a548:	702b      	strb	r3, [r5, #0]
1000a54a:	220d      	movs	r2, #13
1000a54c:	4669      	mov	r1, sp
1000a54e:	0028      	movs	r0, r5
1000a550:	f000 fa26 	bl	1000a9a0 <__flash_do_cmd_veneer>
1000a554:	2300      	movs	r3, #0
1000a556:	e004      	b.n	1000a562 <flash_get_unique_id+0x3e>
1000a558:	1d5a      	adds	r2, r3, #5
1000a55a:	4669      	mov	r1, sp
1000a55c:	5c8a      	ldrb	r2, [r1, r2]
1000a55e:	54e2      	strb	r2, [r4, r3]
1000a560:	3301      	adds	r3, #1
1000a562:	2b07      	cmp	r3, #7
1000a564:	ddf8      	ble.n	1000a558 <flash_get_unique_id+0x34>
1000a566:	b008      	add	sp, #32
1000a568:	bd70      	pop	{r4, r5, r6, pc}

1000a56a <i2c_write_blocking_internal>:
1000a56a:	b5f0      	push	{r4, r5, r6, r7, lr}
1000a56c:	46de      	mov	lr, fp
1000a56e:	4657      	mov	r7, sl
1000a570:	464e      	mov	r6, r9
1000a572:	4645      	mov	r5, r8
1000a574:	b5e0      	push	{r5, r6, r7, lr}
1000a576:	b085      	sub	sp, #20
1000a578:	0006      	movs	r6, r0
1000a57a:	0010      	movs	r0, r2
1000a57c:	001c      	movs	r4, r3
1000a57e:	9302      	str	r3, [sp, #8]
1000a580:	ab0e      	add	r3, sp, #56	; 0x38
1000a582:	781a      	ldrb	r2, [r3, #0]
1000a584:	9203      	str	r2, [sp, #12]
1000a586:	9d0f      	ldr	r5, [sp, #60]	; 0x3c
1000a588:	9f10      	ldr	r7, [sp, #64]	; 0x40
1000a58a:	6833      	ldr	r3, [r6, #0]
1000a58c:	2200      	movs	r2, #0
1000a58e:	66da      	str	r2, [r3, #108]	; 0x6c
1000a590:	6833      	ldr	r3, [r6, #0]
1000a592:	6059      	str	r1, [r3, #4]
1000a594:	6833      	ldr	r3, [r6, #0]
1000a596:	3201      	adds	r2, #1
1000a598:	66da      	str	r2, [r3, #108]	; 0x6c
1000a59a:	46a2      	mov	sl, r4
1000a59c:	2300      	movs	r3, #0
1000a59e:	4698      	mov	r8, r3
1000a5a0:	469b      	mov	fp, r3
1000a5a2:	2400      	movs	r4, #0
1000a5a4:	e02b      	b.n	1000a5fe <i2c_write_blocking_internal+0x94>
1000a5a6:	7932      	ldrb	r2, [r6, #4]
1000a5a8:	2a00      	cmp	r2, #0
1000a5aa:	d031      	beq.n	1000a610 <i2c_write_blocking_internal+0xa6>
1000a5ac:	2201      	movs	r2, #1
1000a5ae:	e02f      	b.n	1000a610 <i2c_write_blocking_internal+0xa6>
1000a5b0:	9903      	ldr	r1, [sp, #12]
1000a5b2:	2900      	cmp	r1, #0
1000a5b4:	d001      	beq.n	1000a5ba <i2c_write_blocking_internal+0x50>
1000a5b6:	2100      	movs	r1, #0
1000a5b8:	e02e      	b.n	1000a618 <i2c_write_blocking_internal+0xae>
1000a5ba:	2101      	movs	r1, #1
1000a5bc:	e02c      	b.n	1000a618 <i2c_write_blocking_internal+0xae>
1000a5be:	0038      	movs	r0, r7
1000a5c0:	47a8      	blx	r5
1000a5c2:	0003      	movs	r3, r0
1000a5c4:	4304      	orrs	r4, r0
1000a5c6:	b2e4      	uxtb	r4, r4
1000a5c8:	2b00      	cmp	r3, #0
1000a5ca:	d106      	bne.n	1000a5da <i2c_write_blocking_internal+0x70>
1000a5cc:	6832      	ldr	r2, [r6, #0]
1000a5ce:	6b52      	ldr	r2, [r2, #52]	; 0x34
1000a5d0:	06d2      	lsls	r2, r2, #27
1000a5d2:	d402      	bmi.n	1000a5da <i2c_write_blocking_internal+0x70>
1000a5d4:	2d00      	cmp	r5, #0
1000a5d6:	d1f2      	bne.n	1000a5be <i2c_write_blocking_internal+0x54>
1000a5d8:	e7f6      	b.n	1000a5c8 <i2c_write_blocking_internal+0x5e>
1000a5da:	2b00      	cmp	r3, #0
1000a5dc:	d109      	bne.n	1000a5f2 <i2c_write_blocking_internal+0x88>
1000a5de:	6832      	ldr	r2, [r6, #0]
1000a5e0:	2180      	movs	r1, #128	; 0x80
1000a5e2:	5851      	ldr	r1, [r2, r1]
1000a5e4:	468b      	mov	fp, r1
1000a5e6:	2900      	cmp	r1, #0
1000a5e8:	d11f      	bne.n	1000a62a <i2c_write_blocking_internal+0xc0>
1000a5ea:	2c00      	cmp	r4, #0
1000a5ec:	d12f      	bne.n	1000a64e <i2c_write_blocking_internal+0xe4>
1000a5ee:	45c1      	cmp	r9, r8
1000a5f0:	d01e      	beq.n	1000a630 <i2c_write_blocking_internal+0xc6>
1000a5f2:	2c00      	cmp	r4, #0
1000a5f4:	d133      	bne.n	1000a65e <i2c_write_blocking_internal+0xf4>
1000a5f6:	2201      	movs	r2, #1
1000a5f8:	4694      	mov	ip, r2
1000a5fa:	44e0      	add	r8, ip
1000a5fc:	9801      	ldr	r0, [sp, #4]
1000a5fe:	45d0      	cmp	r8, sl
1000a600:	da2d      	bge.n	1000a65e <i2c_write_blocking_internal+0xf4>
1000a602:	9a02      	ldr	r2, [sp, #8]
1000a604:	3a01      	subs	r2, #1
1000a606:	4691      	mov	r9, r2
1000a608:	4642      	mov	r2, r8
1000a60a:	2a00      	cmp	r2, #0
1000a60c:	d0cb      	beq.n	1000a5a6 <i2c_write_blocking_internal+0x3c>
1000a60e:	2200      	movs	r2, #0
1000a610:	0292      	lsls	r2, r2, #10
1000a612:	45c1      	cmp	r9, r8
1000a614:	d0cc      	beq.n	1000a5b0 <i2c_write_blocking_internal+0x46>
1000a616:	2100      	movs	r1, #0
1000a618:	0249      	lsls	r1, r1, #9
1000a61a:	430a      	orrs	r2, r1
1000a61c:	1c41      	adds	r1, r0, #1
1000a61e:	9101      	str	r1, [sp, #4]
1000a620:	7800      	ldrb	r0, [r0, #0]
1000a622:	6831      	ldr	r1, [r6, #0]
1000a624:	4302      	orrs	r2, r0
1000a626:	610a      	str	r2, [r1, #16]
1000a628:	e7d4      	b.n	1000a5d4 <i2c_write_blocking_internal+0x6a>
1000a62a:	6d52      	ldr	r2, [r2, #84]	; 0x54
1000a62c:	2401      	movs	r4, #1
1000a62e:	e00e      	b.n	1000a64e <i2c_write_blocking_internal+0xe4>
1000a630:	9a03      	ldr	r2, [sp, #12]
1000a632:	2a00      	cmp	r2, #0
1000a634:	d1dd      	bne.n	1000a5f2 <i2c_write_blocking_internal+0x88>
1000a636:	e00a      	b.n	1000a64e <i2c_write_blocking_internal+0xe4>
1000a638:	0038      	movs	r0, r7
1000a63a:	47a8      	blx	r5
1000a63c:	0003      	movs	r3, r0
1000a63e:	4304      	orrs	r4, r0
1000a640:	b2e4      	uxtb	r4, r4
1000a642:	2b00      	cmp	r3, #0
1000a644:	d106      	bne.n	1000a654 <i2c_write_blocking_internal+0xea>
1000a646:	6832      	ldr	r2, [r6, #0]
1000a648:	6b52      	ldr	r2, [r2, #52]	; 0x34
1000a64a:	0592      	lsls	r2, r2, #22
1000a64c:	d402      	bmi.n	1000a654 <i2c_write_blocking_internal+0xea>
1000a64e:	2d00      	cmp	r5, #0
1000a650:	d1f2      	bne.n	1000a638 <i2c_write_blocking_internal+0xce>
1000a652:	e7f6      	b.n	1000a642 <i2c_write_blocking_internal+0xd8>
1000a654:	2b00      	cmp	r3, #0
1000a656:	d1cc      	bne.n	1000a5f2 <i2c_write_blocking_internal+0x88>
1000a658:	6832      	ldr	r2, [r6, #0]
1000a65a:	6e12      	ldr	r2, [r2, #96]	; 0x60
1000a65c:	e7c9      	b.n	1000a5f2 <i2c_write_blocking_internal+0x88>
1000a65e:	2c00      	cmp	r4, #0
1000a660:	d009      	beq.n	1000a676 <i2c_write_blocking_internal+0x10c>
1000a662:	2b00      	cmp	r3, #0
1000a664:	d115      	bne.n	1000a692 <i2c_write_blocking_internal+0x128>
1000a666:	465b      	mov	r3, fp
1000a668:	2b00      	cmp	r3, #0
1000a66a:	d016      	beq.n	1000a69a <i2c_write_blocking_internal+0x130>
1000a66c:	07db      	lsls	r3, r3, #31
1000a66e:	d418      	bmi.n	1000a6a2 <i2c_write_blocking_internal+0x138>
1000a670:	465b      	mov	r3, fp
1000a672:	071b      	lsls	r3, r3, #28
1000a674:	d509      	bpl.n	1000a68a <i2c_write_blocking_internal+0x120>
1000a676:	9b03      	ldr	r3, [sp, #12]
1000a678:	7133      	strb	r3, [r6, #4]
1000a67a:	4640      	mov	r0, r8
1000a67c:	b005      	add	sp, #20
1000a67e:	bcf0      	pop	{r4, r5, r6, r7}
1000a680:	46bb      	mov	fp, r7
1000a682:	46b2      	mov	sl, r6
1000a684:	46a9      	mov	r9, r5
1000a686:	46a0      	mov	r8, r4
1000a688:	bdf0      	pop	{r4, r5, r6, r7, pc}
1000a68a:	2302      	movs	r3, #2
1000a68c:	425b      	negs	r3, r3
1000a68e:	4698      	mov	r8, r3
1000a690:	e7f1      	b.n	1000a676 <i2c_write_blocking_internal+0x10c>
1000a692:	2301      	movs	r3, #1
1000a694:	425b      	negs	r3, r3
1000a696:	4698      	mov	r8, r3
1000a698:	e7ed      	b.n	1000a676 <i2c_write_blocking_internal+0x10c>
1000a69a:	2302      	movs	r3, #2
1000a69c:	425b      	negs	r3, r3
1000a69e:	4698      	mov	r8, r3
1000a6a0:	e7e9      	b.n	1000a676 <i2c_write_blocking_internal+0x10c>
1000a6a2:	2302      	movs	r3, #2
1000a6a4:	425b      	negs	r3, r3
1000a6a6:	4698      	mov	r8, r3
1000a6a8:	e7e5      	b.n	1000a676 <i2c_write_blocking_internal+0x10c>

1000a6aa <i2c_read_blocking_internal>:
1000a6aa:	b5f0      	push	{r4, r5, r6, r7, lr}
1000a6ac:	46de      	mov	lr, fp
1000a6ae:	4657      	mov	r7, sl
1000a6b0:	464e      	mov	r6, r9
1000a6b2:	4645      	mov	r5, r8
1000a6b4:	b5e0      	push	{r5, r6, r7, lr}
1000a6b6:	b083      	sub	sp, #12
1000a6b8:	0005      	movs	r5, r0
1000a6ba:	4691      	mov	r9, r2
1000a6bc:	469a      	mov	sl, r3
1000a6be:	ab0c      	add	r3, sp, #48	; 0x30
1000a6c0:	781b      	ldrb	r3, [r3, #0]
1000a6c2:	9301      	str	r3, [sp, #4]
1000a6c4:	9e0d      	ldr	r6, [sp, #52]	; 0x34
1000a6c6:	9f0e      	ldr	r7, [sp, #56]	; 0x38
1000a6c8:	6803      	ldr	r3, [r0, #0]
1000a6ca:	2200      	movs	r2, #0
1000a6cc:	66da      	str	r2, [r3, #108]	; 0x6c
1000a6ce:	6803      	ldr	r3, [r0, #0]
1000a6d0:	6059      	str	r1, [r3, #4]
1000a6d2:	6803      	ldr	r3, [r0, #0]
1000a6d4:	3201      	adds	r2, #1
1000a6d6:	66da      	str	r2, [r3, #108]	; 0x6c
1000a6d8:	46d3      	mov	fp, sl
1000a6da:	2300      	movs	r3, #0
1000a6dc:	4698      	mov	r8, r3
1000a6de:	2400      	movs	r4, #0
1000a6e0:	e02a      	b.n	1000a738 <i2c_read_blocking_internal+0x8e>
1000a6e2:	7929      	ldrb	r1, [r5, #4]
1000a6e4:	2900      	cmp	r1, #0
1000a6e6:	d033      	beq.n	1000a750 <i2c_read_blocking_internal+0xa6>
1000a6e8:	2101      	movs	r1, #1
1000a6ea:	e031      	b.n	1000a750 <i2c_read_blocking_internal+0xa6>
1000a6ec:	9801      	ldr	r0, [sp, #4]
1000a6ee:	2800      	cmp	r0, #0
1000a6f0:	d001      	beq.n	1000a6f6 <i2c_read_blocking_internal+0x4c>
1000a6f2:	2000      	movs	r0, #0
1000a6f4:	e030      	b.n	1000a758 <i2c_read_blocking_internal+0xae>
1000a6f6:	2001      	movs	r0, #1
1000a6f8:	e02e      	b.n	1000a758 <i2c_read_blocking_internal+0xae>
1000a6fa:	0038      	movs	r0, r7
1000a6fc:	47b0      	blx	r6
1000a6fe:	0003      	movs	r3, r0
1000a700:	4304      	orrs	r4, r0
1000a702:	b2e4      	uxtb	r4, r4
1000a704:	2c00      	cmp	r4, #0
1000a706:	d10d      	bne.n	1000a724 <i2c_read_blocking_internal+0x7a>
1000a708:	682a      	ldr	r2, [r5, #0]
1000a70a:	6f92      	ldr	r2, [r2, #120]	; 0x78
1000a70c:	2a00      	cmp	r2, #0
1000a70e:	d109      	bne.n	1000a724 <i2c_read_blocking_internal+0x7a>
1000a710:	682a      	ldr	r2, [r5, #0]
1000a712:	2180      	movs	r1, #128	; 0x80
1000a714:	5851      	ldr	r1, [r2, r1]
1000a716:	6d54      	ldr	r4, [r2, #84]	; 0x54
1000a718:	1e62      	subs	r2, r4, #1
1000a71a:	4194      	sbcs	r4, r2
1000a71c:	b2e4      	uxtb	r4, r4
1000a71e:	2e00      	cmp	r6, #0
1000a720:	d1eb      	bne.n	1000a6fa <i2c_read_blocking_internal+0x50>
1000a722:	e7ef      	b.n	1000a704 <i2c_read_blocking_internal+0x5a>
1000a724:	2c00      	cmp	r4, #0
1000a726:	d11e      	bne.n	1000a766 <i2c_read_blocking_internal+0xbc>
1000a728:	682a      	ldr	r2, [r5, #0]
1000a72a:	6912      	ldr	r2, [r2, #16]
1000a72c:	4649      	mov	r1, r9
1000a72e:	700a      	strb	r2, [r1, #0]
1000a730:	2201      	movs	r2, #1
1000a732:	4694      	mov	ip, r2
1000a734:	44e0      	add	r8, ip
1000a736:	44e1      	add	r9, ip
1000a738:	45d8      	cmp	r8, fp
1000a73a:	da14      	bge.n	1000a766 <i2c_read_blocking_internal+0xbc>
1000a73c:	4652      	mov	r2, sl
1000a73e:	1e54      	subs	r4, r2, #1
1000a740:	682a      	ldr	r2, [r5, #0]
1000a742:	6f51      	ldr	r1, [r2, #116]	; 0x74
1000a744:	2910      	cmp	r1, #16
1000a746:	d0fb      	beq.n	1000a740 <i2c_read_blocking_internal+0x96>
1000a748:	4641      	mov	r1, r8
1000a74a:	2900      	cmp	r1, #0
1000a74c:	d0c9      	beq.n	1000a6e2 <i2c_read_blocking_internal+0x38>
1000a74e:	2100      	movs	r1, #0
1000a750:	0289      	lsls	r1, r1, #10
1000a752:	4544      	cmp	r4, r8
1000a754:	d0ca      	beq.n	1000a6ec <i2c_read_blocking_internal+0x42>
1000a756:	2000      	movs	r0, #0
1000a758:	0240      	lsls	r0, r0, #9
1000a75a:	4308      	orrs	r0, r1
1000a75c:	2180      	movs	r1, #128	; 0x80
1000a75e:	0049      	lsls	r1, r1, #1
1000a760:	4301      	orrs	r1, r0
1000a762:	6111      	str	r1, [r2, #16]
1000a764:	e7d4      	b.n	1000a710 <i2c_read_blocking_internal+0x66>
1000a766:	2c00      	cmp	r4, #0
1000a768:	d004      	beq.n	1000a774 <i2c_read_blocking_internal+0xca>
1000a76a:	2b00      	cmp	r3, #0
1000a76c:	d00c      	beq.n	1000a788 <i2c_read_blocking_internal+0xde>
1000a76e:	2301      	movs	r3, #1
1000a770:	425b      	negs	r3, r3
1000a772:	4698      	mov	r8, r3
1000a774:	9b01      	ldr	r3, [sp, #4]
1000a776:	712b      	strb	r3, [r5, #4]
1000a778:	4640      	mov	r0, r8
1000a77a:	b003      	add	sp, #12
1000a77c:	bcf0      	pop	{r4, r5, r6, r7}
1000a77e:	46bb      	mov	fp, r7
1000a780:	46b2      	mov	sl, r6
1000a782:	46a9      	mov	r9, r5
1000a784:	46a0      	mov	r8, r4
1000a786:	bdf0      	pop	{r4, r5, r6, r7, pc}
1000a788:	2302      	movs	r3, #2
1000a78a:	425b      	negs	r3, r3
1000a78c:	4698      	mov	r8, r3
1000a78e:	e7f1      	b.n	1000a774 <i2c_read_blocking_internal+0xca>

1000a790 <i2c_set_baudrate>:
1000a790:	b5f0      	push	{r4, r5, r6, r7, lr}
1000a792:	46d6      	mov	lr, sl
1000a794:	464f      	mov	r7, r9
1000a796:	4646      	mov	r6, r8
1000a798:	b5c0      	push	{r6, r7, lr}
1000a79a:	0005      	movs	r5, r0
1000a79c:	000c      	movs	r4, r1
1000a79e:	2005      	movs	r0, #5
1000a7a0:	f7fa f862 	bl	10004868 <clock_get_hz>
1000a7a4:	0006      	movs	r6, r0
1000a7a6:	0860      	lsrs	r0, r4, #1
1000a7a8:	1980      	adds	r0, r0, r6
1000a7aa:	0021      	movs	r1, r4
1000a7ac:	f7fb fa84 	bl	10005cb8 <__wrap___aeabi_uidiv>
1000a7b0:	0007      	movs	r7, r0
1000a7b2:	0043      	lsls	r3, r0, #1
1000a7b4:	4699      	mov	r9, r3
1000a7b6:	4481      	add	r9, r0
1000a7b8:	2105      	movs	r1, #5
1000a7ba:	4648      	mov	r0, r9
1000a7bc:	f7fb fa7c 	bl	10005cb8 <__wrap___aeabi_uidiv>
1000a7c0:	4680      	mov	r8, r0
1000a7c2:	1a3b      	subs	r3, r7, r0
1000a7c4:	469a      	mov	sl, r3
1000a7c6:	4b28      	ldr	r3, [pc, #160]	; (1000a868 <i2c_set_baudrate+0xd8>)
1000a7c8:	429c      	cmp	r4, r3
1000a7ca:	d824      	bhi.n	1000a816 <i2c_set_baudrate+0x86>
1000a7cc:	0070      	lsls	r0, r6, #1
1000a7ce:	1980      	adds	r0, r0, r6
1000a7d0:	4926      	ldr	r1, [pc, #152]	; (1000a86c <i2c_set_baudrate+0xdc>)
1000a7d2:	f7fb fa71 	bl	10005cb8 <__wrap___aeabi_uidiv>
1000a7d6:	1c44      	adds	r4, r0, #1
1000a7d8:	4643      	mov	r3, r8
1000a7da:	3b02      	subs	r3, #2
1000a7dc:	42a3      	cmp	r3, r4
1000a7de:	d321      	bcc.n	1000a824 <i2c_set_baudrate+0x94>
1000a7e0:	682b      	ldr	r3, [r5, #0]
1000a7e2:	2200      	movs	r2, #0
1000a7e4:	66da      	str	r2, [r3, #108]	; 0x6c
1000a7e6:	6829      	ldr	r1, [r5, #0]
1000a7e8:	680a      	ldr	r2, [r1, #0]
1000a7ea:	2304      	movs	r3, #4
1000a7ec:	4053      	eors	r3, r2
1000a7ee:	2206      	movs	r2, #6
1000a7f0:	401a      	ands	r2, r3
1000a7f2:	2380      	movs	r3, #128	; 0x80
1000a7f4:	015b      	lsls	r3, r3, #5
1000a7f6:	430b      	orrs	r3, r1
1000a7f8:	601a      	str	r2, [r3, #0]
1000a7fa:	682b      	ldr	r3, [r5, #0]
1000a7fc:	4652      	mov	r2, sl
1000a7fe:	61da      	str	r2, [r3, #28]
1000a800:	682b      	ldr	r3, [r5, #0]
1000a802:	4642      	mov	r2, r8
1000a804:	621a      	str	r2, [r3, #32]
1000a806:	464b      	mov	r3, r9
1000a808:	2b4f      	cmp	r3, #79	; 0x4f
1000a80a:	d911      	bls.n	1000a830 <i2c_set_baudrate+0xa0>
1000a80c:	2150      	movs	r1, #80	; 0x50
1000a80e:	4648      	mov	r0, r9
1000a810:	f7fb fa52 	bl	10005cb8 <__wrap___aeabi_uidiv>
1000a814:	e00d      	b.n	1000a832 <i2c_set_baudrate+0xa2>
1000a816:	0070      	lsls	r0, r6, #1
1000a818:	1980      	adds	r0, r0, r6
1000a81a:	4915      	ldr	r1, [pc, #84]	; (1000a870 <i2c_set_baudrate+0xe0>)
1000a81c:	f7fb fa4c 	bl	10005cb8 <__wrap___aeabi_uidiv>
1000a820:	1c44      	adds	r4, r0, #1
1000a822:	e7d9      	b.n	1000a7d8 <i2c_set_baudrate+0x48>
1000a824:	4b13      	ldr	r3, [pc, #76]	; (1000a874 <i2c_set_baudrate+0xe4>)
1000a826:	4a14      	ldr	r2, [pc, #80]	; (1000a878 <i2c_set_baudrate+0xe8>)
1000a828:	215f      	movs	r1, #95	; 0x5f
1000a82a:	4814      	ldr	r0, [pc, #80]	; (1000a87c <i2c_set_baudrate+0xec>)
1000a82c:	f7f9 fe68 	bl	10004500 <__assert_func>
1000a830:	2001      	movs	r0, #1
1000a832:	23a0      	movs	r3, #160	; 0xa0
1000a834:	682a      	ldr	r2, [r5, #0]
1000a836:	50d0      	str	r0, [r2, r3]
1000a838:	682a      	ldr	r2, [r5, #0]
1000a83a:	0011      	movs	r1, r2
1000a83c:	317c      	adds	r1, #124	; 0x7c
1000a83e:	6fd0      	ldr	r0, [r2, #124]	; 0x7c
1000a840:	4044      	eors	r4, r0
1000a842:	0424      	lsls	r4, r4, #16
1000a844:	0c24      	lsrs	r4, r4, #16
1000a846:	2380      	movs	r3, #128	; 0x80
1000a848:	015b      	lsls	r3, r3, #5
1000a84a:	430b      	orrs	r3, r1
1000a84c:	601c      	str	r4, [r3, #0]
1000a84e:	682b      	ldr	r3, [r5, #0]
1000a850:	2201      	movs	r2, #1
1000a852:	66da      	str	r2, [r3, #108]	; 0x6c
1000a854:	0039      	movs	r1, r7
1000a856:	0030      	movs	r0, r6
1000a858:	f7fb fa2e 	bl	10005cb8 <__wrap___aeabi_uidiv>
1000a85c:	bce0      	pop	{r5, r6, r7}
1000a85e:	46ba      	mov	sl, r7
1000a860:	46b1      	mov	r9, r6
1000a862:	46a8      	mov	r8, r5
1000a864:	bdf0      	pop	{r4, r5, r6, r7, pc}
1000a866:	46c0      	nop			; (mov r8, r8)
1000a868:	000f423f 	.word	0x000f423f
1000a86c:	00989680 	.word	0x00989680
1000a870:	017d7840 	.word	0x017d7840
1000a874:	1000c77c 	.word	0x1000c77c
1000a878:	1000c7dc 	.word	0x1000c7dc
1000a87c:	1000c79c 	.word	0x1000c79c

1000a880 <i2c_init>:
1000a880:	b510      	push	{r4, lr}
1000a882:	4b11      	ldr	r3, [pc, #68]	; (1000a8c8 <i2c_init+0x48>)
1000a884:	4298      	cmp	r0, r3
1000a886:	d01c      	beq.n	1000a8c2 <i2c_init+0x42>
1000a888:	2210      	movs	r2, #16
1000a88a:	4b10      	ldr	r3, [pc, #64]	; (1000a8cc <i2c_init+0x4c>)
1000a88c:	601a      	str	r2, [r3, #0]
1000a88e:	4b10      	ldr	r3, [pc, #64]	; (1000a8d0 <i2c_init+0x50>)
1000a890:	601a      	str	r2, [r3, #0]
1000a892:	4b10      	ldr	r3, [pc, #64]	; (1000a8d4 <i2c_init+0x54>)
1000a894:	689b      	ldr	r3, [r3, #8]
1000a896:	0014      	movs	r4, r2
1000a898:	439c      	bics	r4, r3
1000a89a:	1e23      	subs	r3, r4, #0
1000a89c:	d1f9      	bne.n	1000a892 <i2c_init+0x12>
1000a89e:	7104      	strb	r4, [r0, #4]
1000a8a0:	6802      	ldr	r2, [r0, #0]
1000a8a2:	66d4      	str	r4, [r2, #108]	; 0x6c
1000a8a4:	6802      	ldr	r2, [r0, #0]
1000a8a6:	2466      	movs	r4, #102	; 0x66
1000a8a8:	34ff      	adds	r4, #255	; 0xff
1000a8aa:	6014      	str	r4, [r2, #0]
1000a8ac:	6802      	ldr	r2, [r0, #0]
1000a8ae:	63d3      	str	r3, [r2, #60]	; 0x3c
1000a8b0:	6802      	ldr	r2, [r0, #0]
1000a8b2:	6393      	str	r3, [r2, #56]	; 0x38
1000a8b4:	3388      	adds	r3, #136	; 0x88
1000a8b6:	2203      	movs	r2, #3
1000a8b8:	6804      	ldr	r4, [r0, #0]
1000a8ba:	50e2      	str	r2, [r4, r3]
1000a8bc:	f7ff ff68 	bl	1000a790 <i2c_set_baudrate>
1000a8c0:	bd10      	pop	{r4, pc}
1000a8c2:	2208      	movs	r2, #8
1000a8c4:	e7e1      	b.n	1000a88a <i2c_init+0xa>
1000a8c6:	46c0      	nop			; (mov r8, r8)
1000a8c8:	20000524 	.word	0x20000524
1000a8cc:	4000e000 	.word	0x4000e000
1000a8d0:	4000f000 	.word	0x4000f000
1000a8d4:	4000c000 	.word	0x4000c000

1000a8d8 <i2c_write_blocking>:
1000a8d8:	b530      	push	{r4, r5, lr}
1000a8da:	b085      	sub	sp, #20
1000a8dc:	ac08      	add	r4, sp, #32
1000a8de:	7825      	ldrb	r5, [r4, #0]
1000a8e0:	2400      	movs	r4, #0
1000a8e2:	9402      	str	r4, [sp, #8]
1000a8e4:	9401      	str	r4, [sp, #4]
1000a8e6:	9500      	str	r5, [sp, #0]
1000a8e8:	f7ff fe3f 	bl	1000a56a <i2c_write_blocking_internal>
1000a8ec:	b005      	add	sp, #20
1000a8ee:	bd30      	pop	{r4, r5, pc}

1000a8f0 <i2c_read_blocking>:
1000a8f0:	b530      	push	{r4, r5, lr}
1000a8f2:	b085      	sub	sp, #20
1000a8f4:	ac08      	add	r4, sp, #32
1000a8f6:	7825      	ldrb	r5, [r4, #0]
1000a8f8:	2400      	movs	r4, #0
1000a8fa:	9402      	str	r4, [sp, #8]
1000a8fc:	9401      	str	r4, [sp, #4]
1000a8fe:	9500      	str	r5, [sp, #0]
1000a900:	f7ff fed3 	bl	1000a6aa <i2c_read_blocking_internal>
1000a904:	b005      	add	sp, #20
1000a906:	bd30      	pop	{r4, r5, pc}

1000a908 <adc_init>:
1000a908:	2301      	movs	r3, #1
1000a90a:	4a08      	ldr	r2, [pc, #32]	; (1000a92c <adc_init+0x24>)
1000a90c:	6013      	str	r3, [r2, #0]
1000a90e:	4a08      	ldr	r2, [pc, #32]	; (1000a930 <adc_init+0x28>)
1000a910:	6013      	str	r3, [r2, #0]
1000a912:	4b08      	ldr	r3, [pc, #32]	; (1000a934 <adc_init+0x2c>)
1000a914:	689a      	ldr	r2, [r3, #8]
1000a916:	2301      	movs	r3, #1
1000a918:	4393      	bics	r3, r2
1000a91a:	d1fa      	bne.n	1000a912 <adc_init+0xa>
1000a91c:	4b06      	ldr	r3, [pc, #24]	; (1000a938 <adc_init+0x30>)
1000a91e:	2201      	movs	r2, #1
1000a920:	601a      	str	r2, [r3, #0]
1000a922:	4b05      	ldr	r3, [pc, #20]	; (1000a938 <adc_init+0x30>)
1000a924:	681b      	ldr	r3, [r3, #0]
1000a926:	05db      	lsls	r3, r3, #23
1000a928:	d5fb      	bpl.n	1000a922 <adc_init+0x1a>
1000a92a:	4770      	bx	lr
1000a92c:	4000e000 	.word	0x4000e000
1000a930:	4000f000 	.word	0x4000f000
1000a934:	4000c000 	.word	0x4000c000
1000a938:	4004c000 	.word	0x4004c000

1000a93c <strlen>:
1000a93c:	b510      	push	{r4, lr}
1000a93e:	0783      	lsls	r3, r0, #30
1000a940:	d00a      	beq.n	1000a958 <strlen+0x1c>
1000a942:	0003      	movs	r3, r0
1000a944:	2103      	movs	r1, #3
1000a946:	e002      	b.n	1000a94e <strlen+0x12>
1000a948:	3301      	adds	r3, #1
1000a94a:	420b      	tst	r3, r1
1000a94c:	d005      	beq.n	1000a95a <strlen+0x1e>
1000a94e:	781a      	ldrb	r2, [r3, #0]
1000a950:	2a00      	cmp	r2, #0
1000a952:	d1f9      	bne.n	1000a948 <strlen+0xc>
1000a954:	1a18      	subs	r0, r3, r0
1000a956:	bd10      	pop	{r4, pc}
1000a958:	0003      	movs	r3, r0
1000a95a:	6819      	ldr	r1, [r3, #0]
1000a95c:	4a0c      	ldr	r2, [pc, #48]	; (1000a990 <strlen+0x54>)
1000a95e:	4c0d      	ldr	r4, [pc, #52]	; (1000a994 <strlen+0x58>)
1000a960:	188a      	adds	r2, r1, r2
1000a962:	438a      	bics	r2, r1
1000a964:	4222      	tst	r2, r4
1000a966:	d10f      	bne.n	1000a988 <strlen+0x4c>
1000a968:	6859      	ldr	r1, [r3, #4]
1000a96a:	4a09      	ldr	r2, [pc, #36]	; (1000a990 <strlen+0x54>)
1000a96c:	3304      	adds	r3, #4
1000a96e:	188a      	adds	r2, r1, r2
1000a970:	438a      	bics	r2, r1
1000a972:	4222      	tst	r2, r4
1000a974:	d108      	bne.n	1000a988 <strlen+0x4c>
1000a976:	6859      	ldr	r1, [r3, #4]
1000a978:	4a05      	ldr	r2, [pc, #20]	; (1000a990 <strlen+0x54>)
1000a97a:	3304      	adds	r3, #4
1000a97c:	188a      	adds	r2, r1, r2
1000a97e:	438a      	bics	r2, r1
1000a980:	4222      	tst	r2, r4
1000a982:	d0f1      	beq.n	1000a968 <strlen+0x2c>
1000a984:	e000      	b.n	1000a988 <strlen+0x4c>
1000a986:	3301      	adds	r3, #1
1000a988:	781a      	ldrb	r2, [r3, #0]
1000a98a:	2a00      	cmp	r2, #0
1000a98c:	d1fb      	bne.n	1000a986 <strlen+0x4a>
1000a98e:	e7e1      	b.n	1000a954 <strlen+0x18>
1000a990:	fefefeff 	.word	0xfefefeff
1000a994:	80808080 	.word	0x80808080

1000a998 <_fini>:
1000a998:	b5f8      	push	{r3, r4, r5, r6, r7, lr}
1000a99a:	46c0      	nop			; (mov r8, r8)
1000a99c:	0000      	movs	r0, r0
	...

1000a9a0 <__flash_do_cmd_veneer>:
1000a9a0:	b401      	push	{r0}
1000a9a2:	4802      	ldr	r0, [pc, #8]	; (1000a9ac <__flash_do_cmd_veneer+0xc>)
1000a9a4:	4684      	mov	ip, r0
1000a9a6:	bc01      	pop	{r0}
1000a9a8:	4760      	bx	ip
1000a9aa:	bf00      	nop
1000a9ac:	20000305 	.word	0x20000305

1000a9b0 <__mutex_exit_veneer>:
1000a9b0:	b401      	push	{r0}
1000a9b2:	4802      	ldr	r0, [pc, #8]	; (1000a9bc <__mutex_exit_veneer+0xc>)
1000a9b4:	4684      	mov	ip, r0
1000a9b6:	bc01      	pop	{r0}
1000a9b8:	4760      	bx	ip
1000a9ba:	bf00      	nop
1000a9bc:	20000251 	.word	0x20000251

1000a9c0 <____aeabi_ldiv0_veneer>:
1000a9c0:	b401      	push	{r0}
1000a9c2:	4802      	ldr	r0, [pc, #8]	; (1000a9cc <____aeabi_ldiv0_veneer+0xc>)
1000a9c4:	4684      	mov	ip, r0
1000a9c6:	bc01      	pop	{r0}
1000a9c8:	4760      	bx	ip
1000a9ca:	bf00      	nop
1000a9cc:	200003dd 	.word	0x200003dd

1000a9d0 <____aeabi_idiv0_veneer>:
1000a9d0:	b401      	push	{r0}
1000a9d2:	4802      	ldr	r0, [pc, #8]	; (1000a9dc <____aeabi_idiv0_veneer+0xc>)
1000a9d4:	4684      	mov	ip, r0
1000a9d6:	bc01      	pop	{r0}
1000a9d8:	4760      	bx	ip
1000a9da:	bf00      	nop
1000a9dc:	200003dd 	.word	0x200003dd

1000a9e0 <__mutex_try_enter_veneer>:
1000a9e0:	b401      	push	{r0}
1000a9e2:	4802      	ldr	r0, [pc, #8]	; (1000a9ec <__mutex_try_enter_veneer+0xc>)
1000a9e4:	4684      	mov	ip, r0
1000a9e6:	bc01      	pop	{r0}
1000a9e8:	4760      	bx	ip
1000a9ea:	bf00      	nop
1000a9ec:	20000109 	.word	0x20000109

1000a9f0 <__mutex_enter_timeout_ms_veneer>:
1000a9f0:	b401      	push	{r0}
1000a9f2:	4802      	ldr	r0, [pc, #8]	; (1000a9fc <__mutex_enter_timeout_ms_veneer+0xc>)
1000a9f4:	4684      	mov	ip, r0
1000a9f6:	bc01      	pop	{r0}
1000a9f8:	4760      	bx	ip
1000a9fa:	bf00      	nop
1000a9fc:	200001dd 	.word	0x200001dd

1000aa00 <__mutex_enter_blocking_veneer>:
1000aa00:	b401      	push	{r0}
1000aa02:	4802      	ldr	r0, [pc, #8]	; (1000aa0c <__mutex_enter_blocking_veneer+0xc>)
1000aa04:	4684      	mov	ip, r0
1000aa06:	bc01      	pop	{r0}
1000aa08:	4760      	bx	ip
1000aa0a:	bf00      	nop
1000aa0c:	200000c1 	.word	0x200000c1

Disassembly of section .data:

200000c0 <mutex_enter_blocking>:
200000c0:	b510      	push	{r4, lr}
200000c2:	23d0      	movs	r3, #208	; 0xd0
200000c4:	061b      	lsls	r3, r3, #24
200000c6:	2400      	movs	r4, #0
200000c8:	571c      	ldrsb	r4, [r3, r4]
200000ca:	6802      	ldr	r2, [r0, #0]
200000cc:	f3ef 8110 	mrs	r1, PRIMASK
200000d0:	b672      	cpsid	i
200000d2:	6813      	ldr	r3, [r2, #0]
200000d4:	2b00      	cmp	r3, #0
200000d6:	d0fc      	beq.n	200000d2 <mutex_enter_blocking+0x12>
200000d8:	f3bf 8f5f 	dmb	sy
200000dc:	2304      	movs	r3, #4
200000de:	56c3      	ldrsb	r3, [r0, r3]
200000e0:	2b00      	cmp	r3, #0
200000e2:	db08      	blt.n	200000f6 <mutex_enter_blocking+0x36>
200000e4:	6803      	ldr	r3, [r0, #0]
200000e6:	f3bf 8f5f 	dmb	sy
200000ea:	2200      	movs	r2, #0
200000ec:	601a      	str	r2, [r3, #0]
200000ee:	f381 8810 	msr	PRIMASK, r1
200000f2:	bf20      	wfe
200000f4:	e7e9      	b.n	200000ca <mutex_enter_blocking+0xa>
200000f6:	7104      	strb	r4, [r0, #4]
200000f8:	6803      	ldr	r3, [r0, #0]
200000fa:	f3bf 8f5f 	dmb	sy
200000fe:	2200      	movs	r2, #0
20000100:	601a      	str	r2, [r3, #0]
20000102:	f381 8810 	msr	PRIMASK, r1
20000106:	bd10      	pop	{r4, pc}

20000108 <mutex_try_enter>:
20000108:	0003      	movs	r3, r0
2000010a:	6800      	ldr	r0, [r0, #0]
2000010c:	f3ef 8c10 	mrs	ip, PRIMASK
20000110:	b672      	cpsid	i
20000112:	6802      	ldr	r2, [r0, #0]
20000114:	2a00      	cmp	r2, #0
20000116:	d0fc      	beq.n	20000112 <mutex_try_enter+0xa>
20000118:	f3bf 8f5f 	dmb	sy
2000011c:	2204      	movs	r2, #4
2000011e:	569a      	ldrsb	r2, [r3, r2]
20000120:	2a00      	cmp	r2, #0
20000122:	db0b      	blt.n	2000013c <mutex_try_enter+0x34>
20000124:	2900      	cmp	r1, #0
20000126:	d010      	beq.n	2000014a <mutex_try_enter+0x42>
20000128:	600a      	str	r2, [r1, #0]
2000012a:	2000      	movs	r0, #0
2000012c:	681b      	ldr	r3, [r3, #0]
2000012e:	f3bf 8f5f 	dmb	sy
20000132:	2200      	movs	r2, #0
20000134:	601a      	str	r2, [r3, #0]
20000136:	f38c 8810 	msr	PRIMASK, ip
2000013a:	4770      	bx	lr
2000013c:	22d0      	movs	r2, #208	; 0xd0
2000013e:	0612      	lsls	r2, r2, #24
20000140:	7812      	ldrb	r2, [r2, #0]
20000142:	b252      	sxtb	r2, r2
20000144:	711a      	strb	r2, [r3, #4]
20000146:	2001      	movs	r0, #1
20000148:	e7f0      	b.n	2000012c <mutex_try_enter+0x24>
2000014a:	2000      	movs	r0, #0
2000014c:	e7ee      	b.n	2000012c <mutex_try_enter+0x24>
	...

20000150 <mutex_enter_block_until>:
20000150:	b5f8      	push	{r3, r4, r5, r6, r7, lr}
20000152:	46ce      	mov	lr, r9
20000154:	4647      	mov	r7, r8
20000156:	b580      	push	{r7, lr}
20000158:	0004      	movs	r4, r0
2000015a:	0017      	movs	r7, r2
2000015c:	4698      	mov	r8, r3
2000015e:	6803      	ldr	r3, [r0, #0]
20000160:	2b00      	cmp	r3, #0
20000162:	d020      	beq.n	200001a6 <mutex_enter_block_until+0x56>
20000164:	23d0      	movs	r3, #208	; 0xd0
20000166:	061b      	lsls	r3, r3, #24
20000168:	781b      	ldrb	r3, [r3, #0]
2000016a:	b25b      	sxtb	r3, r3
2000016c:	4699      	mov	r9, r3
2000016e:	6826      	ldr	r6, [r4, #0]
20000170:	f3ef 8c10 	mrs	ip, PRIMASK
20000174:	b672      	cpsid	i
20000176:	6835      	ldr	r5, [r6, #0]
20000178:	2d00      	cmp	r5, #0
2000017a:	d0fc      	beq.n	20000176 <mutex_enter_block_until+0x26>
2000017c:	f3bf 8f5f 	dmb	sy
20000180:	2504      	movs	r5, #4
20000182:	5765      	ldrsb	r5, [r4, r5]
20000184:	2d00      	cmp	r5, #0
20000186:	db14      	blt.n	200001b2 <mutex_enter_block_until+0x62>
20000188:	6823      	ldr	r3, [r4, #0]
2000018a:	f3bf 8f5f 	dmb	sy
2000018e:	2200      	movs	r2, #0
20000190:	601a      	str	r2, [r3, #0]
20000192:	f38c 8810 	msr	PRIMASK, ip
20000196:	0038      	movs	r0, r7
20000198:	4641      	mov	r1, r8
2000019a:	f000 f931 	bl	20000400 <__best_effort_wfe_or_timeout_veneer>
2000019e:	2800      	cmp	r0, #0
200001a0:	d0e5      	beq.n	2000016e <mutex_enter_block_until+0x1e>
200001a2:	2000      	movs	r0, #0
200001a4:	e00f      	b.n	200001c6 <mutex_enter_block_until+0x76>
200001a6:	4b0a      	ldr	r3, [pc, #40]	; (200001d0 <mutex_enter_block_until+0x80>)
200001a8:	4a0a      	ldr	r2, [pc, #40]	; (200001d4 <mutex_enter_block_until+0x84>)
200001aa:	217a      	movs	r1, #122	; 0x7a
200001ac:	480a      	ldr	r0, [pc, #40]	; (200001d8 <mutex_enter_block_until+0x88>)
200001ae:	f000 f91f 	bl	200003f0 <____assert_func_veneer>
200001b2:	464b      	mov	r3, r9
200001b4:	7123      	strb	r3, [r4, #4]
200001b6:	6823      	ldr	r3, [r4, #0]
200001b8:	f3bf 8f5f 	dmb	sy
200001bc:	2200      	movs	r2, #0
200001be:	601a      	str	r2, [r3, #0]
200001c0:	f38c 8810 	msr	PRIMASK, ip
200001c4:	2001      	movs	r0, #1
200001c6:	bcc0      	pop	{r6, r7}
200001c8:	46b9      	mov	r9, r7
200001ca:	46b0      	mov	r8, r6
200001cc:	bdf8      	pop	{r3, r4, r5, r6, r7, pc}
200001ce:	46c0      	nop			; (mov r8, r8)
200001d0:	1000b868 	.word	0x1000b868
200001d4:	1000b8c0 	.word	0x1000b8c0
200001d8:	1000b830 	.word	0x1000b830

200001dc <mutex_enter_timeout_ms>:
200001dc:	b5f0      	push	{r4, r5, r6, r7, lr}
200001de:	46c6      	mov	lr, r8
200001e0:	b500      	push	{lr}
200001e2:	b082      	sub	sp, #8
200001e4:	0007      	movs	r7, r0
200001e6:	4688      	mov	r8, r1
200001e8:	f000 f912 	bl	20000410 <__time_us_64_veneer>
200001ec:	0004      	movs	r4, r0
200001ee:	1e0d      	subs	r5, r1, #0
200001f0:	db1c      	blt.n	2000022c <mutex_enter_timeout_ms+0x50>
200001f2:	9001      	str	r0, [sp, #4]
200001f4:	22fa      	movs	r2, #250	; 0xfa
200001f6:	0092      	lsls	r2, r2, #2
200001f8:	2300      	movs	r3, #0
200001fa:	4640      	mov	r0, r8
200001fc:	2100      	movs	r1, #0
200001fe:	f000 f8ef 	bl	200003e0 <____wrap___aeabi_lmul_veneer>
20000202:	0022      	movs	r2, r4
20000204:	002b      	movs	r3, r5
20000206:	1812      	adds	r2, r2, r0
20000208:	414b      	adcs	r3, r1
2000020a:	429d      	cmp	r5, r3
2000020c:	d802      	bhi.n	20000214 <mutex_enter_timeout_ms+0x38>
2000020e:	d104      	bne.n	2000021a <mutex_enter_timeout_ms+0x3e>
20000210:	4294      	cmp	r4, r2
20000212:	d902      	bls.n	2000021a <mutex_enter_timeout_ms+0x3e>
20000214:	2201      	movs	r2, #1
20000216:	4252      	negs	r2, r2
20000218:	17d3      	asrs	r3, r2, #31
2000021a:	2b00      	cmp	r3, #0
2000021c:	db0c      	blt.n	20000238 <mutex_enter_timeout_ms+0x5c>
2000021e:	0038      	movs	r0, r7
20000220:	f7ff ff96 	bl	20000150 <mutex_enter_block_until>
20000224:	b002      	add	sp, #8
20000226:	bc80      	pop	{r7}
20000228:	46b8      	mov	r8, r7
2000022a:	bdf0      	pop	{r4, r5, r6, r7, pc}
2000022c:	4b05      	ldr	r3, [pc, #20]	; (20000244 <mutex_enter_timeout_ms+0x68>)
2000022e:	4a06      	ldr	r2, [pc, #24]	; (20000248 <mutex_enter_timeout_ms+0x6c>)
20000230:	213f      	movs	r1, #63	; 0x3f
20000232:	4806      	ldr	r0, [pc, #24]	; (2000024c <mutex_enter_timeout_ms+0x70>)
20000234:	f000 f8dc 	bl	200003f0 <____assert_func_veneer>
20000238:	4b02      	ldr	r3, [pc, #8]	; (20000244 <mutex_enter_timeout_ms+0x68>)
2000023a:	4a03      	ldr	r2, [pc, #12]	; (20000248 <mutex_enter_timeout_ms+0x6c>)
2000023c:	213f      	movs	r1, #63	; 0x3f
2000023e:	4803      	ldr	r0, [pc, #12]	; (2000024c <mutex_enter_timeout_ms+0x70>)
20000240:	f000 f8d6 	bl	200003f0 <____assert_func_veneer>
20000244:	1000ab18 	.word	0x1000ab18
20000248:	1000b8d8 	.word	0x1000b8d8
2000024c:	1000ab34 	.word	0x1000ab34

20000250 <mutex_exit>:
20000250:	b510      	push	{r4, lr}
20000252:	6802      	ldr	r2, [r0, #0]
20000254:	f3ef 8110 	mrs	r1, PRIMASK
20000258:	b672      	cpsid	i
2000025a:	6813      	ldr	r3, [r2, #0]
2000025c:	2b00      	cmp	r3, #0
2000025e:	d0fc      	beq.n	2000025a <mutex_exit+0xa>
20000260:	f3bf 8f5f 	dmb	sy
20000264:	2304      	movs	r3, #4
20000266:	56c3      	ldrsb	r3, [r0, r3]
20000268:	2b00      	cmp	r3, #0
2000026a:	db0a      	blt.n	20000282 <mutex_exit+0x32>
2000026c:	23ff      	movs	r3, #255	; 0xff
2000026e:	7103      	strb	r3, [r0, #4]
20000270:	6803      	ldr	r3, [r0, #0]
20000272:	f3bf 8f5f 	dmb	sy
20000276:	2200      	movs	r2, #0
20000278:	601a      	str	r2, [r3, #0]
2000027a:	f381 8810 	msr	PRIMASK, r1
2000027e:	bf40      	sev
20000280:	bd10      	pop	{r4, pc}
20000282:	4b03      	ldr	r3, [pc, #12]	; (20000290 <mutex_exit+0x40>)
20000284:	4a03      	ldr	r2, [pc, #12]	; (20000294 <mutex_exit+0x44>)
20000286:	21a9      	movs	r1, #169	; 0xa9
20000288:	4803      	ldr	r0, [pc, #12]	; (20000298 <mutex_exit+0x48>)
2000028a:	f000 f8b1 	bl	200003f0 <____assert_func_veneer>
2000028e:	46c0      	nop			; (mov r8, r8)
20000290:	1000b87c 	.word	0x1000b87c
20000294:	1000b8b4 	.word	0x1000b8b4
20000298:	1000b830 	.word	0x1000b830

2000029c <flash_init_boot2_copyout>:
2000029c:	4b09      	ldr	r3, [pc, #36]	; (200002c4 <flash_init_boot2_copyout+0x28>)
2000029e:	781b      	ldrb	r3, [r3, #0]
200002a0:	2b00      	cmp	r3, #0
200002a2:	d008      	beq.n	200002b6 <flash_init_boot2_copyout+0x1a>
200002a4:	e00c      	b.n	200002c0 <flash_init_boot2_copyout+0x24>
200002a6:	009a      	lsls	r2, r3, #2
200002a8:	2180      	movs	r1, #128	; 0x80
200002aa:	0549      	lsls	r1, r1, #21
200002ac:	1851      	adds	r1, r2, r1
200002ae:	6808      	ldr	r0, [r1, #0]
200002b0:	4905      	ldr	r1, [pc, #20]	; (200002c8 <flash_init_boot2_copyout+0x2c>)
200002b2:	5050      	str	r0, [r2, r1]
200002b4:	3301      	adds	r3, #1
200002b6:	2b3f      	cmp	r3, #63	; 0x3f
200002b8:	ddf5      	ble.n	200002a6 <flash_init_boot2_copyout+0xa>
200002ba:	4b02      	ldr	r3, [pc, #8]	; (200002c4 <flash_init_boot2_copyout+0x28>)
200002bc:	2201      	movs	r2, #1
200002be:	701a      	strb	r2, [r3, #0]
200002c0:	4770      	bx	lr
200002c2:	46c0      	nop			; (mov r8, r8)
200002c4:	20002148 	.word	0x20002148
200002c8:	20000b24 	.word	0x20000b24

200002cc <flash_enable_xip_via_boot2>:
200002cc:	b510      	push	{r4, lr}
200002ce:	4b02      	ldr	r3, [pc, #8]	; (200002d8 <flash_enable_xip_via_boot2+0xc>)
200002d0:	3301      	adds	r3, #1
200002d2:	4798      	blx	r3
200002d4:	bd10      	pop	{r4, pc}
200002d6:	46c0      	nop			; (mov r8, r8)
200002d8:	20000b24 	.word	0x20000b24

200002dc <flash_cs_force>:
200002dc:	2800      	cmp	r0, #0
200002de:	d00a      	beq.n	200002f6 <flash_cs_force+0x1a>
200002e0:	2303      	movs	r3, #3
200002e2:	021b      	lsls	r3, r3, #8
200002e4:	4a05      	ldr	r2, [pc, #20]	; (200002fc <flash_cs_force+0x20>)
200002e6:	6812      	ldr	r2, [r2, #0]
200002e8:	4053      	eors	r3, r2
200002ea:	22c0      	movs	r2, #192	; 0xc0
200002ec:	0092      	lsls	r2, r2, #2
200002ee:	4013      	ands	r3, r2
200002f0:	4a03      	ldr	r2, [pc, #12]	; (20000300 <flash_cs_force+0x24>)
200002f2:	6013      	str	r3, [r2, #0]
200002f4:	4770      	bx	lr
200002f6:	2302      	movs	r3, #2
200002f8:	e7f3      	b.n	200002e2 <flash_cs_force+0x6>
200002fa:	46c0      	nop			; (mov r8, r8)
200002fc:	4001800c 	.word	0x4001800c
20000300:	4001900c 	.word	0x4001900c

20000304 <flash_do_cmd>:
20000304:	b5f0      	push	{r4, r5, r6, r7, lr}
20000306:	46d6      	mov	lr, sl
20000308:	464f      	mov	r7, r9
2000030a:	4646      	mov	r6, r8
2000030c:	b5c0      	push	{r6, r7, lr}
2000030e:	0007      	movs	r7, r0
20000310:	000e      	movs	r6, r1
20000312:	0015      	movs	r5, r2
20000314:	2318      	movs	r3, #24
20000316:	469a      	mov	sl, r3
20000318:	881b      	ldrh	r3, [r3, #0]
2000031a:	2214      	movs	r2, #20
2000031c:	4690      	mov	r8, r2
2000031e:	8810      	ldrh	r0, [r2, #0]
20000320:	4928      	ldr	r1, [pc, #160]	; (200003c4 <flash_do_cmd+0xc0>)
20000322:	4798      	blx	r3
20000324:	4681      	mov	r9, r0
20000326:	4653      	mov	r3, sl
20000328:	881b      	ldrh	r3, [r3, #0]
2000032a:	4642      	mov	r2, r8
2000032c:	8810      	ldrh	r0, [r2, #0]
2000032e:	4926      	ldr	r1, [pc, #152]	; (200003c8 <flash_do_cmd+0xc4>)
20000330:	4798      	blx	r3
20000332:	0004      	movs	r4, r0
20000334:	4653      	mov	r3, sl
20000336:	881b      	ldrh	r3, [r3, #0]
20000338:	4642      	mov	r2, r8
2000033a:	8810      	ldrh	r0, [r2, #0]
2000033c:	4923      	ldr	r1, [pc, #140]	; (200003cc <flash_do_cmd+0xc8>)
2000033e:	4798      	blx	r3
20000340:	4680      	mov	r8, r0
20000342:	464b      	mov	r3, r9
20000344:	2b00      	cmp	r3, #0
20000346:	d00c      	beq.n	20000362 <flash_do_cmd+0x5e>
20000348:	2c00      	cmp	r4, #0
2000034a:	d00a      	beq.n	20000362 <flash_do_cmd+0x5e>
2000034c:	2800      	cmp	r0, #0
2000034e:	d008      	beq.n	20000362 <flash_do_cmd+0x5e>
20000350:	f7ff ffa4 	bl	2000029c <flash_init_boot2_copyout>
20000354:	47c8      	blx	r9
20000356:	47a0      	blx	r4
20000358:	2000      	movs	r0, #0
2000035a:	f7ff ffbf 	bl	200002dc <flash_cs_force>
2000035e:	002a      	movs	r2, r5
20000360:	e00f      	b.n	20000382 <flash_do_cmd+0x7e>
20000362:	4b1b      	ldr	r3, [pc, #108]	; (200003d0 <flash_do_cmd+0xcc>)
20000364:	4a1b      	ldr	r2, [pc, #108]	; (200003d4 <flash_do_cmd+0xd0>)
20000366:	2180      	movs	r1, #128	; 0x80
20000368:	481b      	ldr	r0, [pc, #108]	; (200003d8 <flash_do_cmd+0xd4>)
2000036a:	f000 f841 	bl	200003f0 <____assert_func_veneer>
2000036e:	2b00      	cmp	r3, #0
20000370:	d007      	beq.n	20000382 <flash_do_cmd+0x7e>
20000372:	2a00      	cmp	r2, #0
20000374:	d005      	beq.n	20000382 <flash_do_cmd+0x7e>
20000376:	23c0      	movs	r3, #192	; 0xc0
20000378:	055b      	lsls	r3, r3, #21
2000037a:	6e1b      	ldr	r3, [r3, #96]	; 0x60
2000037c:	7033      	strb	r3, [r6, #0]
2000037e:	3a01      	subs	r2, #1
20000380:	3601      	adds	r6, #1
20000382:	002b      	movs	r3, r5
20000384:	4313      	orrs	r3, r2
20000386:	d012      	beq.n	200003ae <flash_do_cmd+0xaa>
20000388:	23c0      	movs	r3, #192	; 0xc0
2000038a:	055b      	lsls	r3, r3, #21
2000038c:	6a9c      	ldr	r4, [r3, #40]	; 0x28
2000038e:	2308      	movs	r3, #8
20000390:	4023      	ands	r3, r4
20000392:	07a1      	lsls	r1, r4, #30
20000394:	d5eb      	bpl.n	2000036e <flash_do_cmd+0x6a>
20000396:	2d00      	cmp	r5, #0
20000398:	d0e9      	beq.n	2000036e <flash_do_cmd+0x6a>
2000039a:	1b51      	subs	r1, r2, r5
2000039c:	290d      	cmp	r1, #13
2000039e:	d8e6      	bhi.n	2000036e <flash_do_cmd+0x6a>
200003a0:	7838      	ldrb	r0, [r7, #0]
200003a2:	21c0      	movs	r1, #192	; 0xc0
200003a4:	0549      	lsls	r1, r1, #21
200003a6:	6608      	str	r0, [r1, #96]	; 0x60
200003a8:	3d01      	subs	r5, #1
200003aa:	3701      	adds	r7, #1
200003ac:	e7df      	b.n	2000036e <flash_do_cmd+0x6a>
200003ae:	2001      	movs	r0, #1
200003b0:	f7ff ff94 	bl	200002dc <flash_cs_force>
200003b4:	47c0      	blx	r8
200003b6:	f7ff ff89 	bl	200002cc <flash_enable_xip_via_boot2>
200003ba:	bce0      	pop	{r5, r6, r7}
200003bc:	46ba      	mov	sl, r7
200003be:	46b1      	mov	r9, r6
200003c0:	46a8      	mov	r8, r5
200003c2:	bdf0      	pop	{r4, r5, r6, r7, pc}
200003c4:	00004649 	.word	0x00004649
200003c8:	00005845 	.word	0x00005845
200003cc:	00004346 	.word	0x00004346
200003d0:	1000c72c 	.word	0x1000c72c
200003d4:	1000c76c 	.word	0x1000c76c
200003d8:	1000c63c 	.word	0x1000c63c

200003dc <__aeabi_idiv0>:
200003dc:	4770      	bx	lr
200003de:	46c0      	nop			; (mov r8, r8)

200003e0 <____wrap___aeabi_lmul_veneer>:
200003e0:	b401      	push	{r0}
200003e2:	4802      	ldr	r0, [pc, #8]	; (200003ec <____wrap___aeabi_lmul_veneer+0xc>)
200003e4:	4684      	mov	ip, r0
200003e6:	bc01      	pop	{r0}
200003e8:	4760      	bx	ip
200003ea:	bf00      	nop
200003ec:	100071a9 	.word	0x100071a9

200003f0 <____assert_func_veneer>:
200003f0:	b401      	push	{r0}
200003f2:	4802      	ldr	r0, [pc, #8]	; (200003fc <____assert_func_veneer+0xc>)
200003f4:	4684      	mov	ip, r0
200003f6:	bc01      	pop	{r0}
200003f8:	4760      	bx	ip
200003fa:	bf00      	nop
200003fc:	10004501 	.word	0x10004501

20000400 <__best_effort_wfe_or_timeout_veneer>:
20000400:	b401      	push	{r0}
20000402:	4802      	ldr	r0, [pc, #8]	; (2000040c <__best_effort_wfe_or_timeout_veneer+0xc>)
20000404:	4684      	mov	ip, r0
20000406:	bc01      	pop	{r0}
20000408:	4760      	bx	ip
2000040a:	bf00      	nop
2000040c:	10003c55 	.word	0x10003c55

20000410 <__time_us_64_veneer>:
20000410:	b401      	push	{r0}
20000412:	4802      	ldr	r0, [pc, #8]	; (2000041c <__time_us_64_veneer+0xc>)
20000414:	4684      	mov	ip, r0
20000416:	bc01      	pop	{r0}
20000418:	4760      	bx	ip
2000041a:	bf00      	nop
2000041c:	10003d79 	.word	0x10003d79

20000420 <carPrevX>:
20000420:	00000003                                ....

20000424 <carPrevY>:
20000424:	00000004                                ....

20000428 <stackTop>:
20000428:	ffffffff                                ....

2000042c <i2cAccel>:
2000042c:	2000052c                                ,.. 

20000430 <isBlack>:
20000430:	00000001                                ....

20000434 <lineThreshold>:
20000434:	000007d0                                ....

20000438 <whiteOffSet>:
20000438:	00000001                                ....

2000043c <striped_spin_lock_num>:
2000043c:	00000010                                ....

20000440 <irq_handler_chain_slots>:
20000440:	00000000 	.word	0x00000000
20000444:	00010000 	.word	0x00010000
	...
20000450:	00020000 	.word	0x00020000
	...
2000045c:	00030000 	.word	0x00030000
	...
20000468:	00ff0000 	.word	0x00ff0000
2000046c:	00000000 	.word	0x00000000

20000470 <irq_handler_chain_first_slot>:
20000470:	b500      	push	{lr}
20000472:	6848      	ldr	r0, [r1, #4]
20000474:	3101      	adds	r1, #1
20000476:	468e      	mov	lr, r1
20000478:	4700      	bx	r0

2000047a <irq_handler_chain_remove_tail>:
2000047a:	4670      	mov	r0, lr
2000047c:	3809      	subs	r0, #9
2000047e:	4901      	ldr	r1, [pc, #4]	; (20000484 <irq_handler_chain_remove_tail+0xa>)
20000480:	4788      	blx	r1
20000482:	bd00      	pop	{pc}
20000484:	10002f95 	.word	0x10002f95

20000488 <default_alarm_pool>:
20000488:	200004a0 00000000 20000558 20000cac     ... ....X.. ... 
	...

200004a0 <default_alarm_pool_heap>:
200004a0:	20000cbc 00000000 00000000 00000010     ... ............

200004b0 <aeabi_bits_funcs>:
200004b0:	00003350 	.word	0x00003350
200004b4:	0000334c 	.word	0x0000334c
200004b8:	00003354 	.word	0x00003354
200004bc:	00003352 	.word	0x00003352

200004c0 <aeabi_bits_funcs_end>:
200004c0:	0000534d 	.word	0x0000534d
200004c4:	0000434d 	.word	0x0000434d
200004c8:	00003453 	.word	0x00003453
200004cc:	00003443 	.word	0x00003443

200004d0 <stdio_uart>:
200004d0:	10007815 00000000 10007889 00000000     .x.......x......
200004e0:	00000100                                ....

200004e4 <stdio_usb>:
200004e4:	10007ac5 00000000 10007a35 00000000     .z......5z......
200004f4:	00000100                                ....

200004f8 <ep_dir_string>:
200004f8:	1000bfe0 1000bfc0                       ........

20000500 <_usbd_qdef>:
20000500:	20000a10 000c0010 ffe00000 0000001f     ... ............
	...

20000524 <i2c0_inst>:
20000524:	40044000 00000000                       .@.@....

2000052c <i2c1_inst>:
2000052c:	40048000 00000000                       ...@....

20000534 <print_mutex>:
	...

2000053c <__mutex_array_end>:
2000053c:	1000754d 	.word	0x1000754d
20000540:	10005c01 	.word	0x10005c01
20000544:	100063b1 	.word	0x100063b1
20000548:	10007391 	.word	0x10007391

2000054c <__frame_dummy_init_array_entry>:
2000054c:	100002ed 1000a4b5                       ........
